
                                   Tue Apr 07 08:54:23 2015           Page 1
                                   Tue Apr 07 08:54:22 2015       gh_2i05v.s
Command Line:   C:\GHS\V35\mips35\asmips.exe -noundefined -elf -b0
                -IC:\local\Workspace\DC_V04.01.00_int\cu3x1Platform_SRC\emWinColour
                -IC:\local\Workspace\DC_V04.01.00_int\cu3x1Platform_SRC\platform\include
                -IC:\local\Workspace\DC_V04.01.00_int\cu3x1Platform_SRC\platform\common
                -IC:\local\Workspace\DC_V04.01.00_int\cu3x1Platform_SRC\platform\hardware
                -IC:\local\Workspace\DC_V04.01.00_int\cu3x1Platform_SRC\platform\hardware\D3018X
                -IC:\local\Workspace\DC_V04.01.00_int\cu3x1Platform_SRC\embos\inc
                -IC:\local\Workspace\DC_V04.01.00_int\cu3x1Platform_SRC\emWinColour\config
                -IC:\local\Workspace\DC_V04.01.00_int\cu3x1Platform_SRC\emWinColour\gui\ConvertMono
                -IC:\local\Workspace\DC_V04.01.00_int\cu3x1Platform_SRC\emWinColour\gui\Core
                -IC:\local\Workspace\DC_V04.01.00_int\cu3x1Platform_SRC\emWinColour\gui\Font
                -IC:\local\Workspace\DC_V04.01.00_int\cu3x1Platform_SRC\emWinColour\gui\LCDDriver
                -IC:\local\Workspace\DC_V04.01.00_int\cu3x1Platform_SRC\emWinColour\gui\MemDev
                -IC:\local\Workspace\DC_V04.01.00_int\cu3x1Platform_SRC\emWinColour\gui\VNC
                -IC:\local\Workspace\DC_V04.01.00_int\cu3x1Platform_SRC\emWinColour\gui\Widget
                -IC:\local\Workspace\DC_V04.01.00_int\cu3x1Platform_SRC\emWinColour\gui\wm
                -IC:\local\Workspace\DC_V04.01.00_int\cu3x1App_SRC\Control\source
                -IC:\local\Workspace\DC_V04.01.00_int\cu3x1App_SRC\Control\source\include
                -IC:\local\Workspace\DC_V04.01.00_int\cu3x1App_SRC\Control\source\util
                -IC:\local\Workspace\DC_V04.01.00_int\cu3x1App_SRC\Control\source\datapoint
                -IC:\local\Workspace\DC_V04.01.00_int\cu3x1App_SRC\Control\source\factory
                -IC:\local\Workspace\DC_V04.01.00_int\cu3x1Platform_SRC\embos
                -IC:\local\Workspace\DC_V04.01.00_int\cu3x1Platform_SRC\emWinColour\gui\core
                -IC:\local\Workspace\DC_V04.01.00_int\cu3x1App_SRC\Control\source\rtip\webpage
                -IC:\local\Workspace\DC_V04.01.00_int\cu3x1App_SRC\Control\source\rtip\config
                -IC:\local\Workspace\DC_V04.01.00_int\cu3x1App_SRC\Control\source\rtip\xnet
                -IC:\local\Workspace\DC_V04.01.00_int\cu3x1App_SRC\Control\source\stub
                -IC:\local\Workspace\DC_V04.01.00_int\cu3x1App_SRC\Control\source\test
                -IC:\local\Workspace\DC_V04.01.00_int\cu3x1App_SRC\Control\source\GENIpro
                -IC:\local\Workspace\DC_V04.01.00_int\cu3x1App_SRC\Control\source\GENIpro\GENI_sys
                -IC:\local\Workspace\DC_V04.01.00_int\cu3x1App_SRC\Control\source\GENIpro\GENIusb\emUSB\USB\Driver
                -IC:\local\Workspace\DC_V04.01.00_int\cu3x1App_SRC\Control\source\application\intercom
                -IC:\local\Workspace\DC_V04.01.00_int\cu3x1App_SRC\Control\source\application\controller
                -IC:\local\Workspace\DC_V04.01.00_int\cu3x1App_SRC\Control\source\application\driver
                -IC:\local\Workspace\DC_V04.01.00_int\cu3x1App_SRC\Control\source\application\webif
                -IC:\local\Workspace\DC_V04.01.00_int\cu3x1App_SRC\Control\source\application\relay
                -IC:\local\Workspace\DC_V04.01.00_int\cu3x1App_SRC\Control\source\application\GENIApp
                -IC:\local\Workspace\DC_V04.01.00_int\cu3x1App_SRC\Control\source\application\alarm
                -IC:\local\Workspace\DC_V04.01.00_int\cu3x1App_SRC\Control\source\application\config
                -IC:\local\Workspace\DC_V04.01.00_int\cu3x1App_SRC\Control\source\application\AnaInConfigCtrl
                -IC:\local\Workspace\DC_V04.01.00_int\cu3x1App_SRC\Control\source\application\Sms
                -IC:\local\Workspace\DC_V04.01.00_int\cu3x1App_SRC\Control\source\application\display
                -IC:\local\Workspace\DC_V04.01.00_int\cu3x1App_SRC\Control\source\application\display\display_task
                -IC:\local\Workspace\DC_V04.01.00_int\cu3x1App_SRC\Control\source\application\display\gui_utility
                -IC:\local\Workspace\DC_V04.01.00_int\cu3x1App_SRC\Control\source\application\display\mpcunit
                -IC:\local\Workspace\DC_V04.01.00_int\cu3x1App_SRC\Control\source\GeniPro
                -IC:\local\Workspace\DC_V04.01.00_int\cu3x1App_SRC\Control\source\GeniPro\GENI_sys
                -IC:\local\Workspace\DC_V04.01.00_int\cu3x1App_SRC\Control\source\GeniPro\GENIbus
                -IC:\local\Workspace\DC_V04.01.00_int\cu3x1App_SRC\Control\source\GeniPro\GENIcom
                -IC:\local\Workspace\DC_V04.01.00_int\cu3x1App_SRC\Control\source\GeniPro\GENIrs232
                -IC:\local\Workspace\DC_V04.01.00_int\cu3x1App_SRC\Control\source\GeniPro\Virtual
                -IC:\local\Workspace\DC_V04.01.00_int\cu3x1Platform_SRC\Platform\common
                -IC:\local\Workspace\DC_V04.01.00_int\cu3x1Platform_SRC\Platform\hardware
                -IC:\local\Workspace\DC_V04.01.00_int\cu3x1Platform_SRC\Platform\hardware\D3018X
                -IC:\local\Workspace\DC_V04.01.00_int\cu3x1App_SRC\Control\source\application\display\imagesTFT
                -IC:\GHS\V35\mips35\mipsl_sf -r4121 -source=GUI_FillPolygon.c -o
                objs\gh_2i05v.o -list=objs\GUI_FillPolygon.lst
                C:\Users\55602\AppData\Local\Temp\gh_2i05v.s
Source File:    C:\Users\55602\AppData\Local\Temp\gh_2i05v.s
Directory:      C:\local\Workspace\DC_V04.01.00_int\cu3x1App_SRC\Control\source
Host OS:        GHS_WIN32
Version:        AS-MIPS 3.5#11 
Release:        MULTI 2000, MIPS v3.5
Revision Date:  Wed Feb 27 12:19:03 2002
Release Date:   Sat Mar 02 02:57:59 2002
                             1	 #Source File:   C:\local\Workspace\DC_V04.01.00_int\cu3x1Platform_SRC\emWinColour\GUI\Core\GUI_FillPolygon.c

                                   Tue Apr 07 08:54:23 2015           Page 2
                                   Tue Apr 07 08:54:22 2015       gh_2i05v.s
                             2	 #Directory:     
                             3	 #		C:\local\Workspace\DC_V04.01.00_int\cu3x1App_SRC\Control\source
                             4	 #Compile Date:  Tue Apr 07 08:54:22 2015
                             5	 #Host OS:       Win32
                             6	 #Version:       C-MIPS 3.5#11 RELEASE VERSION
                             7	 #Release:       MULTI 2000, MIPS v3.5
                             8	 #Revision Date: Fri Mar 01 11:32:40 2002
                             9	 #Release Date:  Sat Mar 02 02:58:48 2002
                            10		.set	noat
                            11		.set	noreorder
                            12		.set	nomacro
                            13		.text
                            14		.align	4
                            15	_Add:
        8f820000 00000000   16		lw	$2, %sdaoff(GL_FP_Cnt)($28)
                            17	 #	    .bf
        2859000c 00000004   18		slti	$25, $2, 12
        1320005f 00000008   19		beq	$25, $0, .L114
        00401825 0000000c   20		move	$3, $2
        3c090000 00000010   21		lui	$9, %hi(_aX)
        00404025 00000014   22		move	$8, $2
        000850c2 00000018   23		srl	$10, $8, 3
        11400046 0000001c   24		beq	$10, $0, .L144
        25290000 00000020   25		addiu	$9, $9, %lo(_aX)
        2522fffe 00000024   26		addiu	$2, $9, -2
        01205825 00000028   27		move	$11, $9
                            28	.L145:
        0003c040 0000002c   29		sll	$24, $3, 1
        00587821 00000030   30		addu	$15, $2, $24
        85f90000 00000034   31		lh	$25, 0($15)
        0324702a 00000038   32		slt	$14, $25, $4
        15c0004c 0000003c   33		bne	$14, $0, .L124
        01786821 00000040   34		addu	$13, $11, $24
        a5b90000 00000044   35		sh	$25, 0($13)
        2463ffff 00000048   36		addiu	$3, $3, -1
        00037840 0000004c   37		sll	$15, $3, 1
        004fc821 00000050   38		addu	$25, $2, $15
        87390000 00000054   39		lh	$25, 0($25)
        0324c02a 00000058   40		slt	$24, $25, $4
        17000044 0000005c   41		bne	$24, $0, .L124
        016f7821 00000060   42		addu	$15, $11, $15
        a5f90000 00000064   43		sh	$25, 0($15)
        2463ffff 00000068   44		addiu	$3, $3, -1
        0003c840 0000006c   45		sll	$25, $3, 1
        00597021 00000070   46		addu	$14, $2, $25
        85d80000 00000074   47		lh	$24, 0($14)
        0304682a 00000078   48		slt	$13, $24, $4
        15a0003c 0000007c   49		bne	$13, $0, .L124
        0179c821 00000080   50		addu	$25, $11, $25
        a7380000 00000084   51		sh	$24, 0($25)
        2463ffff 00000088   52		addiu	$3, $3, -1
        00037040 0000008c   53		sll	$14, $3, 1
        004ec021 00000090   54		addu	$24, $2, $14
        87190000 00000094   55		lh	$25, 0($24)
        0324782a 00000098   56		slt	$15, $25, $4
        15e00034 0000009c   57		bne	$15, $0, .L124

                                   Tue Apr 07 08:54:23 2015           Page 3
                                   Tue Apr 07 08:54:22 2015       gh_2i05v.s
        016e7021 000000a0   58		addu	$14, $11, $14
        a5d90000 000000a4   59		sh	$25, 0($14)
        2463ffff 000000a8   60		addiu	$3, $3, -1
        0003c040 000000ac   61		sll	$24, $3, 1
        00586821 000000b0   62		addu	$13, $2, $24
        85af0000 000000b4   63		lh	$15, 0($13)
        01e4c82a 000000b8   64		slt	$25, $15, $4
        1720002c 000000bc   65		bne	$25, $0, .L124
        0178c021 000000c0   66		addu	$24, $11, $24
        a70f0000 000000c4   67		sh	$15, 0($24)
        2463ffff 000000c8   68		addiu	$3, $3, -1
        0003c040 000000cc   69		sll	$24, $3, 1
        00587821 000000d0   70		addu	$15, $2, $24
        85f90000 000000d4   71		lh	$25, 0($15)
        0324702a 000000d8   72		slt	$14, $25, $4
        15c00024 000000dc   73		bne	$14, $0, .L124
        01786821 000000e0   74		addu	$13, $11, $24
        a5b90000 000000e4   75		sh	$25, 0($13)
        2463ffff 000000e8   76		addiu	$3, $3, -1
        00037840 000000ec   77		sll	$15, $3, 1
        004fc821 000000f0   78		addu	$25, $2, $15
        87390000 000000f4   79		lh	$25, 0($25)
        0324c02a 000000f8   80		slt	$24, $25, $4
        1700001c 000000fc   81		bne	$24, $0, .L124
        016f7821 00000100   82		addu	$15, $11, $15
        a5f90000 00000104   83		sh	$25, 0($15)
        2463ffff 00000108   84		addiu	$3, $3, -1
        0003c840 0000010c   85		sll	$25, $3, 1
        00597021 00000110   86		addu	$14, $2, $25
        85d80000 00000114   87		lh	$24, 0($14)
        0304682a 00000118   88		slt	$13, $24, $4
        55a00015 0000011c   89		bnel	$13, $0, .L1000124
        0003c840 00000120   90		sll	$25, $3, 1
        2463ffff 00000124   91		addiu	$3, $3, -1
        0179c821 00000128   92		addu	$25, $11, $25
        254affff 0000012c   93		addiu	$10, $10, -1
        1540ffbe 00000130   94		bne	$10, $0, .L145
        a7380000 00000134   95		sh	$24, 0($25)
                            96	.L144:
        310a0007 00000138   97		andi	$10, $8, 7
        1140000c 0000013c   98		beq	$10, $0, .L124
        2522fffe 00000140   99		addiu	$2, $9, -2
        0003c840 00000144  100		sll	$25, $3, 1
        00591021 00000148  101		addu	$2, $2, $25
                           102	.L171:
        84590000 0000014c  103		lh	$25, 0($2)
        0324702a 00000150  104		slt	$14, $25, $4
        55c00007 00000154  105		bnel	$14, $0, .L1000124
        0003c840 00000158  106		sll	$25, $3, 1
        2463ffff 0000015c  107		addiu	$3, $3, -1
        2442fffe 00000160  108		addiu	$2, $2, -2
        254affff 00000164  109		addiu	$10, $10, -1
        1540fff8 00000168  110		bne	$10, $0, .L171
        a4590004 0000016c  111		sh	$25, 4($2)
                           112	.L124:
        0003c840 00000170  113		sll	$25, $3, 1

                                   Tue Apr 07 08:54:23 2015           Page 4
                                   Tue Apr 07 08:54:22 2015       gh_2i05v.s
                           114	.L1000124:
        8f8f0000 00000174  115		lw	$15, %sdaoff(GL_FP_Cnt)($28)
        0139c021 00000178  116		addu	$24, $9, $25
        a7040000 0000017c  117		sh	$4, 0($24)
        25ef0001 00000180  118		addiu	$15, $15, 1
        af8f0000 00000184  119		sw	$15, %sdaoff(GL_FP_Cnt)($28)
                           120	.L114:
                           121	 #	    .ef
        03e00008 00000188  122		jr	$ra
        00000000 0000018c  123		nop
                           124		.type	_Add,@function
                           125		.size	_Add,.-_Add
                           126		.align	4
                           127	 #i	$3	local
                           128	
                           129	 #x	$4	param
                           130	
                           131		.data
                           132	.L250:
                           133		.bss	_aX,24,4
                           134	
                           135		.lsbss	GL_FP_Cnt,4,4
                           136	
                           137		.text
                           138		.align	4
                           139		.align	4
                           140		.globl	GL_FillPolygon
                           141	GL_FillPolygon:
        27bdffb8 00000190  142		addiu	$sp, $sp, -72
                           143	 #	    .bf
        afb50014 00000194  144		sw	$21, 20($sp)
        34150000 00000198  145		ori	$21, $0, 0
        afbe0020 0000019c  146		sw	$fp, 32($sp)
        afb7001c 000001a0  147		sw	$23, 28($sp)
        afb40010 000001a4  148		sw	$20, 16($sp)
        afb3000c 000001a8  149		sw	$19, 12($sp)
        afb00000 000001ac  150		sw	$16, 0($sp)
        00808025 000001b0  151		move	$16, $4
        afb20008 000001b4  152		sw	$18, 8($sp)
        00c09025 000001b8  153		move	$18, $6
        34030fff 000001bc  154		ori	$3, $0, 4095
        afb60018 000001c0  155		sw	$22, 24($sp)
        2416f001 000001c4  156		addiu	$22, $0, -4095
        afb10004 000001c8  157		sw	$17, 4($sp)
        00a08825 000001cc  158		move	$17, $5
        340a0000 000001d0  159		ori	$10, $0, 0
        0151c82a 000001d4  160		slt	$25, $10, $17
        13200002 000001d8  161		beq	$25, $0, .L1141
        afbf0044 000001dc  162		sw	$ra, 68($sp)
        02205025 000001e0  163		move	$10, $17
                           164	.L1141:
        000a58c2 000001e4  165		srl	$11, $10, 3
        1160003d 000001e8  166		beq	$11, $0, .L719
        02001025 000001ec  167		move	$2, $16
        000ba8c0 000001f0  168		sll	$21, $11, 3
                           169	.L720:

                                   Tue Apr 07 08:54:23 2015           Page 5
                                   Tue Apr 07 08:54:22 2015       gh_2i05v.s
        84530002 000001f4  170		lh	$19, 2($2)
        0263782a 000001f8  171		slt	$15, $19, $3
        55e00001 000001fc  172		bnel	$15, $0, .L722
        02601825 00000200  173		move	$3, $19
                           174	.L722:
        02d3702a 00000204  175		slt	$14, $22, $19
        55c00001 00000208  176		bnel	$14, $0, .L726
        0260b025 0000020c  177		move	$22, $19
                           178	.L726:
        84530006 00000210  179		lh	$19, 6($2)
        0263682a 00000214  180		slt	$13, $19, $3
        55a00001 00000218  181		bnel	$13, $0, .L728
        02601825 0000021c  182		move	$3, $19
                           183	.L728:
        02d3c82a 00000220  184		slt	$25, $22, $19
        57200001 00000224  185		bnel	$25, $0, .L732
        0260b025 00000228  186		move	$22, $19
                           187	.L732:
        8453000a 0000022c  188		lh	$19, 10($2)
        0263c02a 00000230  189		slt	$24, $19, $3
        57000001 00000234  190		bnel	$24, $0, .L734
        02601825 00000238  191		move	$3, $19
                           192	.L734:
        02d3782a 0000023c  193		slt	$15, $22, $19
        55e00001 00000240  194		bnel	$15, $0, .L738
        0260b025 00000244  195		move	$22, $19
                           196	.L738:
        8453000e 00000248  197		lh	$19, 14($2)
        0263702a 0000024c  198		slt	$14, $19, $3
        55c00001 00000250  199		bnel	$14, $0, .L740
        02601825 00000254  200		move	$3, $19
                           201	.L740:
        02d3682a 00000258  202		slt	$13, $22, $19
        55a00001 0000025c  203		bnel	$13, $0, .L744
        0260b025 00000260  204		move	$22, $19
                           205	.L744:
        84530012 00000264  206		lh	$19, 18($2)
        0263c82a 00000268  207		slt	$25, $19, $3
        57200001 0000026c  208		bnel	$25, $0, .L746
        02601825 00000270  209		move	$3, $19
                           210	.L746:
        02d3c02a 00000274  211		slt	$24, $22, $19
        57000001 00000278  212		bnel	$24, $0, .L750
        0260b025 0000027c  213		move	$22, $19
                           214	.L750:
        84530016 00000280  215		lh	$19, 22($2)
        0263782a 00000284  216		slt	$15, $19, $3
        55e00001 00000288  217		bnel	$15, $0, .L752
        02601825 0000028c  218		move	$3, $19
                           219	.L752:
        02d3702a 00000290  220		slt	$14, $22, $19
        55c00001 00000294  221		bnel	$14, $0, .L756
        0260b025 00000298  222		move	$22, $19
                           223	.L756:
        8453001a 0000029c  224		lh	$19, 26($2)
        0263682a 000002a0  225		slt	$13, $19, $3

                                   Tue Apr 07 08:54:23 2015           Page 6
                                   Tue Apr 07 08:54:22 2015       gh_2i05v.s
        55a00001 000002a4  226		bnel	$13, $0, .L758
        02601825 000002a8  227		move	$3, $19
                           228	.L758:
        02d3c82a 000002ac  229		slt	$25, $22, $19
        57200001 000002b0  230		bnel	$25, $0, .L762
        0260b025 000002b4  231		move	$22, $19
                           232	.L762:
        8453001e 000002b8  233		lh	$19, 30($2)
        0263c02a 000002bc  234		slt	$24, $19, $3
        57000001 000002c0  235		bnel	$24, $0, .L764
        02601825 000002c4  236		move	$3, $19
                           237	.L764:
        02d3782a 000002c8  238		slt	$15, $22, $19
        55e00001 000002cc  239		bnel	$15, $0, .L767
        0260b025 000002d0  240		move	$22, $19
                           241	.L767:
        256bffff 000002d4  242		addiu	$11, $11, -1
        1560ffc6 000002d8  243		bne	$11, $0, .L720
        24420020 000002dc  244		addiu	$2, $2, 32
                           245	.L719:
        314b0007 000002e0  246		andi	$11, $10, 7
        1160000c 000002e4  247		beq	$11, $0, .L292
        00151080 000002e8  248		sll	$2, $21, 2
        02021021 000002ec  249		addu	$2, $16, $2
                           250	.L770:
        84530002 000002f0  251		lh	$19, 2($2)
        0263c82a 000002f4  252		slt	$25, $19, $3
        57200001 000002f8  253		bnel	$25, $0, .L772
        02601825 000002fc  254		move	$3, $19
                           255	.L772:
        02d3c02a 00000300  256		slt	$24, $22, $19
        57000001 00000304  257		bnel	$24, $0, .L775
        0260b025 00000308  258		move	$22, $19
                           259	.L775:
        256bffff 0000030c  260		addiu	$11, $11, -1
        1560fff7 00000310  261		bne	$11, $0, .L770
        24420004 00000314  262		addiu	$2, $2, 4
                           263	.L292:
        3c010000 00000318  264		lui	$1, %hi(GUI_Context+20)
        8c220000 0000031c  265		lw	$2, %lo(GUI_Context+20)($1)
        5040000c 00000320  266		beql	$2, $0, .L1000300
        3c0c0000 00000324  267		lui	$12, %hi(_aX)
        844d0006 00000328  268		lh	$13, 6($2)
        01a7c023 0000032c  269		subu	$24, $13, $7
        0316c82a 00000330  270		slt	$25, $24, $22
        57200001 00000334  271		bnel	$25, $0, .L302
        0300b025 00000338  272		move	$22, $24
                           273	.L302:
        84580002 0000033c  274		lh	$24, 2($2)
        03071023 00000340  275		subu	$2, $24, $7
        0062782a 00000344  276		slt	$15, $3, $2
        55e00001 00000348  277		bnel	$15, $0, .L300
        00401825 0000034c  278		move	$3, $2
                           279	.L300:
        3c0c0000 00000350  280		lui	$12, %hi(_aX)
                           281	.L1000300:

                                   Tue Apr 07 08:54:23 2015           Page 7
                                   Tue Apr 07 08:54:22 2015       gh_2i05v.s
        258c0000 00000354  282		addiu	$12, $12, %lo(_aX)
        afac0034 00000358  283		sw	$12, 52($sp)
        00609825 0000035c  284		move	$19, $3
        02676021 00000360  285		addu	$12, $19, $7
        afac0030 00000364  286		sw	$12, 48($sp)
        27ac0028 00000368  287		addiu	$12, $sp, 40
        02d3c82a 0000036c  288		slt	$25, $22, $19
        1720017f 00000370  289		bne	$25, $0, .L290
        afac0038 00000374  290		sw	$12, 56($sp)
                           291	.L312:
        8fac0038 00000378  292		lw	$12, 56($sp)
        8fbe0030 0000037c  293		lw	$fp, 48($sp)
        0200a025 00000380  294		move	$20, $16
        afac002c 00000384  295		sw	$12, 44($sp)
        2637ffff 00000388  296		addiu	$23, $17, -1
        34150000 0000038c  297		ori	$21, $0, 0
        02b1c02a 00000390  298		slt	$24, $21, $17
        13000158 00000394  299		beq	$24, $0, .L381
        af800000 00000398  300		sw	$0, %sdaoff(GL_FP_Cnt)($28)
                           301	.L316:
        02b7682a 0000039c  302		slt	$13, $21, $23
                           303	.L1000316:
        11a00002 000003a0  304		beq	$13, $0, .L318
        34020000 000003a4  305		ori	$2, $0, 0
        26a20001 000003a8  306		addiu	$2, $21, 1
                           307	.L318:
        0002c880 000003ac  308		sll	$25, $2, 2
        02194821 000003b0  309		addu	$9, $16, $25
        86830002 000003b4  310		lh	$3, 2($20)
        01201025 000003b8  311		move	$2, $9
        147300f7 000003bc  312		bne	$3, $19, .L320
        844b0002 000003c0  313		lh	$11, 2($2)
        5573001a 000003c4  314		bnel	$11, $19, .L1000322
        340f0000 000003c8  315		ori	$15, $0, 0
        868e0000 000003cc  316		lh	$14, 0($20)
        844d0000 000003d0  317		lh	$13, 0($2)
        01d21821 000003d4  318		addu	$3, $14, $18
        01b23021 000003d8  319		addu	$6, $13, $18
        0066c82a 000003dc  320		slt	$25, $3, $6
        5320000a 000003e0  321		beql	$25, $0, .L1000328
        00c02025 000003e4  322		move	$4, $6
        03c02825 000003e8  323		move	$5, $fp
        0c000000 000003ec  324		jal	LCD_DrawHLine
        00602025 000003f0  325		move	$4, $3
        26b50001 000003f4  326		addiu	$21, $21, 1
        02b1c02a 000003f8  327		slt	$24, $21, $17
        1700ffe7 000003fc  328		bne	$24, $0, .L316
        26940004 00000400  329		addiu	$20, $20, 4
        08000000 00000404  330		j	.L1000381
        8fac0030 00000408  331		lw	$12, 48($sp)
                           332	.L1000328:
        00603025 0000040c  333		move	$6, $3
        0c000000 00000410  334		jal	LCD_DrawHLine
        03c02825 00000414  335		move	$5, $fp
        26b50001 00000418  336		addiu	$21, $21, 1
        02b1c02a 0000041c  337		slt	$24, $21, $17

                                   Tue Apr 07 08:54:23 2015           Page 8
                                   Tue Apr 07 08:54:22 2015       gh_2i05v.s
        1700ffde 00000420  338		bne	$24, $0, .L316
        26940004 00000424  339		addiu	$20, $20, 4
        08000000 00000428  340		j	.L1000381
        8fac0030 0000042c  341		lw	$12, 48($sp)
                           342	.L1000322:
        01f7c02a 00000430  343		slt	$24, $15, $23
        13000002 00000434  344		beq	$24, $0, .L1142
        02a01825 00000438  345		move	$3, $21
        02e07825 0000043c  346		move	$15, $23
                           347	.L1142:
        000f70c2 00000440  348		srl	$14, $15, 3
        11c000a3 00000444  349		beq	$14, $0, .L523
        02e0c025 00000448  350		move	$24, $23
                           351	.L524:
        10600008 0000044c  352		beq	$3, $0, .L526
        2463ffff 00000450  353		addiu	$3, $3, -1
        00036880 00000454  354		sll	$13, $3, 2
        020dc821 00000458  355		addu	$25, $16, $13
        87220002 0000045c  356		lh	$2, 2($25)
        5453000a 00000460  357		bnel	$2, $19, .L1000528
        00401825 00000464  358		move	$3, $2
        08000000 00000468  359		j	.L531
        00000000 0000046c  360		nop
                           361	.L526:
        03001825 00000470  362		move	$3, $24
        00036880 00000474  363		sll	$13, $3, 2
        020dc821 00000478  364		addu	$25, $16, $13
        87220002 0000047c  365		lh	$2, 2($25)
        10530006 00000480  366		beq	$2, $19, .L531
        00000000 00000484  367		nop
        00401825 00000488  368		move	$3, $2
                           369	.L1000528:
        50730117 0000048c  370		beql	$3, $19, .L1000315
        26b50001 00000490  371		addiu	$21, $21, 1
        08000000 00000494  372		j	.L1000344
        00737823 00000498  373		subu	$15, $3, $19
                           374	.L531:
        10600008 0000049c  375		beq	$3, $0, .L533
        2463ffff 000004a0  376		addiu	$3, $3, -1
        00036880 000004a4  377		sll	$13, $3, 2
        020dc821 000004a8  378		addu	$25, $16, $13
        87220002 000004ac  379		lh	$2, 2($25)
        5453000a 000004b0  380		bnel	$2, $19, .L1000535
        00401825 000004b4  381		move	$3, $2
        08000000 000004b8  382		j	.L538
        00000000 000004bc  383		nop
                           384	.L533:
        03001825 000004c0  385		move	$3, $24
        00036880 000004c4  386		sll	$13, $3, 2
        020dc821 000004c8  387		addu	$25, $16, $13
        87220002 000004cc  388		lh	$2, 2($25)
        10530006 000004d0  389		beq	$2, $19, .L538
        00000000 000004d4  390		nop
        00401825 000004d8  391		move	$3, $2
                           392	.L1000535:
        50730103 000004dc  393		beql	$3, $19, .L1000315

                                   Tue Apr 07 08:54:23 2015           Page 9
                                   Tue Apr 07 08:54:22 2015       gh_2i05v.s
        26b50001 000004e0  394		addiu	$21, $21, 1
        08000000 000004e4  395		j	.L1000344
        00737823 000004e8  396		subu	$15, $3, $19
                           397	.L538:
        10600008 000004ec  398		beq	$3, $0, .L540
        2463ffff 000004f0  399		addiu	$3, $3, -1
        00036880 000004f4  400		sll	$13, $3, 2
        020dc821 000004f8  401		addu	$25, $16, $13
        87220002 000004fc  402		lh	$2, 2($25)
        5453000a 00000500  403		bnel	$2, $19, .L1000542
        00401825 00000504  404		move	$3, $2
        08000000 00000508  405		j	.L545
        00000000 0000050c  406		nop
                           407	.L540:
        03001825 00000510  408		move	$3, $24
        00036880 00000514  409		sll	$13, $3, 2
        020dc821 00000518  410		addu	$25, $16, $13
        87220002 0000051c  411		lh	$2, 2($25)
        10530006 00000520  412		beq	$2, $19, .L545
        00000000 00000524  413		nop
        00401825 00000528  414		move	$3, $2
                           415	.L1000542:
        507300ef 0000052c  416		beql	$3, $19, .L1000315
        26b50001 00000530  417		addiu	$21, $21, 1
        08000000 00000534  418		j	.L1000344
        00737823 00000538  419		subu	$15, $3, $19
                           420	.L545:
        10600008 0000053c  421		beq	$3, $0, .L547
        2463ffff 00000540  422		addiu	$3, $3, -1
        00036880 00000544  423		sll	$13, $3, 2
        020dc821 00000548  424		addu	$25, $16, $13
        87220002 0000054c  425		lh	$2, 2($25)
        5453000a 00000550  426		bnel	$2, $19, .L1000549
        00401825 00000554  427		move	$3, $2
        08000000 00000558  428		j	.L552
        00000000 0000055c  429		nop
                           430	.L547:
        03001825 00000560  431		move	$3, $24
        00036880 00000564  432		sll	$13, $3, 2
        020dc821 00000568  433		addu	$25, $16, $13
        87220002 0000056c  434		lh	$2, 2($25)
        10530006 00000570  435		beq	$2, $19, .L552
        00000000 00000574  436		nop
        00401825 00000578  437		move	$3, $2
                           438	.L1000549:
        507300db 0000057c  439		beql	$3, $19, .L1000315
        26b50001 00000580  440		addiu	$21, $21, 1
        08000000 00000584  441		j	.L1000344
        00737823 00000588  442		subu	$15, $3, $19
                           443	.L552:
        10600008 0000058c  444		beq	$3, $0, .L554
        2463ffff 00000590  445		addiu	$3, $3, -1
        00036880 00000594  446		sll	$13, $3, 2
        020dc821 00000598  447		addu	$25, $16, $13
        87220002 0000059c  448		lh	$2, 2($25)
        5453000a 000005a0  449		bnel	$2, $19, .L1000556

                                   Tue Apr 07 08:54:23 2015           Page 10
                                   Tue Apr 07 08:54:22 2015       gh_2i05v.s
        00401825 000005a4  450		move	$3, $2
        08000000 000005a8  451		j	.L559
        00000000 000005ac  452		nop
                           453	.L554:
        03001825 000005b0  454		move	$3, $24
        00036880 000005b4  455		sll	$13, $3, 2
        020dc821 000005b8  456		addu	$25, $16, $13
        87220002 000005bc  457		lh	$2, 2($25)
        10530006 000005c0  458		beq	$2, $19, .L559
        00000000 000005c4  459		nop
        00401825 000005c8  460		move	$3, $2
                           461	.L1000556:
        507300c7 000005cc  462		beql	$3, $19, .L1000315
        26b50001 000005d0  463		addiu	$21, $21, 1
        08000000 000005d4  464		j	.L1000344
        00737823 000005d8  465		subu	$15, $3, $19
                           466	.L559:
        10600008 000005dc  467		beq	$3, $0, .L561
        2463ffff 000005e0  468		addiu	$3, $3, -1
        00036880 000005e4  469		sll	$13, $3, 2
        020dc821 000005e8  470		addu	$25, $16, $13
        87220002 000005ec  471		lh	$2, 2($25)
        5453000a 000005f0  472		bnel	$2, $19, .L1000563
        00401825 000005f4  473		move	$3, $2
        08000000 000005f8  474		j	.L566
        00000000 000005fc  475		nop
                           476	.L561:
        03001825 00000600  477		move	$3, $24
        00036880 00000604  478		sll	$13, $3, 2
        020dc821 00000608  479		addu	$25, $16, $13
        87220002 0000060c  480		lh	$2, 2($25)
        10530006 00000610  481		beq	$2, $19, .L566
        00000000 00000614  482		nop
        00401825 00000618  483		move	$3, $2
                           484	.L1000563:
        507300b3 0000061c  485		beql	$3, $19, .L1000315
        26b50001 00000620  486		addiu	$21, $21, 1
        08000000 00000624  487		j	.L1000344
        00737823 00000628  488		subu	$15, $3, $19
                           489	.L566:
        10600008 0000062c  490		beq	$3, $0, .L568
        2463ffff 00000630  491		addiu	$3, $3, -1
        00036880 00000634  492		sll	$13, $3, 2
        020dc821 00000638  493		addu	$25, $16, $13
        87220002 0000063c  494		lh	$2, 2($25)
        5453000a 00000640  495		bnel	$2, $19, .L1000570
        00401825 00000644  496		move	$3, $2
        08000000 00000648  497		j	.L573
        00000000 0000064c  498		nop
                           499	.L568:
        03001825 00000650  500		move	$3, $24
        00036880 00000654  501		sll	$13, $3, 2
        020dc821 00000658  502		addu	$25, $16, $13
        87220002 0000065c  503		lh	$2, 2($25)
        10530006 00000660  504		beq	$2, $19, .L573
        00000000 00000664  505		nop

                                   Tue Apr 07 08:54:23 2015           Page 11
                                   Tue Apr 07 08:54:22 2015       gh_2i05v.s
        00401825 00000668  506		move	$3, $2
                           507	.L1000570:
        5073009f 0000066c  508		beql	$3, $19, .L1000315
        26b50001 00000670  509		addiu	$21, $21, 1
        08000000 00000674  510		j	.L1000344
        00737823 00000678  511		subu	$15, $3, $19
                           512	.L573:
        10600008 0000067c  513		beq	$3, $0, .L575
        2463ffff 00000680  514		addiu	$3, $3, -1
        00036880 00000684  515		sll	$13, $3, 2
        020dc821 00000688  516		addu	$25, $16, $13
        87220002 0000068c  517		lh	$2, 2($25)
        5453000a 00000690  518		bnel	$2, $19, .L1000577
        00401825 00000694  519		move	$3, $2
        08000000 00000698  520		j	.L1000579
        25ceffff 0000069c  521		addiu	$14, $14, -1
                           522	.L575:
        03001825 000006a0  523		move	$3, $24
        00036880 000006a4  524		sll	$13, $3, 2
        020dc821 000006a8  525		addu	$25, $16, $13
        87220002 000006ac  526		lh	$2, 2($25)
        50530006 000006b0  527		beql	$2, $19, .L1000579
        25ceffff 000006b4  528		addiu	$14, $14, -1
        00401825 000006b8  529		move	$3, $2
                           530	.L1000577:
        5073008b 000006bc  531		beql	$3, $19, .L1000315
        26b50001 000006c0  532		addiu	$21, $21, 1
        08000000 000006c4  533		j	.L1000344
        00737823 000006c8  534		subu	$15, $3, $19
                           535	.L1000579:
        15c0ff5f 000006cc  536		bne	$14, $0, .L524
        00000000 000006d0  537		nop
                           538	.L523:
        31ee0007 000006d4  539		andi	$14, $15, 7
        11c00017 000006d8  540		beq	$14, $0, .L341
        02e0c825 000006dc  541		move	$25, $23
                           542	.L582:
        10600008 000006e0  543		beq	$3, $0, .L584
        2463ffff 000006e4  544		addiu	$3, $3, -1
        0003c080 000006e8  545		sll	$24, $3, 2
        02187821 000006ec  546		addu	$15, $16, $24
        85e20002 000006f0  547		lh	$2, 2($15)
        5453000a 000006f4  548		bnel	$2, $19, .L1000586
        00401825 000006f8  549		move	$3, $2
        08000000 000006fc  550		j	.L1000588
        25ceffff 00000700  551		addiu	$14, $14, -1
                           552	.L584:
        03201825 00000704  553		move	$3, $25
        0003c080 00000708  554		sll	$24, $3, 2
        02187821 0000070c  555		addu	$15, $16, $24
        85e20002 00000710  556		lh	$2, 2($15)
        50530006 00000714  557		beql	$2, $19, .L1000588
        25ceffff 00000718  558		addiu	$14, $14, -1
        00401825 0000071c  559		move	$3, $2
                           560	.L1000586:
        50730072 00000720  561		beql	$3, $19, .L1000315

                                   Tue Apr 07 08:54:23 2015           Page 12
                                   Tue Apr 07 08:54:22 2015       gh_2i05v.s
        26b50001 00000724  562		addiu	$21, $21, 1
        08000000 00000728  563		j	.L1000344
        00737823 0000072c  564		subu	$15, $3, $19
                           565	.L1000588:
        15c0ffeb 00000730  566		bne	$14, $0, .L582
        00000000 00000734  567		nop
                           568	.L341:
        02601825 00000738  569		move	$3, $19
        1073006a 0000073c  570		beq	$3, $19, .L315
        00737823 00000740  571		subu	$15, $3, $19
                           572	.L1000344:
        01737023 00000744  573		subu	$14, $11, $19
        01ee6826 00000748  574		xor	$13, $15, $14
        05a0000b 0000074c  575		bltz	$13, .L349
        86840000 00000750  576		lh	$4, 0($20)
        00922021 00000754  577		addu	$4, $4, $18
        00803025 00000758  578		move	$6, $4
        0c000000 0000075c  579		jal	LCD_DrawHLine
        03c02825 00000760  580		move	$5, $fp
        26b50001 00000764  581		addiu	$21, $21, 1
        02b1c02a 00000768  582		slt	$24, $21, $17
        1700ff0b 0000076c  583		bne	$24, $0, .L316
        26940004 00000770  584		addiu	$20, $20, 4
        08000000 00000774  585		j	.L1000381
        8fac0030 00000778  586		lw	$12, 48($sp)
                           587	.L349:
        26940004 0000077c  588		addiu	$20, $20, 4
        0c000000 00000780  589		jal	_Add
        26b50001 00000784  590		addiu	$21, $21, 1
        02b1c02a 00000788  591		slt	$24, $21, $17
        5700ff04 0000078c  592		bnel	$24, $0, .L1000316
        02b7682a 00000790  593		slt	$13, $21, $23
        08000000 00000794  594		j	.L1000381
        8fac0030 00000798  595		lw	$12, 48($sp)
                           596	.L320:
        11730052 0000079c  597		beq	$11, $19, .L315
        0173782a 000007a0  598		slt	$15, $11, $19
        15e00002 000007a4  599		bne	$15, $0, .L356
        0263702a 000007a8  600		slt	$14, $19, $3
        11c00005 000007ac  601		beq	$14, $0, .L363
                           602	.L356:
        0073682a 000007b0  603		slt	$13, $3, $19
        15a0004c 000007b4  604		bne	$13, $0, .L315
        026bc82a 000007b8  605		slt	$25, $19, $11
        5720004b 000007bc  606		bnel	$25, $0, .L1000315
        26b50001 000007c0  607		addiu	$21, $21, 1
                           608	.L363:
        85390002 000007c4  609		lh	$25, 2($9)
        86820002 000007c8  610		lh	$2, 2($20)
        0322c02a 000007cc  611		slt	$24, $25, $2
        17000018 000007d0  612		bne	$24, $0, .L369
        00401825 000007d4  613		move	$3, $2
        0263782a 000007d8  614		slt	$15, $19, $3
        51e00005 000007dc  615		beql	$15, $0, .L1000366
        03201025 000007e0  616		move	$2, $25
        08000000 000007e4  617		j	.L1000315

                                   Tue Apr 07 08:54:23 2015           Page 13
                                   Tue Apr 07 08:54:22 2015       gh_2i05v.s
        26b50001 000007e8  618		addiu	$21, $21, 1
        08000000 000007ec  619		j	.L1000360
        8fa4002c 000007f0  620		lw	$4, 44($sp)
                           621	.L1000366:
        0053702a 000007f4  622		slt	$14, $2, $19
        51c00005 000007f8  623		beql	$14, $0, .L1000368
        868a0000 000007fc  624		lh	$10, 0($20)
        08000000 00000800  625		j	.L1000315
        26b50001 00000804  626		addiu	$21, $21, 1
        08000000 00000808  627		j	.L1000360
        8fa4002c 0000080c  628		lw	$4, 44($sp)
                           629	.L1000368:
        85390000 00000810  630		lh	$25, 0($9)
        02637823 00000814  631		subu	$15, $19, $3
        032ac023 00000818  632		subu	$24, $25, $10
        030f0018 0000081c  633		mult	$24, $15
        00005812 00000820  634		mflo	$11
        5d600019 00000824  635		bgtzl	$11, .L1000375
        00436823 00000828  636		subu	$13, $2, $3
        08000000 0000082c  637		j	.L1000376
        0043c023 00000830  638		subu	$24, $2, $3
                           639	.L369:
        03201825 00000834  640		move	$3, $25
        0263682a 00000838  641		slt	$13, $19, $3
        51a00005 0000083c  642		beql	$13, $0, .L1000371
        0053c82a 00000840  643		slt	$25, $2, $19
        08000000 00000844  644		j	.L1000315
        26b50001 00000848  645		addiu	$21, $21, 1
        08000000 0000084c  646		j	.L1000360
        8fa4002c 00000850  647		lw	$4, 44($sp)
                           648	.L1000371:
        53200005 00000854  649		beql	$25, $0, .L1000373
        852a0000 00000858  650		lh	$10, 0($9)
        08000000 0000085c  651		j	.L1000315
        26b50001 00000860  652		addiu	$21, $21, 1
        08000000 00000864  653		j	.L1000360
        8fa4002c 00000868  654		lw	$4, 44($sp)
                           655	.L1000373:
        86990000 0000086c  656		lh	$25, 0($20)
        02637823 00000870  657		subu	$15, $19, $3
        032ac023 00000874  658		subu	$24, $25, $10
        030f0018 00000878  659		mult	$24, $15
        00005812 0000087c  660		mflo	$11
        5960000c 00000880  661		blezl	$11, .L1000376
        0043c023 00000884  662		subu	$24, $2, $3
        00436823 00000888  663		subu	$13, $2, $3
                           664	.L1000375:
        000dc843 0000088c  665		sra	$25, $13, 1
        01795821 00000890  666		addu	$11, $11, $25
        55a00002 00000894  667		bnel	$13, $0, .L1403
        016d001a 00000898  668		div	$0,$11, $13
        0007000d 0000089c  669		break	7
                           670	.L1403:
        8fa1002c 000008a0  671		lw	$1, 44($sp)
        00006812 000008a4  672		mflo	$13
        014d5021 000008a8  673		addu	$10, $10, $13

                                   Tue Apr 07 08:54:23 2015           Page 14
                                   Tue Apr 07 08:54:22 2015       gh_2i05v.s
        08000000 000008ac  674		j	.L360
        ac2a0000 000008b0  675		sw	$10, 0($1)
                           676	.L1000376:
        0018c843 000008b4  677		sra	$25, $24, 1
        272fffff 000008b8  678		addiu	$15, $25, -1
        016f5823 000008bc  679		subu	$11, $11, $15
        57000002 000008c0  680		bnel	$24, $0, .L1404
        0178001a 000008c4  681		div	$0,$11, $24
        0007000d 000008c8  682		break	7
                           683	.L1404:
        8fa1002c 000008cc  684		lw	$1, 44($sp)
        00006812 000008d0  685		mflo	$13
        014d5021 000008d4  686		addu	$10, $10, $13
        ac2a0000 000008d8  687		sw	$10, 0($1)
                           688	.L360:
        8fa4002c 000008dc  689		lw	$4, 44($sp)
                           690	.L1000360:
        0c000000 000008e0  691		jal	_Add
        8c840000 000008e4  692		lw	$4, 0($4)
                           693	.L315:
        26b50001 000008e8  694		addiu	$21, $21, 1
                           695	.L1000315:
        02b1c02a 000008ec  696		slt	$24, $21, $17
        1700feaa 000008f0  697		bne	$24, $0, .L316
        26940004 000008f4  698		addiu	$20, $20, 4
                           699	.L381:
        8fac0030 000008f8  700		lw	$12, 48($sp)
                           701	.L1000381:
        34140000 000008fc  702		ori	$20, $0, 0
        8f8e0000 00000900  703		lw	$14, %sdaoff(GL_FP_Cnt)($28)
        afac003c 00000904  704		sw	$12, 60($sp)
        8fb70034 00000908  705		lw	$23, 52($sp)
        34150000 0000090c  706		ori	$21, $0, 0
        02ae682a 00000910  707		slt	$13, $21, $14
        11a00010 00000914  708		beq	$13, $0, .L307
        34030000 00000918  709		ori	$3, $0, 0
                           710	.L382:
        12800005 0000091c  711		beq	$20, $0, .L384
        86fe0000 00000920  712		lh	$fp, 0($23)
        02432021 00000924  713		addu	$4, $18, $3
        8fa5003c 00000928  714		lw	$5, 60($sp)
        0c000000 0000092c  715		jal	LCD_DrawHLine
        025e3021 00000930  716		addu	$6, $18, $fp
                           717	.L384:
        26f70002 00000934  718		addiu	$23, $23, 2
        3a940001 00000938  719		xori	$20, $20, 1
        0014a600 0000093c  720		sll	$20, $20, 24
        8f8e0000 00000940  721		lw	$14, %sdaoff(GL_FP_Cnt)($28)
        03c01825 00000944  722		move	$3, $fp
        26b50001 00000948  723		addiu	$21, $21, 1
        02ae682a 0000094c  724		slt	$13, $21, $14
        15a0fff2 00000950  725		bne	$13, $0, .L382
        0014a603 00000954  726		sra	$20, $20, 24
                           727	.L307:
        8fa10030 00000958  728		lw	$1, 48($sp)
        26730001 0000095c  729		addiu	$19, $19, 1

                                   Tue Apr 07 08:54:23 2015           Page 15
                                   Tue Apr 07 08:54:22 2015       gh_2i05v.s
        02d3c82a 00000960  730		slt	$25, $22, $19
        242c0001 00000964  731		addiu	$12, $1, 1
        1320fe83 00000968  732		beq	$25, $0, .L312
        afac0030 0000096c  733		sw	$12, 48($sp)
                           734	.L290:
        8fbe0020 00000970  735		lw	$fp, 32($sp)
                           736	 #	    .ef
        8fb7001c 00000974  737		lw	$23, 28($sp)
        8fbf0044 00000978  738		lw	$ra, 68($sp)
        8fb00000 0000097c  739		lw	$16, 0($sp)
        8fb10004 00000980  740		lw	$17, 4($sp)
        8fb20008 00000984  741		lw	$18, 8($sp)
        8fb3000c 00000988  742		lw	$19, 12($sp)
        8fb40010 0000098c  743		lw	$20, 16($sp)
        8fb50014 00000990  744		lw	$21, 20($sp)
        8fb60018 00000994  745		lw	$22, 24($sp)
        03e00008 00000998  746		jr	$ra
        27bd0048 0000099c  747		addiu	$sp, $sp, 72
                           748		.type	GL_FillPolygon,@function
                           749		.size	GL_FillPolygon,.-GL_FillPolygon
                           750		.align	4
                           751	 #i	$21	local
                           752	 #y	$19	local
                           753	 #yMin	$3	local
                           754	 #yMax	$22	local
                           755	 #y0	$3	local
                           756	 #y1	$11	local
                           757	 #x0	$3	local
                           758	 #x1	$6	local
                           759	 #yPrev	$3	local
                           760	 #i	$3	local
                           761	 #y1	$2	local
                           762	 #x	$4	local
                           763	 #xIntersect	40($sp)	local
                           764	 #x0	$10	local
                           765	 #y0	$3	local
                           766	 #x1	$25	local
                           767	 #y1	$2	local
                           768	 #Mul	$11	local
                           769	 #i	$21	local
                           770	 #x	$3	local
                           771	 #On	$20	local
                           772	 #xNew	$fp	local
                           773	
                           774	 #paPoint	$16	param
                           775	 #NumPoints	$17	param
                           776	 #xOff	$18	param
                           777	 #yOff	$7	param
                           778	
                           779		.data
                           780	.L1140:
                           781		.text
                           782		.align	4
                           783		.align	4
                           784		.globl	GUI_FillPolygon
                           785	GUI_FillPolygon:

                                   Tue Apr 07 08:54:23 2015           Page 16
                                   Tue Apr 07 08:54:22 2015       gh_2i05v.s
        27bdffe8 000009a0  786		addiu	$sp, $sp, -24
        afbf0014 000009a4  787		sw	$ra, 20($sp)
        afb3000c 000009a8  788		sw	$19, 12($sp)
        afb00000 000009ac  789		sw	$16, 0($sp)
        00808025 000009b0  790		move	$16, $4
        afb10004 000009b4  791		sw	$17, 4($sp)
        00a08825 000009b8  792		move	$17, $5
        afb20008 000009bc  793		sw	$18, 8($sp)
        00c09025 000009c0  794		move	$18, $6
                           795	 #	    .bf
        0c000000 000009c4  796		jal	GUI_Lock
        00e09825 000009c8  797		move	$19, $7
        3c030000 000009cc  798		lui	$3, %hi(GUI_Context)
        24630000 000009d0  799		addiu	$3, $3, %lo(GUI_Context)
        8c790044 000009d4  800		lw	$25, 68($3)
        8c780048 000009d8  801		lw	$24, 72($3)
        34040000 000009dc  802		ori	$4, $0, 0
        02599021 000009e0  803		addu	$18, $18, $25
        0c000000 000009e4  804		jal	WM__InitIVRSearch
        02789821 000009e8  805		addu	$19, $19, $24
        1040000a 000009ec  806		beq	$2, $0, .L1433
        00000000 000009f0  807		nop
        02002025 000009f4  808		move	$4, $16
                           809	.L1001437:
        02202825 000009f8  810		move	$5, $17
        02403025 000009fc  811		move	$6, $18
        0c000000 00000a00  812		jal	GL_FillPolygon
        02603825 00000a04  813		move	$7, $19
        0c000000 00000a08  814		jal	WM__GetNextIVR
        00000000 00000a0c  815		nop
        5440fff9 00000a10  816		bnel	$2, $0, .L1001437
        02002025 00000a14  817		move	$4, $16
                           818	.L1433:
        0c000000 00000a18  819		jal	GUI_Unlock
        00000000 00000a1c  820		nop
                           821	 #	    .ef
        8fb10004 00000a20  822		lw	$17, 4($sp)
        8fb00000 00000a24  823		lw	$16, 0($sp)
        8fbf0014 00000a28  824		lw	$ra, 20($sp)
        8fb20008 00000a2c  825		lw	$18, 8($sp)
        8fb3000c 00000a30  826		lw	$19, 12($sp)
        03e00008 00000a34  827		jr	$ra
        27bd0018 00000a38  828		addiu	$sp, $sp, 24
                           829		.type	GUI_FillPolygon,@function
                           830		.size	GUI_FillPolygon,.-GUI_FillPolygon
                           831		.align	4
                           832	
                           833	 #pPoints	$16	param
                           834	 #NumPoints	$17	param
                           835	 #x0	$18	param
                           836	 #y0	$19	param
                           837	
                           838		.data
                           839	.L1468:
                           840		.text
                           841		.align	4

                                   Tue Apr 07 08:54:23 2015           Page 17
                                   Tue Apr 07 08:54:22 2015       gh_2i05v.s
                           842	 #GUI_Context	GUI_Context	import
                           843	 #GL_FP_Cnt	%sdaoff(GL_FP_Cnt)	static
                           844	 #_aX	_aX	static
                           845	
                           846		.data
                           847		.section ".bss","awb"
                           848		.align	4
                           849		.section ".sbss","awb"
                           850		.align	4
                           851		.text
