
                                   Tue Apr 07 08:55:06 2015           Page 1
                                   Tue Apr 07 08:55:06 2015       gh_2i06r.s
Command Line:   C:\GHS\V35\mips35\asmips.exe -noundefined -elf -b0
                -IC:\local\Workspace\DC_V04.01.00_int\cu3x1Platform_SRC\emWinColour
                -IC:\local\Workspace\DC_V04.01.00_int\cu3x1Platform_SRC\platform\include
                -IC:\local\Workspace\DC_V04.01.00_int\cu3x1Platform_SRC\platform\common
                -IC:\local\Workspace\DC_V04.01.00_int\cu3x1Platform_SRC\platform\hardware
                -IC:\local\Workspace\DC_V04.01.00_int\cu3x1Platform_SRC\platform\hardware\D3018X
                -IC:\local\Workspace\DC_V04.01.00_int\cu3x1Platform_SRC\embos\inc
                -IC:\local\Workspace\DC_V04.01.00_int\cu3x1Platform_SRC\emWinColour\config
                -IC:\local\Workspace\DC_V04.01.00_int\cu3x1Platform_SRC\emWinColour\gui\ConvertMono
                -IC:\local\Workspace\DC_V04.01.00_int\cu3x1Platform_SRC\emWinColour\gui\Core
                -IC:\local\Workspace\DC_V04.01.00_int\cu3x1Platform_SRC\emWinColour\gui\Font
                -IC:\local\Workspace\DC_V04.01.00_int\cu3x1Platform_SRC\emWinColour\gui\LCDDriver
                -IC:\local\Workspace\DC_V04.01.00_int\cu3x1Platform_SRC\emWinColour\gui\MemDev
                -IC:\local\Workspace\DC_V04.01.00_int\cu3x1Platform_SRC\emWinColour\gui\VNC
                -IC:\local\Workspace\DC_V04.01.00_int\cu3x1Platform_SRC\emWinColour\gui\Widget
                -IC:\local\Workspace\DC_V04.01.00_int\cu3x1Platform_SRC\emWinColour\gui\wm
                -IC:\local\Workspace\DC_V04.01.00_int\cu3x1App_SRC\Control\source
                -IC:\local\Workspace\DC_V04.01.00_int\cu3x1App_SRC\Control\source\include
                -IC:\local\Workspace\DC_V04.01.00_int\cu3x1App_SRC\Control\source\util
                -IC:\local\Workspace\DC_V04.01.00_int\cu3x1App_SRC\Control\source\datapoint
                -IC:\local\Workspace\DC_V04.01.00_int\cu3x1App_SRC\Control\source\factory
                -IC:\local\Workspace\DC_V04.01.00_int\cu3x1Platform_SRC\embos
                -IC:\local\Workspace\DC_V04.01.00_int\cu3x1Platform_SRC\emWinColour\gui\core
                -IC:\local\Workspace\DC_V04.01.00_int\cu3x1App_SRC\Control\source\rtip\webpage
                -IC:\local\Workspace\DC_V04.01.00_int\cu3x1App_SRC\Control\source\rtip\config
                -IC:\local\Workspace\DC_V04.01.00_int\cu3x1App_SRC\Control\source\rtip\xnet
                -IC:\local\Workspace\DC_V04.01.00_int\cu3x1App_SRC\Control\source\stub
                -IC:\local\Workspace\DC_V04.01.00_int\cu3x1App_SRC\Control\source\test
                -IC:\local\Workspace\DC_V04.01.00_int\cu3x1App_SRC\Control\source\GENIpro
                -IC:\local\Workspace\DC_V04.01.00_int\cu3x1App_SRC\Control\source\GENIpro\GENI_sys
                -IC:\local\Workspace\DC_V04.01.00_int\cu3x1App_SRC\Control\source\GENIpro\GENIusb\emUSB\USB\Driver
                -IC:\local\Workspace\DC_V04.01.00_int\cu3x1App_SRC\Control\source\application\intercom
                -IC:\local\Workspace\DC_V04.01.00_int\cu3x1App_SRC\Control\source\application\controller
                -IC:\local\Workspace\DC_V04.01.00_int\cu3x1App_SRC\Control\source\application\driver
                -IC:\local\Workspace\DC_V04.01.00_int\cu3x1App_SRC\Control\source\application\webif
                -IC:\local\Workspace\DC_V04.01.00_int\cu3x1App_SRC\Control\source\application\relay
                -IC:\local\Workspace\DC_V04.01.00_int\cu3x1App_SRC\Control\source\application\GENIApp
                -IC:\local\Workspace\DC_V04.01.00_int\cu3x1App_SRC\Control\source\application\alarm
                -IC:\local\Workspace\DC_V04.01.00_int\cu3x1App_SRC\Control\source\application\config
                -IC:\local\Workspace\DC_V04.01.00_int\cu3x1App_SRC\Control\source\application\AnaInConfigCtrl
                -IC:\local\Workspace\DC_V04.01.00_int\cu3x1App_SRC\Control\source\application\Sms
                -IC:\local\Workspace\DC_V04.01.00_int\cu3x1App_SRC\Control\source\application\display
                -IC:\local\Workspace\DC_V04.01.00_int\cu3x1App_SRC\Control\source\application\display\display_task
                -IC:\local\Workspace\DC_V04.01.00_int\cu3x1App_SRC\Control\source\application\display\gui_utility
                -IC:\local\Workspace\DC_V04.01.00_int\cu3x1App_SRC\Control\source\application\display\mpcunit
                -IC:\local\Workspace\DC_V04.01.00_int\cu3x1App_SRC\Control\source\GeniPro
                -IC:\local\Workspace\DC_V04.01.00_int\cu3x1App_SRC\Control\source\GeniPro\GENI_sys
                -IC:\local\Workspace\DC_V04.01.00_int\cu3x1App_SRC\Control\source\GeniPro\GENIbus
                -IC:\local\Workspace\DC_V04.01.00_int\cu3x1App_SRC\Control\source\GeniPro\GENIcom
                -IC:\local\Workspace\DC_V04.01.00_int\cu3x1App_SRC\Control\source\GeniPro\GENIrs232
                -IC:\local\Workspace\DC_V04.01.00_int\cu3x1App_SRC\Control\source\GeniPro\Virtual
                -IC:\local\Workspace\DC_V04.01.00_int\cu3x1Platform_SRC\Platform\common
                -IC:\local\Workspace\DC_V04.01.00_int\cu3x1Platform_SRC\Platform\hardware
                -IC:\local\Workspace\DC_V04.01.00_int\cu3x1Platform_SRC\Platform\hardware\D3018X
                -IC:\local\Workspace\DC_V04.01.00_int\cu3x1App_SRC\Control\source\application\display\imagesTFT
                -IC:\GHS\V35\mips35\mipsl_sf -r4121 -source=GUI_MOUSE_DriverPS2.c
                -o objs\gh_2i06r.o -list=objs\GUI_MOUSE_DriverPS2.lst
                C:\Users\55602\AppData\Local\Temp\gh_2i06r.s
Source File:    C:\Users\55602\AppData\Local\Temp\gh_2i06r.s
Directory:      C:\local\Workspace\DC_V04.01.00_int\cu3x1App_SRC\Control\source
Host OS:        GHS_WIN32
Version:        AS-MIPS 3.5#11 
Release:        MULTI 2000, MIPS v3.5
Revision Date:  Wed Feb 27 12:19:03 2002
Release Date:   Sat Mar 02 02:57:59 2002
                             1	 #Source File:   C:\local\Workspace\DC_V04.01.00_int\cu3x1Platform_SRC\emWinColour\GUI\Core\GUI_MOUSE_DriverPS2.c

                                   Tue Apr 07 08:55:06 2015           Page 2
                                   Tue Apr 07 08:55:06 2015       gh_2i06r.s
                             2	 #Directory:     
                             3	 #		C:\local\Workspace\DC_V04.01.00_int\cu3x1App_SRC\Control\source
                             4	 #Compile Date:  Tue Apr 07 08:55:06 2015
                             5	 #Host OS:       Win32
                             6	 #Version:       C-MIPS 3.5#11 RELEASE VERSION
                             7	 #Release:       MULTI 2000, MIPS v3.5
                             8	 #Revision Date: Fri Mar 01 11:32:40 2002
                             9	 #Release Date:  Sat Mar 02 02:58:48 2002
                            10		.set	noat
                            11		.set	noreorder
                            12		.set	nomacro
                            13		.text
                            14		.align	4
                            15		.globl	GUI_MOUSE_DRIVER_PS2_OnRx
                            16	GUI_MOUSE_DRIVER_PS2_OnRx:
        8f830000 00000000   17		lw	$3, %sdaoff(.L134)($28)
                            18	 #	    .bf
        308400ff 00000004   19		andi	$4, $4, 255
        27bdffe8 00000008   20		addiu	$sp, $sp, -24
        1460000b 0000000c   21		bne	$3, $0, .L41
        afbf0014 00000010   22		sw	$ra, 20($sp)
        3098000c 00000014   23		andi	$24, $4, 12
        340f0008 00000018   24		ori	$15, $0, 8
        570f005c 0000001c   25		bnel	$24, $15, .L1000039
        8fbf0014 00000020   26		lw	$ra, 20($sp)
        27bd0018 00000024   27		addiu	$sp, $sp, 24
        00607025 00000028   28		move	$14, $3
        25ce0001 0000002c   29		addiu	$14, $14, 1
        af8e0000 00000030   30		sw	$14, %sdaoff(.L134)($28)
        03e00008 00000034   31		jr	$ra
        a3840000 00000038   32		sb	$4, %sdaoff(_abInBuffer)($28)
                            33	.L41:
        24790001 0000003c   34		addiu	$25, $3, 1
        af990000 00000040   35		sw	$25, %sdaoff(.L134)($28)
        03836821 00000044   36		addu	$13, $28, $3
        a1a40000 00000048   37		sb	$4, %sdaoff(_abInBuffer)($13)
        2b380003 0000004c   38		slti	$24, $25, 3
        1700004e 00000050   39		bne	$24, $0, .L39
        27820000 00000054   40		addiu	$2, $28, %sdaoff(_abInBuffer)
        904d0000 00000058   41		lbu	$13, 0($2)
        80430001 0000005c   42		lb	$3, 1($2)
        31ae0010 00000060   43		andi	$14, $13, 16
        31af0003 00000064   44		andi	$15, $13, 3
        11c0000c 00000068   45		beq	$14, $0, .L52
        a38f0000 0000006c   46		sb	$15, %sdaoff(.L135)($28)
        00031823 00000070   47		subu	$3, $0, $3
        8f990000 00000074   48		lw	$25, %sdaoff(.L132)($28)
        00031e00 00000078   49		sll	$3, $3, 24
        00031e03 0000007c   50		sra	$3, $3, 24
        0323c823 00000080   51		subu	$25, $25, $3
        80430002 00000084   52		lb	$3, 2($2)
        31af0020 00000088   53		andi	$15, $13, 32
        15e00009 0000008c   54		bne	$15, $0, .L54
        af990000 00000090   55		sw	$25, %sdaoff(.L132)($28)
        08000000 00000094   56		j	.L1000055
        8f990000 00000098   57		lw	$25, %sdaoff(.L133)($28)

                                   Tue Apr 07 08:55:06 2015           Page 3
                                   Tue Apr 07 08:55:06 2015       gh_2i06r.s
                            58	.L52:
        8f980000 0000009c   59		lw	$24, %sdaoff(.L132)($28)
        31af0020 000000a0   60		andi	$15, $13, 32
        0303c021 000000a4   61		addu	$24, $24, $3
        80430002 000000a8   62		lb	$3, 2($2)
        11e0000c 000000ac   63		beq	$15, $0, .L55
        af980000 000000b0   64		sw	$24, %sdaoff(.L132)($28)
                            65	.L54:
        00031823 000000b4   66		subu	$3, $0, $3
        8f8d0000 000000b8   67		lw	$13, %sdaoff(.L133)($28)
        00031e00 000000bc   68		sll	$3, $3, 24
        00031e03 000000c0   69		sra	$3, $3, 24
        01a36821 000000c4   70		addu	$13, $13, $3
        8f830000 000000c8   71		lw	$3, %sdaoff(.L132)($28)
        af8d0000 000000cc   72		sw	$13, %sdaoff(.L133)($28)
        0462000a 000000d0   73		bltzl	$3, .L1000057
        8f830000 000000d4   74		lw	$3, %sdaoff(.L133)($28)
        08000000 000000d8   75		j	.L1000058
        286f00f0 000000dc   76		slti	$15, $3, 240
                            77	.L55:
        8f990000 000000e0   78		lw	$25, %sdaoff(.L133)($28)
                            79	.L1000055:
        0323c823 000000e4   80		subu	$25, $25, $3
        8f830000 000000e8   81		lw	$3, %sdaoff(.L132)($28)
        af990000 000000ec   82		sw	$25, %sdaoff(.L133)($28)
        04630007 000000f0   83		bgezl	$3, .L1000058
        286f00f0 000000f4   84		slti	$15, $3, 240
        8f830000 000000f8   85		lw	$3, %sdaoff(.L133)($28)
                            86	.L1000057:
        af800000 000000fc   87		sw	$0, %sdaoff(.L132)($28)
        0462000a 00000100   88		bltzl	$3, .L1000061
        8f8f0000 00000104   89		lw	$15, %sdaoff(.L132)($28)
        08000000 00000108   90		j	.L1000062
        28790140 0000010c   91		slti	$25, $3, 320
                            92	.L1000058:
        15e00002 00000110   93		bne	$15, $0, .L60
        340e00ef 00000114   94		ori	$14, $0, 239
        af8e0000 00000118   95		sw	$14, %sdaoff(.L132)($28)
                            96	.L60:
        8f830000 0000011c   97		lw	$3, %sdaoff(.L133)($28)
        0463000d 00000120   98		bgezl	$3, .L1000062
        28790140 00000124   99		slti	$25, $3, 320
        8f8f0000 00000128  100		lw	$15, %sdaoff(.L132)($28)
                           101	.L1000061:
        af800000 0000012c  102		sw	$0, %sdaoff(.L133)($28)
        27a40004 00000130  103		addiu	$4, $sp, 4
        afaf0004 00000134  104		sw	$15, 4($sp)
        938d0000 00000138  105		lbu	$13, %sdaoff(.L135)($28)
        afa00008 0000013c  106		sw	$0, 8($sp)
        0c000000 00000140  107		jal	GUI_MOUSE_StoreState
        a3ad000c 00000144  108		sb	$13, 12($sp)
        8fbf0014 00000148  109		lw	$ra, 20($sp)
        27bd0018 0000014c  110		addiu	$sp, $sp, 24
        03e00008 00000150  111		jr	$ra
        af800000 00000154  112		sw	$0, %sdaoff(.L134)($28)
                           113	.L1000062:

                                   Tue Apr 07 08:55:06 2015           Page 4
                                   Tue Apr 07 08:55:06 2015       gh_2i06r.s
        57200004 00000158  114		bnel	$25, $0, .L1000064
        8f8f0000 0000015c  115		lw	$15, %sdaoff(.L132)($28)
        3418013f 00000160  116		ori	$24, $0, 319
        af980000 00000164  117		sw	$24, %sdaoff(.L133)($28)
        8f8f0000 00000168  118		lw	$15, %sdaoff(.L132)($28)
                           119	.L1000064:
        27a40004 0000016c  120		addiu	$4, $sp, 4
        8f8e0000 00000170  121		lw	$14, %sdaoff(.L133)($28)
        afaf0004 00000174  122		sw	$15, 4($sp)
        938d0000 00000178  123		lbu	$13, %sdaoff(.L135)($28)
        afae0008 0000017c  124		sw	$14, 8($sp)
        0c000000 00000180  125		jal	GUI_MOUSE_StoreState
        a3ad000c 00000184  126		sb	$13, 12($sp)
        af800000 00000188  127		sw	$0, %sdaoff(.L134)($28)
                           128	.L39:
        8fbf0014 0000018c  129		lw	$ra, 20($sp)
                           130	.L1000039:
                           131	 #	    .ef
        03e00008 00000190  132		jr	$ra
        27bd0018 00000194  133		addiu	$sp, $sp, 24
                           134		.type	GUI_MOUSE_DRIVER_PS2_OnRx,@function
                           135		.size	GUI_MOUSE_DRIVER_PS2_OnRx,.-GUI_MOUSE_DRIVER_PS2_OnRx
                           136		.align	4
                           137	 #a	$3	local
                           138	 #State	4($sp)	local
                           139	
                           140	 #Data	$4	param
                           141	
                           142		.data
                           143	.L131:
                           144		.section ".sdata","aw"
                           145	.L132:
        00000000 00000000  146	_ScreenX:	.byte	0,0,0,0
                           147		.type	_ScreenX,@object
                           148		.size	_ScreenX,4
                           149	.L133:
        00000000 00000004  150	_ScreenY:	.byte	0,0,0,0
                           151		.type	_ScreenY,@object
                           152		.size	_ScreenY,4
                           153	.L134:
        00000000 00000008  154	_NumBytesInBuffer:	.byte	0,0,0,0
                           155		.type	_NumBytesInBuffer,@object
                           156		.size	_NumBytesInBuffer,4
                           157	.L135:
                           158	_Buttons:	.type	_Buttons,@object
                           159		.size	_Buttons,1
              00 0000000c  160		.byte	0
                           161		.data
                           162		.lsbss	_abInBuffer,3,1
                           163	
                           164		.text
                           165		.align	4
                           166		.align	4
                           167		.globl	GUI_MOUSE_DRIVER_PS2_Init
                           168	GUI_MOUSE_DRIVER_PS2_Init:
                           169	 #	    .bf

                                   Tue Apr 07 08:55:06 2015           Page 5
                                   Tue Apr 07 08:55:06 2015       gh_2i06r.s
                           170	 #	    .ef
        03e00008 00000198  171		jr	$ra
        af800000 0000019c  172		sw	$0, %sdaoff(.L134)($28)
                           173		.type	GUI_MOUSE_DRIVER_PS2_Init,@function
                           174		.size	GUI_MOUSE_DRIVER_PS2_Init,.-GUI_MOUSE_DRIVER_PS2_Init
                           175		.align	4
                           176	
                           177		.data
                           178	.L195:
                           179		.text
                           180		.align	4
                           181	 #_ScreenX	%sdaoff(.L132)	static
                           182	 #_ScreenY	%sdaoff(.L133)	static
                           183	 #_NumBytesInBuffer	%sdaoff(.L134)	static
                           184	 #_Buttons	%sdaoff(.L135)	static
                           185	 #_abInBuffer	%sdaoff(_abInBuffer)	static
                           186	
                           187		.data
                           188		.section ".sdata","aw"
          000000 0000000d  189		.align	4
                           190		.text
