
                                   Tue Apr 07 08:53:03 2015           Page 1
                                   Tue Apr 07 08:53:03 2015       gh_2i045.s
Command Line:   C:\GHS\V35\mips35\asmips.exe -noundefined -elf -b0
                -IC:\local\Workspace\DC_V04.01.00_int\cu3x1Platform_SRC\emWinColour
                -IC:\local\Workspace\DC_V04.01.00_int\cu3x1Platform_SRC\platform\include
                -IC:\local\Workspace\DC_V04.01.00_int\cu3x1Platform_SRC\platform\common
                -IC:\local\Workspace\DC_V04.01.00_int\cu3x1Platform_SRC\platform\hardware
                -IC:\local\Workspace\DC_V04.01.00_int\cu3x1Platform_SRC\platform\hardware\D3018X
                -IC:\local\Workspace\DC_V04.01.00_int\cu3x1Platform_SRC\embos\inc
                -IC:\local\Workspace\DC_V04.01.00_int\cu3x1Platform_SRC\emWinColour\config
                -IC:\local\Workspace\DC_V04.01.00_int\cu3x1Platform_SRC\emWinColour\gui\ConvertMono
                -IC:\local\Workspace\DC_V04.01.00_int\cu3x1Platform_SRC\emWinColour\gui\Core
                -IC:\local\Workspace\DC_V04.01.00_int\cu3x1Platform_SRC\emWinColour\gui\Font
                -IC:\local\Workspace\DC_V04.01.00_int\cu3x1Platform_SRC\emWinColour\gui\LCDDriver
                -IC:\local\Workspace\DC_V04.01.00_int\cu3x1Platform_SRC\emWinColour\gui\MemDev
                -IC:\local\Workspace\DC_V04.01.00_int\cu3x1Platform_SRC\emWinColour\gui\VNC
                -IC:\local\Workspace\DC_V04.01.00_int\cu3x1Platform_SRC\emWinColour\gui\Widget
                -IC:\local\Workspace\DC_V04.01.00_int\cu3x1Platform_SRC\emWinColour\gui\wm
                -IC:\local\Workspace\DC_V04.01.00_int\cu3x1App_SRC\Control\source
                -IC:\local\Workspace\DC_V04.01.00_int\cu3x1App_SRC\Control\source\include
                -IC:\local\Workspace\DC_V04.01.00_int\cu3x1App_SRC\Control\source\util
                -IC:\local\Workspace\DC_V04.01.00_int\cu3x1App_SRC\Control\source\datapoint
                -IC:\local\Workspace\DC_V04.01.00_int\cu3x1App_SRC\Control\source\factory
                -IC:\local\Workspace\DC_V04.01.00_int\cu3x1Platform_SRC\embos
                -IC:\local\Workspace\DC_V04.01.00_int\cu3x1Platform_SRC\emWinColour\gui\core
                -IC:\local\Workspace\DC_V04.01.00_int\cu3x1App_SRC\Control\source\rtip\webpage
                -IC:\local\Workspace\DC_V04.01.00_int\cu3x1App_SRC\Control\source\rtip\config
                -IC:\local\Workspace\DC_V04.01.00_int\cu3x1App_SRC\Control\source\rtip\xnet
                -IC:\local\Workspace\DC_V04.01.00_int\cu3x1App_SRC\Control\source\stub
                -IC:\local\Workspace\DC_V04.01.00_int\cu3x1App_SRC\Control\source\test
                -IC:\local\Workspace\DC_V04.01.00_int\cu3x1App_SRC\Control\source\GENIpro
                -IC:\local\Workspace\DC_V04.01.00_int\cu3x1App_SRC\Control\source\GENIpro\GENI_sys
                -IC:\local\Workspace\DC_V04.01.00_int\cu3x1App_SRC\Control\source\GENIpro\GENIusb\emUSB\USB\Driver
                -IC:\local\Workspace\DC_V04.01.00_int\cu3x1App_SRC\Control\source\application\intercom
                -IC:\local\Workspace\DC_V04.01.00_int\cu3x1App_SRC\Control\source\application\controller
                -IC:\local\Workspace\DC_V04.01.00_int\cu3x1App_SRC\Control\source\application\driver
                -IC:\local\Workspace\DC_V04.01.00_int\cu3x1App_SRC\Control\source\application\webif
                -IC:\local\Workspace\DC_V04.01.00_int\cu3x1App_SRC\Control\source\application\relay
                -IC:\local\Workspace\DC_V04.01.00_int\cu3x1App_SRC\Control\source\application\GENIApp
                -IC:\local\Workspace\DC_V04.01.00_int\cu3x1App_SRC\Control\source\application\alarm
                -IC:\local\Workspace\DC_V04.01.00_int\cu3x1App_SRC\Control\source\application\config
                -IC:\local\Workspace\DC_V04.01.00_int\cu3x1App_SRC\Control\source\application\AnaInConfigCtrl
                -IC:\local\Workspace\DC_V04.01.00_int\cu3x1App_SRC\Control\source\application\Sms
                -IC:\local\Workspace\DC_V04.01.00_int\cu3x1App_SRC\Control\source\application\display
                -IC:\local\Workspace\DC_V04.01.00_int\cu3x1App_SRC\Control\source\application\display\display_task
                -IC:\local\Workspace\DC_V04.01.00_int\cu3x1App_SRC\Control\source\application\display\gui_utility
                -IC:\local\Workspace\DC_V04.01.00_int\cu3x1App_SRC\Control\source\application\display\mpcunit
                -IC:\local\Workspace\DC_V04.01.00_int\cu3x1App_SRC\Control\source\GeniPro
                -IC:\local\Workspace\DC_V04.01.00_int\cu3x1App_SRC\Control\source\GeniPro\GENI_sys
                -IC:\local\Workspace\DC_V04.01.00_int\cu3x1App_SRC\Control\source\GeniPro\GENIbus
                -IC:\local\Workspace\DC_V04.01.00_int\cu3x1App_SRC\Control\source\GeniPro\GENIcom
                -IC:\local\Workspace\DC_V04.01.00_int\cu3x1App_SRC\Control\source\GeniPro\GENIrs232
                -IC:\local\Workspace\DC_V04.01.00_int\cu3x1App_SRC\Control\source\GeniPro\Virtual
                -IC:\local\Workspace\DC_V04.01.00_int\cu3x1Platform_SRC\Platform\common
                -IC:\local\Workspace\DC_V04.01.00_int\cu3x1Platform_SRC\Platform\hardware
                -IC:\local\Workspace\DC_V04.01.00_int\cu3x1Platform_SRC\Platform\hardware\D3018X
                -IC:\local\Workspace\DC_V04.01.00_int\cu3x1App_SRC\Control\source\application\display\imagesTFT
                -IC:\GHS\V35\mips35\mipsl_sf -r4121 -source=GUI_BMP.c -o
                objs\gh_2i045.o -list=objs\GUI_BMP.lst
                C:\Users\55602\AppData\Local\Temp\gh_2i045.s
Source File:    C:\Users\55602\AppData\Local\Temp\gh_2i045.s
Directory:      C:\local\Workspace\DC_V04.01.00_int\cu3x1App_SRC\Control\source
Host OS:        GHS_WIN32
Version:        AS-MIPS 3.5#11 
Release:        MULTI 2000, MIPS v3.5
Revision Date:  Wed Feb 27 12:19:03 2002
Release Date:   Sat Mar 02 02:57:59 2002
                             1	 #Source File:   C:\local\Workspace\DC_V04.01.00_int\cu3x1Platform_SRC\emWinColour\GUI\Core\GUI_BMP.c

                                   Tue Apr 07 08:53:03 2015           Page 2
                                   Tue Apr 07 08:53:03 2015       gh_2i045.s
                             2	 #Directory:     
                             3	 #		C:\local\Workspace\DC_V04.01.00_int\cu3x1App_SRC\Control\source
                             4	 #Compile Date:  Tue Apr 07 08:53:02 2015
                             5	 #Host OS:       Win32
                             6	 #Version:       C-MIPS 3.5#11 RELEASE VERSION
                             7	 #Release:       MULTI 2000, MIPS v3.5
                             8	 #Revision Date: Fri Mar 01 11:32:40 2002
                             9	 #Release Date:  Sat Mar 02 02:58:48 2002
                            10		.set	noat
                            11		.set	noreorder
                            12		.set	nomacro
                            13		.text
                            14		.align	4
                            15	_GetStep:
        8c830000 00000000   16		lw	$3, 0($4)
                            17	 #	    .bf
        18600004 00000004   18		blez	$3, .L68
        2402ffff 00000008   19		addiu	$2, $0, -1
        2478ffff 0000000c   20		addiu	$24, $3, -1
        03e00008 00000010   21		jr	$ra
        acb80000 00000014   22		sw	$24, 0($5)
                            23	.L68:
        04610005 00000018   24		bgez	$3, .L72
        34020001 0000001c   25		ori	$2, $0, 1
        00037023 00000020   26		subu	$14, $0, $3
        ac8e0000 00000024   27		sw	$14, 0($4)
        03e00008 00000028   28		jr	$ra
        aca00000 0000002c   29		sw	$0, 0($5)
                            30	.L72:
                            31	 #	    .ef
        03e00008 00000030   32		jr	$ra
        34020000 00000034   33		ori	$2, $0, 0
                            34		.type	_GetStep,@function
                            35		.size	_GetStep,.-_GetStep
                            36		.align	4
                            37	
                            38	 #pYSize	$4	param
                            39	 #pY	$5	param
                            40	
                            41		.data
                            42	.L99:
                            43		.text
                            44		.align	4
                            45		.align	4
                            46		.globl	GUI_BMP_GetXSize
                            47	GUI_BMP_GetXSize:
        27bdfff0 00000038   48		addiu	$sp, $sp, -16
                            49	 #	    .bf
        afa40004 0000003c   50		sw	$4, 4($sp)
        14800004 00000040   51		bne	$4, $0, .L114
        afbf000c 00000044   52		sw	$ra, 12($sp)
        27bd0010 00000048   53		addiu	$sp, $sp, 16
        03e00008 0000004c   54		jr	$ra
        34020000 00000050   55		ori	$2, $0, 0
                            56	.L114:
        24980012 00000054   57		addiu	$24, $4, 18

                                   Tue Apr 07 08:53:03 2015           Page 3
                                   Tue Apr 07 08:53:03 2015       gh_2i045.s
        afb80004 00000058   58		sw	$24, 4($sp)
        0c000000 0000005c   59		jal	GUI__Read32
        27a40004 00000060   60		addiu	$4, $sp, 4
                            61	 #	    .ef
        8fbf000c 00000064   62		lw	$ra, 12($sp)
        03e00008 00000068   63		jr	$ra
        27bd0010 0000006c   64		addiu	$sp, $sp, 16
                            65		.type	GUI_BMP_GetXSize,@function
                            66		.size	GUI_BMP_GetXSize,.-GUI_BMP_GetXSize
                            67		.align	4
                            68	 #pSrc	4($sp)	local
                            69	
                            70	 #pBMP	$4	param
                            71	
                            72		.data
                            73	.L134:
                            74		.text
                            75		.align	4
                            76		.align	4
                            77		.globl	GUI_BMP_GetYSize
                            78	GUI_BMP_GetYSize:
        27bdfff0 00000070   79		addiu	$sp, $sp, -16
                            80	 #	    .bf
        afa40004 00000074   81		sw	$4, 4($sp)
        afb00000 00000078   82		sw	$16, 0($sp)
        14800004 0000007c   83		bne	$4, $0, .L146
        afbf000c 00000080   84		sw	$ra, 12($sp)
        27bd0010 00000084   85		addiu	$sp, $sp, 16
        03e00008 00000088   86		jr	$ra
        34020000 0000008c   87		ori	$2, $0, 0
                            88	.L146:
        24980016 00000090   89		addiu	$24, $4, 22
        afb80004 00000094   90		sw	$24, 4($sp)
        27b00004 00000098   91		addiu	$16, $sp, 4
        0c000000 0000009c   92		jal	GUI__Read32
        02002025 000000a0   93		move	$4, $16
        04410008 000000a4   94		bgez	$2, .L149
        00000000 000000a8   95		nop
        0c000000 000000ac   96		jal	GUI__Read32
        02002025 000000b0   97		move	$4, $16
        8fb00000 000000b4   98		lw	$16, 0($sp)
        8fbf000c 000000b8   99		lw	$ra, 12($sp)
        27bd0010 000000bc  100		addiu	$sp, $sp, 16
        03e00008 000000c0  101		jr	$ra
        00021023 000000c4  102		subu	$2, $0, $2
                           103	.L149:
        0c000000 000000c8  104		jal	GUI__Read32
        02002025 000000cc  105		move	$4, $16
                           106	 #	    .ef
        8fbf000c 000000d0  107		lw	$ra, 12($sp)
        8fb00000 000000d4  108		lw	$16, 0($sp)
        03e00008 000000d8  109		jr	$ra
        27bd0010 000000dc  110		addiu	$sp, $sp, 16
                           111		.type	GUI_BMP_GetYSize,@function
                           112		.size	GUI_BMP_GetYSize,.-GUI_BMP_GetYSize
                           113		.align	4

                                   Tue Apr 07 08:53:03 2015           Page 4
                                   Tue Apr 07 08:53:03 2015       gh_2i045.s
                           114	 #pSrc	4($sp)	local
                           115	
                           116	 #pBMP	$4	param
                           117	
                           118		.data
                           119	.L178:
                           120		.text
                           121		.align	4
                           122		.align	4
                           123		.align	4
                           124		.globl	GUI_BMP_Draw
                           125	GUI_BMP_Draw:
        27bdff60 000000e0  126		addiu	$sp, $sp, -160
                           127	 #	    .bf
        afbf009c 000000e4  128		sw	$ra, 156($sp)
        afbe0028 000000e8  129		sw	$fp, 40($sp)
        afb70024 000000ec  130		sw	$23, 36($sp)
        afb60020 000000f0  131		sw	$22, 32($sp)
        afb5001c 000000f4  132		sw	$21, 28($sp)
        afb40018 000000f8  133		sw	$20, 24($sp)
        afb00008 000000fc  134		sw	$16, 8($sp)
        00a08025 00000100  135		move	$16, $5
        afb1000c 00000104  136		sw	$17, 12($sp)
        00c08825 00000108  137		move	$17, $6
        afb20010 0000010c  138		sw	$18, 16($sp)
        34120000 00000110  139		ori	$18, $0, 0
        afa40030 00000114  140		sw	$4, 48($sp)
        afb30014 00000118  141		sw	$19, 20($sp)
        27b30030 0000011c  142		addiu	$19, $sp, 48
        0c000000 00000120  143		jal	GUI__Read16
        02602025 00000124  144		move	$4, $19
        8fb90030 00000128  145		lw	$25, 48($sp)
        0040a025 0000012c  146		move	$20, $2
        02602025 00000130  147		move	$4, $19
        27390010 00000134  148		addiu	$25, $25, 16
        0c000000 00000138  149		jal	GUI__Read32
        afb90030 0000013c  150		sw	$25, 48($sp)
        afa2008c 00000140  151		sw	$2, 140($sp)
        0c000000 00000144  152		jal	GUI__Read32
        02602025 00000148  153		move	$4, $19
        8fb80030 0000014c  154		lw	$24, 48($sp)
        afa20064 00000150  155		sw	$2, 100($sp)
        02602025 00000154  156		move	$4, $19
        27180002 00000158  157		addiu	$24, $24, 2
        0c000000 0000015c  158		jal	GUI__Read16
        afb80030 00000160  159		sw	$24, 48($sp)
        a7a2006a 00000164  160		sh	$2, 106($sp)
        0c000000 00000168  161		jal	GUI__Read32
        02602025 0000016c  162		move	$4, $19
        8faf0030 00000170  163		lw	$15, 48($sp)
        0040a825 00000174  164		move	$21, $2
        02602025 00000178  165		move	$4, $19
        25ef000c 0000017c  166		addiu	$15, $15, 12
        0c000000 00000180  167		jal	GUI__Read32
        afaf0030 00000184  168		sw	$15, 48($sp)
        97a3006a 00000188  169		lhu	$3, 106($sp)

                                   Tue Apr 07 08:53:03 2015           Page 5
                                   Tue Apr 07 08:53:03 2015       gh_2i045.s
        8fae0030 0000018c  170		lw	$14, 48($sp)
        2c6d0004 00000190  171		sltiu	$13, $3, 4
        25ce0004 00000194  172		addiu	$14, $14, 4
        11a00008 00000198  173		beq	$13, $0, .L750
        afae0030 0000019c  174		sw	$14, 48($sp)
        2463ffff 000001a0  175		addiu	$3, $3, -1
        0462000f 000001a4  176		bltzl	$3, .L1000197
        8fbe0028 000001a8  177		lw	$fp, 40($sp)
        50600019 000001ac  178		beql	$3, $0, .L1000199
        340c0002 000001b0  179		ori	$12, $0, 2
        08000000 000001b4  180		j	.L1000203
        8fbe0028 000001b8  181		lw	$fp, 40($sp)
                           182	.L750:
        2463fffc 000001bc  183		addiu	$3, $3, -4
        10600018 000001c0  184		beq	$3, $0, .L200
        2463fffc 000001c4  185		addiu	$3, $3, -4
        1060001b 000001c8  186		beq	$3, $0, .L201
        2463fff0 000001cc  187		addiu	$3, $3, -16
        5060002c 000001d0  188		beql	$3, $0, .L205
        afa00058 000001d4  189		sw	$0, 88($sp)
        08000000 000001d8  190		j	.L1000203
        8fbe0028 000001dc  191		lw	$fp, 40($sp)
        8fbe0028 000001e0  192		lw	$fp, 40($sp)
                           193	.L1000197:
        8fb70024 000001e4  194		lw	$23, 36($sp)
        8fbf009c 000001e8  195		lw	$ra, 156($sp)
        8fb00008 000001ec  196		lw	$16, 8($sp)
        8fb1000c 000001f0  197		lw	$17, 12($sp)
        8fb20010 000001f4  198		lw	$18, 16($sp)
        8fb30014 000001f8  199		lw	$19, 20($sp)
        8fb40018 000001fc  200		lw	$20, 24($sp)
        8fb5001c 00000200  201		lw	$21, 28($sp)
        8fb60020 00000204  202		lw	$22, 32($sp)
        27bd00a0 00000208  203		addiu	$sp, $sp, 160
        03e00008 0000020c  204		jr	$ra
        34020001 00000210  205		ori	$2, $0, 1
                           206	.L1000199:
        1180001b 00000214  207		beq	$12, $0, .L205
        afac0058 00000218  208		sw	$12, 88($sp)
        08000000 0000021c  209		j	.L207
        00000000 00000220  210		nop
                           211	.L200:
        340c0010 00000224  212		ori	$12, $0, 16
        11800016 00000228  213		beq	$12, $0, .L205
        afac0058 0000022c  214		sw	$12, 88($sp)
        08000000 00000230  215		j	.L207
        00000000 00000234  216		nop
                           217	.L201:
        340c0100 00000238  218		ori	$12, $0, 256
        11800011 0000023c  219		beq	$12, $0, .L205
        afac0058 00000240  220		sw	$12, 88($sp)
        08000000 00000244  221		j	.L207
        00000000 00000248  222		nop
                           223	.L1000203:
        8fb70024 0000024c  224		lw	$23, 36($sp)
        8fbf009c 00000250  225		lw	$ra, 156($sp)

                                   Tue Apr 07 08:53:03 2015           Page 6
                                   Tue Apr 07 08:53:03 2015       gh_2i045.s
        8fb00008 00000254  226		lw	$16, 8($sp)
        8fb1000c 00000258  227		lw	$17, 12($sp)
        8fb20010 0000025c  228		lw	$18, 16($sp)
        8fb30014 00000260  229		lw	$19, 20($sp)
        8fb40018 00000264  230		lw	$20, 24($sp)
        8fb5001c 00000268  231		lw	$21, 28($sp)
        8fb60020 0000026c  232		lw	$22, 32($sp)
        27bd00a0 00000270  233		addiu	$sp, $sp, 160
        03e00008 00000274  234		jr	$ra
        34020001 00000278  235		ori	$2, $0, 1
                           236	.L207:
        54400001 0000027c  237		bnel	$2, $0, .L205
        afa20058 00000280  238		sw	$2, 88($sp)
                           239	.L205:
        8fa10058 00000284  240		lw	$1, 88($sp)
        28380101 00000288  241		slti	$24, $1, 257
        1300000d 0000028c  242		beq	$24, $0, .L209
        340f4d42 00000290  243		ori	$15, $0, 19778
        568f000c 00000294  244		bnel	$20, $15, .L1000209
        8fbe0028 00000298  245		lw	$fp, 40($sp)
        56a0000a 0000029c  246		bnel	$21, $0, .L1000209
        8fbe0028 000002a0  247		lw	$fp, 40($sp)
        8fa1008c 000002a4  248		lw	$1, 140($sp)
        282d0401 000002a8  249		slti	$13, $1, 1025
        51a00006 000002ac  250		beql	$13, $0, .L1000209
        8fbe0028 000002b0  251		lw	$fp, 40($sp)
        8fa10064 000002b4  252		lw	$1, 100($sp)
        28390401 000002b8  253		slti	$25, $1, 1025
        1720000e 000002bc  254		bne	$25, $0, .L208
        00000000 000002c0  255		nop
                           256	.L209:
        8fbe0028 000002c4  257		lw	$fp, 40($sp)
                           258	.L1000209:
        8fb70024 000002c8  259		lw	$23, 36($sp)
        8fbf009c 000002cc  260		lw	$ra, 156($sp)
        8fb00008 000002d0  261		lw	$16, 8($sp)
        8fb1000c 000002d4  262		lw	$17, 12($sp)
        8fb20010 000002d8  263		lw	$18, 16($sp)
        8fb30014 000002dc  264		lw	$19, 20($sp)
        8fb40018 000002e0  265		lw	$20, 24($sp)
        8fb5001c 000002e4  266		lw	$21, 28($sp)
        8fb60020 000002e8  267		lw	$22, 32($sp)
        27bd00a0 000002ec  268		addiu	$sp, $sp, 160
        03e00008 000002f0  269		jr	$ra
        34020001 000002f4  270		ori	$2, $0, 1
                           271	.L208:
        0c000000 000002f8  272		jal	GUI_Lock
        00000000 000002fc  273		nop
        3c030000 00000300  274		lui	$3, %hi(GUI_Context)
        24630000 00000304  275		addiu	$3, $3, %lo(GUI_Context)
        8c780044 00000308  276		lw	$24, 68($3)
        27a40090 0000030c  277		addiu	$4, $sp, 144
        8fac008c 00000310  278		lw	$12, 140($sp)
        02188021 00000314  279		addu	$16, $16, $24
        a7b00090 00000318  280		sh	$16, 144($sp)
        020c7021 0000031c  281		addu	$14, $16, $12

                                   Tue Apr 07 08:53:03 2015           Page 7
                                   Tue Apr 07 08:53:03 2015       gh_2i045.s
        25d9ffff 00000320  282		addiu	$25, $14, -1
        8c6f0048 00000324  283		lw	$15, 72($3)
        a7b90094 00000328  284		sh	$25, 148($sp)
        8fac0064 0000032c  285		lw	$12, 100($sp)
        022f8821 00000330  286		addu	$17, $17, $15
        a7b10092 00000334  287		sh	$17, 146($sp)
        022cc021 00000338  288		addu	$24, $17, $12
        270effff 0000033c  289		addiu	$14, $24, -1
        0c000000 00000340  290		jal	WM__InitIVRSearch
        a7ae0096 00000344  291		sh	$14, 150($sp)
        104001b2 00000348  292		beq	$2, $0, .L215
        00000000 0000034c  293		nop
        8fa1008c 00000350  294		lw	$1, 140($sp)
        242e0003 00000354  295		addiu	$14, $1, 3
        0001c880 00000358  296		sll	$25, $1, 2
        03216823 0000035c  297		subu	$13, $25, $1
        000d68c0 00000360  298		sll	$13, $13, 3
        25a3001f 00000364  299		addiu	$3, $13, 31
        00031943 00000368  300		sra	$3, $3, 5
        00036080 0000036c  301		sll	$12, $3, 2
        afac006c 00000370  302		sw	$12, 108($sp)
        3c0c0000 00000374  303		lui	$12, %hi(LCD__aConvTable)
        258c0000 00000378  304		addiu	$12, $12, %lo(LCD__aConvTable)
        afac005c 0000037c  305		sw	$12, 92($sp)
        27ac0038 00000380  306		addiu	$12, $sp, 56
        afac0088 00000384  307		sw	$12, 136($sp)
        2739001f 00000388  308		addiu	$25, $25, 31
        00191943 0000038c  309		sra	$3, $25, 5
        00036080 00000390  310		sll	$12, $3, 2
        afac0070 00000394  311		sw	$12, 112($sp)
        27ac003c 00000398  312		addiu	$12, $sp, 60
        afac0084 0000039c  313		sw	$12, 132($sp)
        27ac0034 000003a0  314		addiu	$12, $sp, 52
        afac0080 000003a4  315		sw	$12, 128($sp)
        3c0c0000 000003a8  316		lui	$12, %hi(LCD_Color2Index)
        258c0000 000003ac  317		addiu	$12, $12, %lo(LCD_Color2Index)
        afac0074 000003b0  318		sw	$12, 116($sp)
        000e6883 000003b4  319		sra	$13, $14, 2
        000d6080 000003b8  320		sll	$12, $13, 2
        afac0078 000003bc  321		sw	$12, 120($sp)
        2439001f 000003c0  322		addiu	$25, $1, 31
        0019c143 000003c4  323		sra	$24, $25, 5
        00186080 000003c8  324		sll	$12, $24, 2
        afac007c 000003cc  325		sw	$12, 124($sp)
        97a3006a 000003d0  326		lhu	$3, 106($sp)
                           327	.L1000219:
        2463ffff 000003d4  328		addiu	$3, $3, -1
        10600009 000003d8  329		beq	$3, $0, .L222
        2463fffd 000003dc  330		addiu	$3, $3, -3
        10600007 000003e0  331		beq	$3, $0, .L222
        2463fffc 000003e4  332		addiu	$3, $3, -4
        10600005 000003e8  333		beq	$3, $0, .L222
        2463fff0 000003ec  334		addiu	$3, $3, -16
        506000c6 000003f0  335		beql	$3, $0, .L1000239
        8fac0030 000003f4  336		lw	$12, 48($sp)
        08000000 000003f8  337		j	.L218

                                   Tue Apr 07 08:53:03 2015           Page 8
                                   Tue Apr 07 08:53:03 2015       gh_2i045.s
        00000000 000003fc  338		nop
                           339	.L222:
        8fac0064 00000400  340		lw	$12, 100($sp)
        8fa40080 00000404  341		lw	$4, 128($sp)
        8fb20030 00000408  342		lw	$18, 48($sp)
        97b7006a 0000040c  343		lhu	$23, 106($sp)
        ac8c0000 00000410  344		sw	$12, 0($4)
        34160000 00000414  345		ori	$22, $0, 0
        0c000000 00000418  346		jal	_GetStep
        8fa50088 0000041c  347		lw	$5, 136($sp)
        14400007 00000420  348		bne	$2, $0, .L227
        afa20060 00000424  349		sw	$2, 96($sp)
        0c000000 00000428  350		jal	WM__GetNextIVR
        34120001 0000042c  351		ori	$18, $0, 1
        5440ffe8 00000430  352		bnel	$2, $0, .L1000219
        97a3006a 00000434  353		lhu	$3, 106($sp)
        08000000 00000438  354		j	.L215
        00000000 0000043c  355		nop
                           356	.L227:
        8fac0058 00000440  357		lw	$12, 88($sp)
        341e0000 00000444  358		ori	$fp, $0, 0
        34150000 00000448  359		ori	$21, $0, 0
        02ac782a 0000044c  360		slt	$15, $21, $12
        11e00002 00000450  361		beq	$15, $0, .L751
        00000000 00000454  362		nop
        0180a825 00000458  363		move	$21, $12
                           364	.L751:
        0015a0c2 0000045c  365		srl	$20, $21, 3
        52800050 00000460  366		beql	$20, $0, .L1000544
        32b40007 00000464  367		andi	$20, $21, 7
        8fb3005c 00000468  368		lw	$19, 92($sp)
        0014f0c0 0000046c  369		sll	$fp, $20, 3
                           370	.L560:
        92590000 00000470  371		lbu	$25, 0($18)
        92420001 00000474  372		lbu	$2, 1($18)
        00196c00 00000478  373		sll	$13, $25, 16
        92430002 0000047c  374		lbu	$3, 2($18)
        0002ca00 00000480  375		sll	$25, $2, 8
        01b9c025 00000484  376		or	$24, $13, $25
        0c000000 00000488  377		jal	LCD_Color2Index
        03032025 0000048c  378		or	$4, $24, $3
        a6620000 00000490  379		sh	$2, 0($19)
        92590004 00000494  380		lbu	$25, 4($18)
        92420005 00000498  381		lbu	$2, 5($18)
        00197c00 0000049c  382		sll	$15, $25, 16
        92430006 000004a0  383		lbu	$3, 6($18)
        00027200 000004a4  384		sll	$14, $2, 8
        01ee6825 000004a8  385		or	$13, $15, $14
        0c000000 000004ac  386		jal	LCD_Color2Index
        01a32025 000004b0  387		or	$4, $13, $3
        a6620002 000004b4  388		sh	$2, 2($19)
        92590008 000004b8  389		lbu	$25, 8($18)
        92420009 000004bc  390		lbu	$2, 9($18)
        9243000a 000004c0  391		lbu	$3, 10($18)
        0019cc00 000004c4  392		sll	$25, $25, 16
        0002c200 000004c8  393		sll	$24, $2, 8

                                   Tue Apr 07 08:53:03 2015           Page 9
                                   Tue Apr 07 08:53:03 2015       gh_2i045.s
        03387825 000004cc  394		or	$15, $25, $24
        0c000000 000004d0  395		jal	LCD_Color2Index
        01e32025 000004d4  396		or	$4, $15, $3
        a6620004 000004d8  397		sh	$2, 4($19)
        9259000c 000004dc  398		lbu	$25, 12($18)
        9242000d 000004e0  399		lbu	$2, 13($18)
        9243000e 000004e4  400		lbu	$3, 14($18)
        00197400 000004e8  401		sll	$14, $25, 16
        00026a00 000004ec  402		sll	$13, $2, 8
        01cdc825 000004f0  403		or	$25, $14, $13
        0c000000 000004f4  404		jal	LCD_Color2Index
        03232025 000004f8  405		or	$4, $25, $3
        a6620006 000004fc  406		sh	$2, 6($19)
        92590010 00000500  407		lbu	$25, 16($18)
        92420011 00000504  408		lbu	$2, 17($18)
        0019c400 00000508  409		sll	$24, $25, 16
        92430012 0000050c  410		lbu	$3, 18($18)
        00027a00 00000510  411		sll	$15, $2, 8
        030f7025 00000514  412		or	$14, $24, $15
        0c000000 00000518  413		jal	LCD_Color2Index
        01c32025 0000051c  414		or	$4, $14, $3
        a6620008 00000520  415		sh	$2, 8($19)
        92590014 00000524  416		lbu	$25, 20($18)
        92420015 00000528  417		lbu	$2, 21($18)
        00196c00 0000052c  418		sll	$13, $25, 16
        92430016 00000530  419		lbu	$3, 22($18)
        0002ca00 00000534  420		sll	$25, $2, 8
        01b9c025 00000538  421		or	$24, $13, $25
        0c000000 0000053c  422		jal	LCD_Color2Index
        03032025 00000540  423		or	$4, $24, $3
        a662000a 00000544  424		sh	$2, 10($19)
        92590018 00000548  425		lbu	$25, 24($18)
        92420019 0000054c  426		lbu	$2, 25($18)
        00197c00 00000550  427		sll	$15, $25, 16
        9243001a 00000554  428		lbu	$3, 26($18)
        00027200 00000558  429		sll	$14, $2, 8
        01ee6825 0000055c  430		or	$13, $15, $14
        0c000000 00000560  431		jal	LCD_Color2Index
        01a32025 00000564  432		or	$4, $13, $3
        a662000c 00000568  433		sh	$2, 12($19)
        9259001c 0000056c  434		lbu	$25, 28($18)
        9242001d 00000570  435		lbu	$2, 29($18)
        9243001e 00000574  436		lbu	$3, 30($18)
        0019cc00 00000578  437		sll	$25, $25, 16
        0002c200 0000057c  438		sll	$24, $2, 8
        03387825 00000580  439		or	$15, $25, $24
        0c000000 00000584  440		jal	LCD_Color2Index
        01e32025 00000588  441		or	$4, $15, $3
        26520020 0000058c  442		addiu	$18, $18, 32
        26730010 00000590  443		addiu	$19, $19, 16
        2694ffff 00000594  444		addiu	$20, $20, -1
        1680ffb5 00000598  445		bne	$20, $0, .L560
        a662fffe 0000059c  446		sh	$2, -2($19)
        32b40007 000005a0  447		andi	$20, $21, 7
                           448	.L1000544:
        52800012 000005a4  449		beql	$20, $0, .L1000230

                                   Tue Apr 07 08:53:03 2015           Page 10
                                   Tue Apr 07 08:53:03 2015       gh_2i045.s
        26e3ffff 000005a8  450		addiu	$3, $23, -1
        8fa1005c 000005ac  451		lw	$1, 92($sp)
        001e1840 000005b0  452		sll	$3, $fp, 1
        00239821 000005b4  453		addu	$19, $1, $3
                           454	.L564:
        92590000 000005b8  455		lbu	$25, 0($18)
        92420001 000005bc  456		lbu	$2, 1($18)
        92430002 000005c0  457		lbu	$3, 2($18)
        0019cc00 000005c4  458		sll	$25, $25, 16
        0002c200 000005c8  459		sll	$24, $2, 8
        03387825 000005cc  460		or	$15, $25, $24
        0c000000 000005d0  461		jal	LCD_Color2Index
        01e32025 000005d4  462		or	$4, $15, $3
        26520004 000005d8  463		addiu	$18, $18, 4
        26730002 000005dc  464		addiu	$19, $19, 2
        2694ffff 000005e0  465		addiu	$20, $20, -1
        1680fff4 000005e4  466		bne	$20, $0, .L564
        a662fffe 000005e8  467		sh	$2, -2($19)
        26e3ffff 000005ec  468		addiu	$3, $23, -1
                           469	.L1000230:
        10600007 000005f0  470		beq	$3, $0, .L231
        2463fffd 000005f4  471		addiu	$3, $3, -3
        1060000f 000005f8  472		beq	$3, $0, .L232
        2463fffc 000005fc  473		addiu	$3, $3, -4
        50600017 00000600  474		beql	$3, $0, .L1000233
        8fae0088 00000604  475		lw	$14, 136($sp)
        08000000 00000608  476		j	.L1000235
        8fae0088 0000060c  477		lw	$14, 136($sp)
                           478	.L231:
        8fae0088 00000610  479		lw	$14, 136($sp)
        8fad0080 00000614  480		lw	$13, 128($sp)
        8dce0000 00000618  481		lw	$14, 0($14)
        8dad0000 0000061c  482		lw	$13, 0($13)
        8fb6007c 00000620  483		lw	$22, 124($sp)
        01cdc82a 00000624  484		slt	$25, $14, $13
        17200030 00000628  485		bne	$25, $0, .L236
        00000000 0000062c  486		nop
        08000000 00000630  487		j	.L237
        00000000 00000634  488		nop
                           489	.L232:
        8fae0088 00000638  490		lw	$14, 136($sp)
        8fad0080 0000063c  491		lw	$13, 128($sp)
        8dce0000 00000640  492		lw	$14, 0($14)
        8dad0000 00000644  493		lw	$13, 0($13)
        8fb60070 00000648  494		lw	$22, 112($sp)
        01cdc82a 0000064c  495		slt	$25, $14, $13
        17200026 00000650  496		bne	$25, $0, .L236
        00000000 00000654  497		nop
        08000000 00000658  498		j	.L237
        00000000 0000065c  499		nop
                           500	.L1000233:
        8fad0080 00000660  501		lw	$13, 128($sp)
        8dce0000 00000664  502		lw	$14, 0($14)
        8dad0000 00000668  503		lw	$13, 0($13)
        8fb60078 0000066c  504		lw	$22, 120($sp)
        01cdc82a 00000670  505		slt	$25, $14, $13

                                   Tue Apr 07 08:53:03 2015           Page 11
                                   Tue Apr 07 08:53:03 2015       gh_2i045.s
        1720001d 00000674  506		bne	$25, $0, .L236
        00000000 00000678  507		nop
        08000000 0000067c  508		j	.L237
        00000000 00000680  509		nop
                           510	.L1000234:
        8fac005c 00000684  511		lw	$12, 92($sp)
        afb20000 00000688  512		sw	$18, 0($sp)
        8ca50000 0000068c  513		lw	$5, 0($5)
        afac0004 00000690  514		sw	$12, 4($sp)
        02002025 00000694  515		move	$4, $16
        8fa6008c 00000698  516		lw	$6, 140($sp)
        02252821 0000069c  517		addu	$5, $17, $5
        02e05025 000006a0  518		move	$10, $23
        00c05825 000006a4  519		move	$11, $6
        34070001 000006a8  520		ori	$7, $0, 1
        34080001 000006ac  521		ori	$8, $0, 1
        0c000000 000006b0  522		jal	LCD_DrawBitmap
        34090001 000006b4  523		ori	$9, $0, 1
        8fa10088 000006b8  524		lw	$1, 136($sp)
        8fac0060 000006bc  525		lw	$12, 96($sp)
        8c2f0000 000006c0  526		lw	$15, 0($1)
        02569021 000006c4  527		addu	$18, $18, $22
        01ec7821 000006c8  528		addu	$15, $15, $12
        ac2f0000 000006cc  529		sw	$15, 0($1)
        8fae0088 000006d0  530		lw	$14, 136($sp)
                           531	.L1000235:
        8fad0080 000006d4  532		lw	$13, 128($sp)
        8dce0000 000006d8  533		lw	$14, 0($14)
        8dad0000 000006dc  534		lw	$13, 0($13)
        01cdc82a 000006e0  535		slt	$25, $14, $13
        13200003 000006e4  536		beq	$25, $0, .L237
        00000000 000006e8  537		nop
                           538	.L236:
        05c3ffe5 000006ec  539		bgezl	$14, .L1000234
        8fa50088 000006f0  540		lw	$5, 136($sp)
                           541	.L237:
        0c000000 000006f4  542		jal	WM__GetNextIVR
        34120000 000006f8  543		ori	$18, $0, 0
        5440ff35 000006fc  544		bnel	$2, $0, .L1000219
        97a3006a 00000700  545		lhu	$3, 106($sp)
        08000000 00000704  546		j	.L215
        00000000 00000708  547		nop
                           548	.L1000239:
        8fa40084 0000070c  549		lw	$4, 132($sp)
        27b20040 00000710  550		addiu	$18, $sp, 64
        afac0044 00000714  551		sw	$12, 68($sp)
        8fac0064 00000718  552		lw	$12, 100($sp)
        02402825 0000071c  553		move	$5, $18
        0c000000 00000720  554		jal	_GetStep
        ac8c0000 00000724  555		sw	$12, 0($4)
        14400007 00000728  556		bne	$2, $0, .L244
        afa20048 0000072c  557		sw	$2, 72($sp)
        0c000000 00000730  558		jal	WM__GetNextIVR
        34120001 00000734  559		ori	$18, $0, 1
        5440ff26 00000738  560		bnel	$2, $0, .L1000219
        97a3006a 0000073c  561		lhu	$3, 106($sp)

                                   Tue Apr 07 08:53:03 2015           Page 12
                                   Tue Apr 07 08:53:03 2015       gh_2i045.s
        08000000 00000740  562		j	.L215
        00000000 00000744  563		nop
                           564	.L244:
        8fac006c 00000748  565		lw	$12, 108($sp)
        8fa10084 0000074c  566		lw	$1, 132($sp)
        0240b825 00000750  567		move	$23, $18
        afac004c 00000754  568		sw	$12, 76($sp)
        8c2e0000 00000758  569		lw	$14, 0($1)
        8ee30000 0000075c  570		lw	$3, 0($23)
        260c0007 00000760  571		addiu	$12, $16, 7
        afac0054 00000764  572		sw	$12, 84($sp)
        006e682a 00000768  573		slt	$13, $3, $14
        15a000a2 0000076c  574		bne	$13, $0, .L250
        afa10050 00000770  575		sw	$1, 80($sp)
        08000000 00000774  576		j	.L1000251
        34120000 00000778  577		ori	$18, $0, 0
                           578	.L1000245:
        341e0000 0000077c  579		ori	$fp, $0, 0
        34160000 00000780  580		ori	$22, $0, 0
        02cc682a 00000784  581		slt	$13, $22, $12
        11a00002 00000788  582		beq	$13, $0, .L752
        00000000 0000078c  583		nop
        0180b025 00000790  584		move	$22, $12
                           585	.L752:
        0016a8c2 00000794  586		srl	$21, $22, 3
        52a00073 00000798  587		beql	$21, $0, .L1000451
        32d50007 0000079c  588		andi	$21, $22, 7
        8fa10044 000007a0  589		lw	$1, 68($sp)
        02e0a025 000007a4  590		move	$20, $23
        8fb30054 000007a8  591		lw	$19, 84($sp)
        24320015 000007ac  592		addiu	$18, $1, 21
        0015f0c0 000007b0  593		sll	$fp, $21, 3
                           594	.L467:
        9259ffeb 000007b4  595		lbu	$25, -21($18)
        9242ffec 000007b8  596		lbu	$2, -20($18)
        9243ffed 000007bc  597		lbu	$3, -19($18)
        0019c400 000007c0  598		sll	$24, $25, 16
        00027a00 000007c4  599		sll	$15, $2, 8
        030f7025 000007c8  600		or	$14, $24, $15
        0c000000 000007cc  601		jal	LCD_Color2Index
        01c32025 000007d0  602		or	$4, $14, $3
        8e850000 000007d4  603		lw	$5, 0($20)
        2664fff9 000007d8  604		addiu	$4, $19, -7
        00403025 000007dc  605		move	$6, $2
        0c000000 000007e0  606		jal	LCD_SetPixelIndex
        02252821 000007e4  607		addu	$5, $17, $5
        9259ffee 000007e8  608		lbu	$25, -18($18)
        9242ffef 000007ec  609		lbu	$2, -17($18)
        9243fff0 000007f0  610		lbu	$3, -16($18)
        00196c00 000007f4  611		sll	$13, $25, 16
        0002ca00 000007f8  612		sll	$25, $2, 8
        01b9c025 000007fc  613		or	$24, $13, $25
        0c000000 00000800  614		jal	LCD_Color2Index
        03032025 00000804  615		or	$4, $24, $3
        8e850000 00000808  616		lw	$5, 0($20)
        2664fffa 0000080c  617		addiu	$4, $19, -6

                                   Tue Apr 07 08:53:03 2015           Page 13
                                   Tue Apr 07 08:53:03 2015       gh_2i045.s
        00403025 00000810  618		move	$6, $2
        0c000000 00000814  619		jal	LCD_SetPixelIndex
        02252821 00000818  620		addu	$5, $17, $5
        9259fff1 0000081c  621		lbu	$25, -15($18)
        9242fff2 00000820  622		lbu	$2, -14($18)
        9243fff3 00000824  623		lbu	$3, -13($18)
        00197c00 00000828  624		sll	$15, $25, 16
        00027200 0000082c  625		sll	$14, $2, 8
        01ee6825 00000830  626		or	$13, $15, $14
        0c000000 00000834  627		jal	LCD_Color2Index
        01a32025 00000838  628		or	$4, $13, $3
        8e850000 0000083c  629		lw	$5, 0($20)
        2664fffb 00000840  630		addiu	$4, $19, -5
        00403025 00000844  631		move	$6, $2
        0c000000 00000848  632		jal	LCD_SetPixelIndex
        02252821 0000084c  633		addu	$5, $17, $5
        9259fff4 00000850  634		lbu	$25, -12($18)
        9242fff5 00000854  635		lbu	$2, -11($18)
        9243fff6 00000858  636		lbu	$3, -10($18)
        0019cc00 0000085c  637		sll	$25, $25, 16
        0002c200 00000860  638		sll	$24, $2, 8
        03387825 00000864  639		or	$15, $25, $24
        0c000000 00000868  640		jal	LCD_Color2Index
        01e32025 0000086c  641		or	$4, $15, $3
        8e850000 00000870  642		lw	$5, 0($20)
        2664fffc 00000874  643		addiu	$4, $19, -4
        00403025 00000878  644		move	$6, $2
        0c000000 0000087c  645		jal	LCD_SetPixelIndex
        02252821 00000880  646		addu	$5, $17, $5
        9259fff7 00000884  647		lbu	$25, -9($18)
        9242fff8 00000888  648		lbu	$2, -8($18)
        9243fff9 0000088c  649		lbu	$3, -7($18)
        00197400 00000890  650		sll	$14, $25, 16
        00026a00 00000894  651		sll	$13, $2, 8
        01cdc825 00000898  652		or	$25, $14, $13
        0c000000 0000089c  653		jal	LCD_Color2Index
        03232025 000008a0  654		or	$4, $25, $3
        8e850000 000008a4  655		lw	$5, 0($20)
        2664fffd 000008a8  656		addiu	$4, $19, -3
        00403025 000008ac  657		move	$6, $2
        0c000000 000008b0  658		jal	LCD_SetPixelIndex
        02252821 000008b4  659		addu	$5, $17, $5
        9259fffa 000008b8  660		lbu	$25, -6($18)
        9242fffb 000008bc  661		lbu	$2, -5($18)
        9243fffc 000008c0  662		lbu	$3, -4($18)
        0019c400 000008c4  663		sll	$24, $25, 16
        00027a00 000008c8  664		sll	$15, $2, 8
        030f7025 000008cc  665		or	$14, $24, $15
        0c000000 000008d0  666		jal	LCD_Color2Index
        01c32025 000008d4  667		or	$4, $14, $3
        8e850000 000008d8  668		lw	$5, 0($20)
        2664fffe 000008dc  669		addiu	$4, $19, -2
        00403025 000008e0  670		move	$6, $2
        0c000000 000008e4  671		jal	LCD_SetPixelIndex
        02252821 000008e8  672		addu	$5, $17, $5
        9259fffd 000008ec  673		lbu	$25, -3($18)

                                   Tue Apr 07 08:53:03 2015           Page 14
                                   Tue Apr 07 08:53:03 2015       gh_2i045.s
        9242fffe 000008f0  674		lbu	$2, -2($18)
        9243ffff 000008f4  675		lbu	$3, -1($18)
        00196c00 000008f8  676		sll	$13, $25, 16
        0002ca00 000008fc  677		sll	$25, $2, 8
        01b9c025 00000900  678		or	$24, $13, $25
        0c000000 00000904  679		jal	LCD_Color2Index
        03032025 00000908  680		or	$4, $24, $3
        8e850000 0000090c  681		lw	$5, 0($20)
        2664ffff 00000910  682		addiu	$4, $19, -1
        00403025 00000914  683		move	$6, $2
        0c000000 00000918  684		jal	LCD_SetPixelIndex
        02252821 0000091c  685		addu	$5, $17, $5
        92590000 00000920  686		lbu	$25, 0($18)
        92420001 00000924  687		lbu	$2, 1($18)
        92430002 00000928  688		lbu	$3, 2($18)
        00197c00 0000092c  689		sll	$15, $25, 16
        00027200 00000930  690		sll	$14, $2, 8
        01ee6825 00000934  691		or	$13, $15, $14
        0c000000 00000938  692		jal	LCD_Color2Index
        01a32025 0000093c  693		or	$4, $13, $3
        8e850000 00000940  694		lw	$5, 0($20)
        00403025 00000944  695		move	$6, $2
        02602025 00000948  696		move	$4, $19
        02252821 0000094c  697		addu	$5, $17, $5
        0c000000 00000950  698		jal	LCD_SetPixelIndex
        26730008 00000954  699		addiu	$19, $19, 8
        26b5ffff 00000958  700		addiu	$21, $21, -1
        16a0ff95 0000095c  701		bne	$21, $0, .L467
        26520018 00000960  702		addiu	$18, $18, 24
        32d50007 00000964  703		andi	$21, $22, 7
                           704	.L1000451:
        12a00018 00000968  705		beq	$21, $0, .L1000248
        8fa10044 0000096c  706		lw	$1, 68($sp)
        001e7880 00000970  707		sll	$15, $fp, 2
        01fe1823 00000974  708		subu	$3, $15, $fp
        00239021 00000978  709		addu	$18, $1, $3
        02e0a025 0000097c  710		move	$20, $23
        021e9821 00000980  711		addu	$19, $16, $fp
                           712	.L471:
        92590000 00000984  713		lbu	$25, 0($18)
        92420001 00000988  714		lbu	$2, 1($18)
        92430002 0000098c  715		lbu	$3, 2($18)
        00197400 00000990  716		sll	$14, $25, 16
        00026a00 00000994  717		sll	$13, $2, 8
        01cdc825 00000998  718		or	$25, $14, $13
        0c000000 0000099c  719		jal	LCD_Color2Index
        03232025 000009a0  720		or	$4, $25, $3
        8e850000 000009a4  721		lw	$5, 0($20)
        00403025 000009a8  722		move	$6, $2
        02602025 000009ac  723		move	$4, $19
        02252821 000009b0  724		addu	$5, $17, $5
        0c000000 000009b4  725		jal	LCD_SetPixelIndex
        26730001 000009b8  726		addiu	$19, $19, 1
        26b5ffff 000009bc  727		addiu	$21, $21, -1
        16a0fff0 000009c0  728		bne	$21, $0, .L471
        26520003 000009c4  729		addiu	$18, $18, 3

                                   Tue Apr 07 08:53:03 2015           Page 15
                                   Tue Apr 07 08:53:03 2015       gh_2i045.s
        8fa10044 000009c8  730		lw	$1, 68($sp)
                           731	.L1000248:
        8fac004c 000009cc  732		lw	$12, 76($sp)
        8fae0050 000009d0  733		lw	$14, 80($sp)
        8eef0000 000009d4  734		lw	$15, 0($23)
        002c6021 000009d8  735		addu	$12, $1, $12
        afac0044 000009dc  736		sw	$12, 68($sp)
        8fac0048 000009e0  737		lw	$12, 72($sp)
        8dce0000 000009e4  738		lw	$14, 0($14)
        01ec1821 000009e8  739		addu	$3, $15, $12
        006e682a 000009ec  740		slt	$13, $3, $14
        11a00003 000009f0  741		beq	$13, $0, .L251
        aee30000 000009f4  742		sw	$3, 0($23)
                           743	.L250:
        0463ff60 000009f8  744		bgezl	$3, .L1000245
        8fac008c 000009fc  745		lw	$12, 140($sp)
                           746	.L251:
        34120000 00000a00  747		ori	$18, $0, 0
                           748	.L1000251:
                           749	.L218:
        0c000000 00000a04  750		jal	WM__GetNextIVR
        00000000 00000a08  751		nop
        5440fe71 00000a0c  752		bnel	$2, $0, .L1000219
        97a3006a 00000a10  753		lhu	$3, 106($sp)
                           754	.L215:
        0c000000 00000a14  755		jal	GUI_Unlock
        00000000 00000a18  756		nop
                           757	 #	    .ef
        02401025 00000a1c  758		move	$2, $18
        8fb60020 00000a20  759		lw	$22, 32($sp)
        8fb5001c 00000a24  760		lw	$21, 28($sp)
        8fb40018 00000a28  761		lw	$20, 24($sp)
        8fb30014 00000a2c  762		lw	$19, 20($sp)
        8fb20010 00000a30  763		lw	$18, 16($sp)
        8fb1000c 00000a34  764		lw	$17, 12($sp)
        8fb00008 00000a38  765		lw	$16, 8($sp)
        8fbf009c 00000a3c  766		lw	$ra, 156($sp)
        8fb70024 00000a40  767		lw	$23, 36($sp)
        8fbe0028 00000a44  768		lw	$fp, 40($sp)
        03e00008 00000a48  769		jr	$ra
        27bd00a0 00000a4c  770		addiu	$sp, $sp, 160
                           771		.type	GUI_BMP_Draw,@function
                           772		.size	GUI_BMP_Draw,.-GUI_BMP_Draw
                           773		.align	4
                           774	 #r	144($sp)	local
                           775	 #Ret	$18	local
                           776	 #Width	140($sp)	local
                           777	 #Height	100($sp)	local
                           778	 #BitCount	106($sp)	local
                           779	 #Type	$20	local
                           780	 #ClrUsed	$2	local
                           781	 #Compression	$21	local
                           782	 #NumColors	88($sp)	local
                           783	 #pSrc	48($sp)	local
                           784	 #pData	$18	local
                           785	 #YSize	52($sp)	local

                                   Tue Apr 07 08:53:03 2015           Page 16
                                   Tue Apr 07 08:53:03 2015       gh_2i045.s
                           786	 #Bpp	$23	local
                           787	 #i	$fp	local
                           788	 #y	56($sp)	local
                           789	 #Step	96($sp)	local
                           790	 #BytesPerLine	$22	local
                           791	 #r	$3	local
                           792	 #g	$2	local
                           793	 #b	$25	local
                           794	 #pData	68($sp)	local
                           795	 #YSize	60($sp)	local
                           796	 #x	$fp	local
                           797	 #y	64($sp)	local
                           798	 #BytesPerLine	76($sp)	local
                           799	 #Step	72($sp)	local
                           800	 #r	$3	local
                           801	 #g	$2	local
                           802	 #b	$25	local
                           803	
                           804	 #pBMP	$4	param
                           805	 #x0	$16	param
                           806	 #y0	$17	param
                           807	
                           808		.data
                           809	.L749:
                           810		.text
                           811		.align	4
                           812	 #GUI_Context	GUI_Context	import
                           813	 #LCD__aConvTable	LCD__aConvTable	import
                           814	
                           815		.data
                           816		.text
