
                                   Tue Apr 07 08:52:56 2015           Page 1
                                   Tue Apr 07 08:52:55 2015       gh_2i040.s
Command Line:   C:\GHS\V35\mips35\asmips.exe -noundefined -elf -b0
                -IC:\local\Workspace\DC_V04.01.00_int\cu3x1Platform_SRC\emWinColour
                -IC:\local\Workspace\DC_V04.01.00_int\cu3x1Platform_SRC\platform\include
                -IC:\local\Workspace\DC_V04.01.00_int\cu3x1Platform_SRC\platform\common
                -IC:\local\Workspace\DC_V04.01.00_int\cu3x1Platform_SRC\platform\hardware
                -IC:\local\Workspace\DC_V04.01.00_int\cu3x1Platform_SRC\platform\hardware\D3018X
                -IC:\local\Workspace\DC_V04.01.00_int\cu3x1Platform_SRC\embos\inc
                -IC:\local\Workspace\DC_V04.01.00_int\cu3x1Platform_SRC\emWinColour\config
                -IC:\local\Workspace\DC_V04.01.00_int\cu3x1Platform_SRC\emWinColour\gui\ConvertMono
                -IC:\local\Workspace\DC_V04.01.00_int\cu3x1Platform_SRC\emWinColour\gui\Core
                -IC:\local\Workspace\DC_V04.01.00_int\cu3x1Platform_SRC\emWinColour\gui\Font
                -IC:\local\Workspace\DC_V04.01.00_int\cu3x1Platform_SRC\emWinColour\gui\LCDDriver
                -IC:\local\Workspace\DC_V04.01.00_int\cu3x1Platform_SRC\emWinColour\gui\MemDev
                -IC:\local\Workspace\DC_V04.01.00_int\cu3x1Platform_SRC\emWinColour\gui\VNC
                -IC:\local\Workspace\DC_V04.01.00_int\cu3x1Platform_SRC\emWinColour\gui\Widget
                -IC:\local\Workspace\DC_V04.01.00_int\cu3x1Platform_SRC\emWinColour\gui\wm
                -IC:\local\Workspace\DC_V04.01.00_int\cu3x1App_SRC\Control\source
                -IC:\local\Workspace\DC_V04.01.00_int\cu3x1App_SRC\Control\source\include
                -IC:\local\Workspace\DC_V04.01.00_int\cu3x1App_SRC\Control\source\util
                -IC:\local\Workspace\DC_V04.01.00_int\cu3x1App_SRC\Control\source\datapoint
                -IC:\local\Workspace\DC_V04.01.00_int\cu3x1App_SRC\Control\source\factory
                -IC:\local\Workspace\DC_V04.01.00_int\cu3x1Platform_SRC\embos
                -IC:\local\Workspace\DC_V04.01.00_int\cu3x1Platform_SRC\emWinColour\gui\core
                -IC:\local\Workspace\DC_V04.01.00_int\cu3x1App_SRC\Control\source\rtip\webpage
                -IC:\local\Workspace\DC_V04.01.00_int\cu3x1App_SRC\Control\source\rtip\config
                -IC:\local\Workspace\DC_V04.01.00_int\cu3x1App_SRC\Control\source\rtip\xnet
                -IC:\local\Workspace\DC_V04.01.00_int\cu3x1App_SRC\Control\source\stub
                -IC:\local\Workspace\DC_V04.01.00_int\cu3x1App_SRC\Control\source\test
                -IC:\local\Workspace\DC_V04.01.00_int\cu3x1App_SRC\Control\source\GENIpro
                -IC:\local\Workspace\DC_V04.01.00_int\cu3x1App_SRC\Control\source\GENIpro\GENI_sys
                -IC:\local\Workspace\DC_V04.01.00_int\cu3x1App_SRC\Control\source\GENIpro\GENIusb\emUSB\USB\Driver
                -IC:\local\Workspace\DC_V04.01.00_int\cu3x1App_SRC\Control\source\application\intercom
                -IC:\local\Workspace\DC_V04.01.00_int\cu3x1App_SRC\Control\source\application\controller
                -IC:\local\Workspace\DC_V04.01.00_int\cu3x1App_SRC\Control\source\application\driver
                -IC:\local\Workspace\DC_V04.01.00_int\cu3x1App_SRC\Control\source\application\webif
                -IC:\local\Workspace\DC_V04.01.00_int\cu3x1App_SRC\Control\source\application\relay
                -IC:\local\Workspace\DC_V04.01.00_int\cu3x1App_SRC\Control\source\application\GENIApp
                -IC:\local\Workspace\DC_V04.01.00_int\cu3x1App_SRC\Control\source\application\alarm
                -IC:\local\Workspace\DC_V04.01.00_int\cu3x1App_SRC\Control\source\application\config
                -IC:\local\Workspace\DC_V04.01.00_int\cu3x1App_SRC\Control\source\application\AnaInConfigCtrl
                -IC:\local\Workspace\DC_V04.01.00_int\cu3x1App_SRC\Control\source\application\Sms
                -IC:\local\Workspace\DC_V04.01.00_int\cu3x1App_SRC\Control\source\application\display
                -IC:\local\Workspace\DC_V04.01.00_int\cu3x1App_SRC\Control\source\application\display\display_task
                -IC:\local\Workspace\DC_V04.01.00_int\cu3x1App_SRC\Control\source\application\display\gui_utility
                -IC:\local\Workspace\DC_V04.01.00_int\cu3x1App_SRC\Control\source\application\display\mpcunit
                -IC:\local\Workspace\DC_V04.01.00_int\cu3x1App_SRC\Control\source\GeniPro
                -IC:\local\Workspace\DC_V04.01.00_int\cu3x1App_SRC\Control\source\GeniPro\GENI_sys
                -IC:\local\Workspace\DC_V04.01.00_int\cu3x1App_SRC\Control\source\GeniPro\GENIbus
                -IC:\local\Workspace\DC_V04.01.00_int\cu3x1App_SRC\Control\source\GeniPro\GENIcom
                -IC:\local\Workspace\DC_V04.01.00_int\cu3x1App_SRC\Control\source\GeniPro\GENIrs232
                -IC:\local\Workspace\DC_V04.01.00_int\cu3x1App_SRC\Control\source\GeniPro\Virtual
                -IC:\local\Workspace\DC_V04.01.00_int\cu3x1Platform_SRC\Platform\common
                -IC:\local\Workspace\DC_V04.01.00_int\cu3x1Platform_SRC\Platform\hardware
                -IC:\local\Workspace\DC_V04.01.00_int\cu3x1Platform_SRC\Platform\hardware\D3018X
                -IC:\local\Workspace\DC_V04.01.00_int\cu3x1App_SRC\Control\source\application\display\imagesTFT
                -IC:\GHS\V35\mips35\mipsl_sf -r4121 -source=GUI_AddDecShift.c -o
                objs\gh_2i040.o -list=objs\GUI_AddDecShift.lst
                C:\Users\55602\AppData\Local\Temp\gh_2i040.s
Source File:    C:\Users\55602\AppData\Local\Temp\gh_2i040.s
Directory:      C:\local\Workspace\DC_V04.01.00_int\cu3x1App_SRC\Control\source
Host OS:        GHS_WIN32
Version:        AS-MIPS 3.5#11 
Release:        MULTI 2000, MIPS v3.5
Revision Date:  Wed Feb 27 12:19:03 2002
Release Date:   Sat Mar 02 02:57:59 2002
                             1	 #Source File:   C:\local\Workspace\DC_V04.01.00_int\cu3x1Platform_SRC\emWinColour\GUI\Core\GUI_AddDecShift.c

                                   Tue Apr 07 08:52:56 2015           Page 2
                                   Tue Apr 07 08:52:55 2015       gh_2i040.s
                             2	 #Directory:     
                             3	 #		C:\local\Workspace\DC_V04.01.00_int\cu3x1App_SRC\Control\source
                             4	 #Compile Date:  Tue Apr 07 08:52:55 2015
                             5	 #Host OS:       Win32
                             6	 #Version:       C-MIPS 3.5#11 RELEASE VERSION
                             7	 #Release:       MULTI 2000, MIPS v3.5
                             8	 #Revision Date: Fri Mar 01 11:32:40 2002
                             9	 #Release Date:  Sat Mar 02 02:58:48 2002
                            10		.set	noat
                            11		.set	noreorder
                            12		.set	nomacro
                            13		.text
                            14		.align	4
                            15		.globl	GUI_Long2Len
                            16	GUI_Long2Len:
        3c020000 00000000   17		lui	$2, %hi(GUI_Pow10)
                            18	 #	    .bf
        24420000 00000004   19		addiu	$2, $2, %lo(GUI_Pow10)
        24420004 00000008   20		addiu	$2, $2, 4
        0004cfc3 0000000c   21		sra	$25, $4, 31
        8c580000 00000010   22		lw	$24, 0($2)
        00996826 00000014   23		xor	$13, $4, $25
        01b96823 00000018   24		subu	$13, $13, $25
        01b8782b 0000001c   25		sltu	$15, $13, $24
        15e0000a 00000020   26		bne	$15, $0, .L17
        34030001 00000024   27		ori	$3, $0, 1
        08000000 00000028   28		j	.L1000019
        286e0009 0000002c   29		slti	$14, $3, 9
                            30	.L1000018:
        24420004 00000030   31		addiu	$2, $2, 4
        24630001 00000034   32		addiu	$3, $3, 1
        01b8782b 00000038   33		sltu	$15, $13, $24
        15e00003 0000003c   34		bne	$15, $0, .L17
        286e0009 00000040   35		slti	$14, $3, 9
                            36	.L1000019:
        55c0fffa 00000044   37		bnel	$14, $0, .L1000018
        8c580004 00000048   38		lw	$24, 4($2)
                            39	.L17:
        04820001 0000004c   40		bltzl	$4, .L20
        24630001 00000050   41		addiu	$3, $3, 1
                            42	.L20:
                            43	 #	    .ef
        03e00008 00000054   44		jr	$ra
        00601025 00000058   45		move	$2, $3
                            46		.type	GUI_Long2Len,@function
                            47		.size	GUI_Long2Len,.-GUI_Long2Len
                            48		.align	4
                            49	 #Len	$3	local
                            50	 #v	$13	local
                            51	
                            52	 #vSign	$4	param
                            53	
                            54		.data
                            55	.L51:
                            56		.text
                            57		.align	4

                                   Tue Apr 07 08:52:56 2015           Page 3
                                   Tue Apr 07 08:52:55 2015       gh_2i040.s
                            58		.align	4
                            59		.globl	GUI_AddSign
                            60	GUI_AddSign:
                            61	 #	    .bf
        04810009 0000005c   62		bgez	$4, .L1000071
        8caf0000 00000060   63		lw	$15, 0($5)
        3403002d 00000064   64		ori	$3, $0, 45
        25f80001 00000068   65		addiu	$24, $15, 1
        acb80000 0000006c   66		sw	$24, 0($5)
        a1e30000 00000070   67		sb	$3, 0($15)
        8cae0000 00000074   68		lw	$14, 0($5)
        00041023 00000078   69		subu	$2, $0, $4
        03e00008 0000007c   70		jr	$ra
        a1c00000 00000080   71		sb	$0, 0($14)
                            72	.L1000071:
        3403002b 00000084   73		ori	$3, $0, 43
        25f80001 00000088   74		addiu	$24, $15, 1
        acb80000 0000008c   75		sw	$24, 0($5)
                            76	 #	    .ef
        a1e30000 00000090   77		sb	$3, 0($15)
        8cae0000 00000094   78		lw	$14, 0($5)
        00801025 00000098   79		move	$2, $4
        03e00008 0000009c   80		jr	$ra
        a1c00000 000000a0   81		sb	$0, 0($14)
                            82		.type	GUI_AddSign,@function
                            83		.size	GUI_AddSign,.-GUI_AddSign
                            84		.align	4
                            85	 #c	$3	local
                            86	
                            87	 #v	$4	param
                            88	 #ps	$5	param
                            89	
                            90		.data
                            91	.L94:
                            92		.text
                            93		.align	4
                            94		.align	4
                            95		.globl	GUI_AddDecShift
                            96	GUI_AddDecShift:
        30c600ff 000000a4   97		andi	$6, $6, 255
                            98	 #	    .bf
        0481000d 000000a8   99		bgez	$4, .L112
        30a500ff 000000ac  100		andi	$5, $5, 255
        8cef0000 000000b0  101		lw	$15, 0($7)
        34030001 000000b4  102		ori	$3, $0, 1
        00a32823 000000b8  103		subu	$5, $5, $3
        30a500ff 000000bc  104		andi	$5, $5, 255
        25f80001 000000c0  105		addiu	$24, $15, 1
        acf80000 000000c4  106		sw	$24, 0($7)
        340e002d 000000c8  107		ori	$14, $0, 45
        00042023 000000cc  108		subu	$4, $0, $4
        10c00007 000000d0  109		beq	$6, $0, .L114
        a1ee0000 000000d4  110		sb	$14, 0($15)
        08000000 000000d8  111		j	.L1000115
        24a5ffff 000000dc  112		addiu	$5, $5, -1
                           113	.L112:

                                   Tue Apr 07 08:52:56 2015           Page 4
                                   Tue Apr 07 08:52:55 2015       gh_2i040.s
        50c00004 000000e0  114		beql	$6, $0, .L1000114
        0005c880 000000e4  115		sll	$25, $5, 2
        24a5ffff 000000e8  116		addiu	$5, $5, -1
                           117	.L1000115:
        30a500ff 000000ec  118		andi	$5, $5, 255
                           119	.L114:
        0005c880 000000f0  120		sll	$25, $5, 2
                           121	.L1000114:
        3c0f0000 000000f4  122		lui	$15, %hi(GUI_Pow10)
        25ef0000 000000f8  123		addiu	$15, $15, %lo(GUI_Pow10)
        01f9c021 000000fc  124		addu	$24, $15, $25
        8f030000 00000100  125		lw	$3, 0($24)
        0083702b 00000104  126		sltu	$14, $4, $3
        15c0001f 00000108  127		bne	$14, $0, .L118
        00000000 0000010c  128		nop
        10a0001f 00000110  129		beq	$5, $0, .L119
        2464ffff 00000114  130		addiu	$4, $3, -1
        00a01825 00000118  131		move	$3, $5
                           132	.L1000120:
        24a5ffff 0000011c  133		addiu	$5, $5, -1
        14660006 00000120  134		bne	$3, $6, .L121
        30a500ff 00000124  135		andi	$5, $5, 255
        8cf80000 00000128  136		lw	$24, 0($7)
        838f0000 0000012c  137		lb	$15, %sdaoff(GUI_DecChar)($28)
        27190001 00000130  138		addiu	$25, $24, 1
        acf90000 00000134  139		sw	$25, 0($7)
        a30f0000 00000138  140		sb	$15, 0($24)
                           141	.L121:
        3c190000 0000013c  142		lui	$25, %hi(GUI_Pow10)
        27390000 00000140  143		addiu	$25, $25, %lo(GUI_Pow10)
        00057080 00000144  144		sll	$14, $5, 2
        032e6821 00000148  145		addu	$13, $25, $14
        8da20000 0000014c  146		lw	$2, 0($13)
        54400002 00000150  147		bnel	$2, $0, .L192
        0082001a 00000154  148		div	$0,$4, $2
        0007000d 00000158  149		break	7
                           150	.L192:
        0000c012 0000015c  151		mflo	$24
        00181e00 00000160  152		sll	$3, $24, 24
        00031e03 00000164  153		sra	$3, $3, 24
        00620018 00000168  154		mult	$3, $2
        24790030 0000016c  155		addiu	$25, $3, 48
        8ced0000 00000170  156		lw	$13, 0($7)
        00007812 00000174  157		mflo	$15
        008f2023 00000178  158		subu	$4, $4, $15
        25ae0001 0000017c  159		addiu	$14, $13, 1
        acee0000 00000180  160		sw	$14, 0($7)
        a1b90000 00000184  161		sb	$25, 0($13)
                           162	.L118:
        54a0ffe4 00000188  163		bnel	$5, $0, .L1000120
        00a01825 0000018c  164		move	$3, $5
                           165	.L119:
        8cef0000 00000190  166		lw	$15, 0($7)
                           167	 #	    .ef
        03e00008 00000194  168		jr	$ra
        a1e00000 00000198  169		sb	$0, 0($15)

                                   Tue Apr 07 08:52:56 2015           Page 5
                                   Tue Apr 07 08:52:55 2015       gh_2i040.s
                           170		.type	GUI_AddDecShift,@function
                           171		.size	GUI_AddDecShift,.-GUI_AddDecShift
                           172		.align	4
                           173	 #c	$3	local
                           174	 #d	$2	local
                           175	
                           176	 #v	$4	param
                           177	 #Len	$5	param
                           178	 #Shift	$6	param
                           179	 #ps	$7	param
                           180	
                           181		.data
                           182	.L167:
                           183		.text
                           184		.align	4
                           185	 #GUI_DecChar	%sdaoff(GUI_DecChar)	import
                           186	
                           187		.section ".rodata","a"
                           188	.L199:
                           189		.globl	GUI_Pow10
        00000001 00000000  190	GUI_Pow10:	.byte	1,0,0,0
        0000000a 00000004  191		.byte	10,0,0,0
        00000064 00000008  192		.byte	100,0,0,0
        000003e8 0000000c  193		.byte	232,3,0,0
        00002710 00000010  194		.byte	16,39,0,0
        000186a0 00000014  195		.byte	160,134,1,0
        000f4240 00000018  196		.byte	64,66,15,0
        00989680 0000001c  197		.byte	128,150,152,0
        05f5e100 00000020  198		.byte	0,225,245,5
        3b9aca00 00000024  199		.byte	0,202,154,59
                           200		.type	GUI_Pow10,@object
                           201		.size	GUI_Pow10,40
                           202		.data
                           203		.section ".rodata","a"
                           204		.align	4
                           205		.text
