
                                   Tue Apr 07 08:55:42 2015           Page 1
                                   Tue Apr 07 08:55:41 2015       gh_2i07l.s
Command Line:   C:\GHS\V35\mips35\asmips.exe -noundefined -elf -b0
                -IC:\local\Workspace\DC_V04.01.00_int\cu3x1Platform_SRC\emWinColour
                -IC:\local\Workspace\DC_V04.01.00_int\cu3x1Platform_SRC\platform\include
                -IC:\local\Workspace\DC_V04.01.00_int\cu3x1Platform_SRC\platform\common
                -IC:\local\Workspace\DC_V04.01.00_int\cu3x1Platform_SRC\platform\hardware
                -IC:\local\Workspace\DC_V04.01.00_int\cu3x1Platform_SRC\platform\hardware\D3018X
                -IC:\local\Workspace\DC_V04.01.00_int\cu3x1Platform_SRC\embos\inc
                -IC:\local\Workspace\DC_V04.01.00_int\cu3x1Platform_SRC\emWinColour\config
                -IC:\local\Workspace\DC_V04.01.00_int\cu3x1Platform_SRC\emWinColour\gui\ConvertMono
                -IC:\local\Workspace\DC_V04.01.00_int\cu3x1Platform_SRC\emWinColour\gui\Core
                -IC:\local\Workspace\DC_V04.01.00_int\cu3x1Platform_SRC\emWinColour\gui\Font
                -IC:\local\Workspace\DC_V04.01.00_int\cu3x1Platform_SRC\emWinColour\gui\LCDDriver
                -IC:\local\Workspace\DC_V04.01.00_int\cu3x1Platform_SRC\emWinColour\gui\MemDev
                -IC:\local\Workspace\DC_V04.01.00_int\cu3x1Platform_SRC\emWinColour\gui\VNC
                -IC:\local\Workspace\DC_V04.01.00_int\cu3x1Platform_SRC\emWinColour\gui\Widget
                -IC:\local\Workspace\DC_V04.01.00_int\cu3x1Platform_SRC\emWinColour\gui\wm
                -IC:\local\Workspace\DC_V04.01.00_int\cu3x1App_SRC\Control\source
                -IC:\local\Workspace\DC_V04.01.00_int\cu3x1App_SRC\Control\source\include
                -IC:\local\Workspace\DC_V04.01.00_int\cu3x1App_SRC\Control\source\util
                -IC:\local\Workspace\DC_V04.01.00_int\cu3x1App_SRC\Control\source\datapoint
                -IC:\local\Workspace\DC_V04.01.00_int\cu3x1App_SRC\Control\source\factory
                -IC:\local\Workspace\DC_V04.01.00_int\cu3x1Platform_SRC\embos
                -IC:\local\Workspace\DC_V04.01.00_int\cu3x1Platform_SRC\emWinColour\gui\core
                -IC:\local\Workspace\DC_V04.01.00_int\cu3x1App_SRC\Control\source\rtip\webpage
                -IC:\local\Workspace\DC_V04.01.00_int\cu3x1App_SRC\Control\source\rtip\config
                -IC:\local\Workspace\DC_V04.01.00_int\cu3x1App_SRC\Control\source\rtip\xnet
                -IC:\local\Workspace\DC_V04.01.00_int\cu3x1App_SRC\Control\source\stub
                -IC:\local\Workspace\DC_V04.01.00_int\cu3x1App_SRC\Control\source\test
                -IC:\local\Workspace\DC_V04.01.00_int\cu3x1App_SRC\Control\source\GENIpro
                -IC:\local\Workspace\DC_V04.01.00_int\cu3x1App_SRC\Control\source\GENIpro\GENI_sys
                -IC:\local\Workspace\DC_V04.01.00_int\cu3x1App_SRC\Control\source\GENIpro\GENIusb\emUSB\USB\Driver
                -IC:\local\Workspace\DC_V04.01.00_int\cu3x1App_SRC\Control\source\application\intercom
                -IC:\local\Workspace\DC_V04.01.00_int\cu3x1App_SRC\Control\source\application\controller
                -IC:\local\Workspace\DC_V04.01.00_int\cu3x1App_SRC\Control\source\application\driver
                -IC:\local\Workspace\DC_V04.01.00_int\cu3x1App_SRC\Control\source\application\webif
                -IC:\local\Workspace\DC_V04.01.00_int\cu3x1App_SRC\Control\source\application\relay
                -IC:\local\Workspace\DC_V04.01.00_int\cu3x1App_SRC\Control\source\application\GENIApp
                -IC:\local\Workspace\DC_V04.01.00_int\cu3x1App_SRC\Control\source\application\alarm
                -IC:\local\Workspace\DC_V04.01.00_int\cu3x1App_SRC\Control\source\application\config
                -IC:\local\Workspace\DC_V04.01.00_int\cu3x1App_SRC\Control\source\application\AnaInConfigCtrl
                -IC:\local\Workspace\DC_V04.01.00_int\cu3x1App_SRC\Control\source\application\Sms
                -IC:\local\Workspace\DC_V04.01.00_int\cu3x1App_SRC\Control\source\application\display
                -IC:\local\Workspace\DC_V04.01.00_int\cu3x1App_SRC\Control\source\application\display\display_task
                -IC:\local\Workspace\DC_V04.01.00_int\cu3x1App_SRC\Control\source\application\display\gui_utility
                -IC:\local\Workspace\DC_V04.01.00_int\cu3x1App_SRC\Control\source\application\display\mpcunit
                -IC:\local\Workspace\DC_V04.01.00_int\cu3x1App_SRC\Control\source\GeniPro
                -IC:\local\Workspace\DC_V04.01.00_int\cu3x1App_SRC\Control\source\GeniPro\GENI_sys
                -IC:\local\Workspace\DC_V04.01.00_int\cu3x1App_SRC\Control\source\GeniPro\GENIbus
                -IC:\local\Workspace\DC_V04.01.00_int\cu3x1App_SRC\Control\source\GeniPro\GENIcom
                -IC:\local\Workspace\DC_V04.01.00_int\cu3x1App_SRC\Control\source\GeniPro\GENIrs232
                -IC:\local\Workspace\DC_V04.01.00_int\cu3x1App_SRC\Control\source\GeniPro\Virtual
                -IC:\local\Workspace\DC_V04.01.00_int\cu3x1Platform_SRC\Platform\common
                -IC:\local\Workspace\DC_V04.01.00_int\cu3x1Platform_SRC\Platform\hardware
                -IC:\local\Workspace\DC_V04.01.00_int\cu3x1Platform_SRC\Platform\hardware\D3018X
                -IC:\local\Workspace\DC_V04.01.00_int\cu3x1App_SRC\Control\source\application\display\imagesTFT
                -IC:\GHS\V35\mips35\mipsl_sf -r4121 -source=GUI_SetTextStyle.c -o
                objs\gh_2i07l.o -list=objs\GUI_SetTextStyle.lst
                C:\Users\55602\AppData\Local\Temp\gh_2i07l.s
Source File:    C:\Users\55602\AppData\Local\Temp\gh_2i07l.s
Directory:      C:\local\Workspace\DC_V04.01.00_int\cu3x1App_SRC\Control\source
Host OS:        GHS_WIN32
Version:        AS-MIPS 3.5#11 
Release:        MULTI 2000, MIPS v3.5
Revision Date:  Wed Feb 27 12:19:03 2002
Release Date:   Sat Mar 02 02:57:59 2002
                             1	 #Source File:   C:\local\Workspace\DC_V04.01.00_int\cu3x1Platform_SRC\emWinColour\GUI\Core\GUI_SetTextStyle.c

                                   Tue Apr 07 08:55:42 2015           Page 2
                                   Tue Apr 07 08:55:41 2015       gh_2i07l.s
                             2	 #Directory:     
                             3	 #		C:\local\Workspace\DC_V04.01.00_int\cu3x1App_SRC\Control\source
                             4	 #Compile Date:  Tue Apr 07 08:55:41 2015
                             5	 #Host OS:       Win32
                             6	 #Version:       C-MIPS 3.5#11 RELEASE VERSION
                             7	 #Release:       MULTI 2000, MIPS v3.5
                             8	 #Revision Date: Fri Mar 01 11:32:40 2002
                             9	 #Release Date:  Sat Mar 02 02:58:48 2002
                            10		.set	noat
                            11		.set	noreorder
                            12		.set	nomacro
                            13		.text
                            14		.align	4
                            15	GUI__cbDrawTextStyle:
        27bdffe8 00000000   16		addiu	$sp, $sp, -24
                            17	 #	    .bf
        afbf0014 00000004   18		sw	$ra, 20($sp)
        afb20008 00000008   19		sw	$18, 8($sp)
        3c010000 0000000c   20		lui	$1, %hi(GUI_Context+28)
        8c380000 00000010   21		lw	$24, %lo(GUI_Context+28)($1)
        afb10004 00000014   22		sw	$17, 4($sp)
        afb00000 00000018   23		sw	$16, 0($sp)
        8f180004 0000001c   24		lw	$24, 4($24)
        3c100000 00000020   25		lui	$16, %hi(GUI_Context)
        26100000 00000024   26		addiu	$16, $16, %lo(GUI_Context)
        86190026 00000028   27		lh	$25, 38($16)
        3084ffff 0000002c   28		andi	$4, $4, 65535
        0300f809 00000030   29		jalr	$24
        2731ffff 00000034   30		addiu	$17, $25, -1
        920e0012 00000038   31		lbu	$14, 18($16)
        02221823 0000003c   32		subu	$3, $17, $2
        24720001 00000040   33		addiu	$18, $3, 1
        31cf0001 00000044   34		andi	$15, $14, 1
        51e0000d 00000048   35		beql	$15, $0, .L1000004
        920e0012 0000004c   36		lbu	$14, 18($16)
        8e02001c 00000050   37		lw	$2, 28($16)
        9043001c 00000054   38		lbu	$3, 28($2)
        90420014 00000058   39		lbu	$2, 20($2)
        0062c82a 0000005c   40		slt	$25, $3, $2
        53200001 00000060   41		beql	$25, $0, .L6
        2443ffff 00000064   42		addiu	$3, $2, -1
                            43	.L6:
        86180028 00000068   44		lh	$24, 40($16)
        02402025 0000006c   45		move	$4, $18
        02203025 00000070   46		move	$6, $17
        0c000000 00000074   47		jal	LCD_DrawHLine
        03032821 00000078   48		addu	$5, $24, $3
        920e0012 0000007c   49		lbu	$14, 18($16)
                            50	.L1000004:
        31cf0002 00000080   51		andi	$15, $14, 2
        51e00010 00000084   52		beql	$15, $0, .L1000008
        920e0012 00000088   53		lbu	$14, 18($16)
        8e02001c 0000008c   54		lw	$2, 28($16)
        9059001e 00000090   55		lbu	$25, 30($2)
        02402025 00000094   56		move	$4, $18
        02203025 00000098   57		move	$6, $17

                                   Tue Apr 07 08:55:42 2015           Page 3
                                   Tue Apr 07 08:55:41 2015       gh_2i07l.s
        27230001 0000009c   58		addiu	$3, $25, 1
        0003c7c3 000000a0   59		sra	$24, $3, 31
        00187fc2 000000a4   60		srl	$15, $24, 31
        01e37021 000000a8   61		addu	$14, $15, $3
        9059001c 000000ac   62		lbu	$25, 28($2)
        86180028 000000b0   63		lh	$24, 40($16)
        000e6843 000000b4   64		sra	$13, $14, 1
        032d1823 000000b8   65		subu	$3, $25, $13
        0c000000 000000bc   66		jal	LCD_DrawHLine
        03032821 000000c0   67		addu	$5, $24, $3
        920e0012 000000c4   68		lbu	$14, 18($16)
                            69	.L1000008:
        31cf0004 000000c8   70		andi	$15, $14, 4
        51e0000e 000000cc   71		beql	$15, $0, .L1000002
        8fb20008 000000d0   72		lw	$18, 8($sp)
        8e03001c 000000d4   73		lw	$3, 28($16)
        9078001c 000000d8   74		lbu	$24, 28($3)
        906f001e 000000dc   75		lbu	$15, 30($3)
        030fc823 000000e0   76		subu	$25, $24, $15
        2723ffff 000000e4   77		addiu	$3, $25, -1
        04620001 000000e8   78		bltzl	$3, .L12
        34030000 000000ec   79		ori	$3, $0, 0
                            80	.L12:
        860d0028 000000f0   81		lh	$13, 40($16)
        02402025 000000f4   82		move	$4, $18
        02203025 000000f8   83		move	$6, $17
        0c000000 000000fc   84		jal	LCD_DrawHLine
        01a32821 00000100   85		addu	$5, $13, $3
        8fb20008 00000104   86		lw	$18, 8($sp)
                            87	.L1000002:
                            88	 #	    .ef
        8fb10004 00000108   89		lw	$17, 4($sp)
        8fbf0014 0000010c   90		lw	$ra, 20($sp)
        8fb00000 00000110   91		lw	$16, 0($sp)
        03e00008 00000114   92		jr	$ra
        27bd0018 00000118   93		addiu	$sp, $sp, 24
                            94		.type	GUI__cbDrawTextStyle,@function
                            95		.size	GUI__cbDrawTextStyle,.-GUI__cbDrawTextStyle
                            96		.align	4
                            97	 #x0	$18	local
                            98	 #x1	$17	local
                            99	 #yOff	$3	local
                           100	 #yOff	$3	local
                           101	 #yOff	$3	local
                           102	
                           103	 #Char	$4	param
                           104	
                           105		.data
                           106	.L52:
                           107		.text
                           108		.align	4
                           109		.align	4
                           110		.globl	GUI_SetTextStyle
                           111	GUI_SetTextStyle:
        27bdfff0 0000011c  112		addiu	$sp, $sp, -16
        afbf000c 00000120  113		sw	$ra, 12($sp)

                                   Tue Apr 07 08:55:42 2015           Page 4
                                   Tue Apr 07 08:55:41 2015       gh_2i07l.s
        afb10004 00000124  114		sw	$17, 4($sp)
        afb00000 00000128  115		sw	$16, 0($sp)
                           116	 #	    .bf
        0c000000 0000012c  117		jal	GUI_Lock
        00808025 00000130  118		move	$16, $4
        3c030000 00000134  119		lui	$3, %hi(GUI_Context+18)
        80710000 00000138  120		lb	$17, %lo(GUI_Context+18)($3)
        3c190000 0000013c  121		lui	$25, %hi(GUI__cbDrawTextStyle)
        27390000 00000140  122		addiu	$25, $25, %lo(GUI__cbDrawTextStyle)
        af990000 00000144  123		sw	$25, %sdaoff(GUI_pfDispCharStyle)($28)
        0c000000 00000148  124		jal	GUI_Unlock
        a0700000 0000014c  125		sb	$16, %lo(GUI_Context+18)($3)
                           126	 #	    .ef
        02201025 00000150  127		move	$2, $17
        8fbf000c 00000154  128		lw	$ra, 12($sp)
        8fb00000 00000158  129		lw	$16, 0($sp)
        8fb10004 0000015c  130		lw	$17, 4($sp)
        03e00008 00000160  131		jr	$ra
        27bd0010 00000164  132		addiu	$sp, $sp, 16
                           133		.type	GUI_SetTextStyle,@function
                           134		.size	GUI_SetTextStyle,.-GUI_SetTextStyle
                           135		.align	4
                           136	
                           137	 #Style	$16	param
                           138	
                           139		.data
                           140	.L93:
                           141		.text
                           142		.align	4
                           143	 #GUI_Context	GUI_Context	import
                           144	 #GUI_pfDispCharStyle	%sdaoff(GUI_pfDispCharStyle)	import
                           145	
                           146		.data
                           147		.text
