
                                   Tue Apr 07 08:55:45 2015           Page 1
                                   Tue Apr 07 08:55:44 2015       gh_2i07n.s
Command Line:   C:\GHS\V35\mips35\asmips.exe -noundefined -elf -b0
                -IC:\local\Workspace\DC_V04.01.00_int\cu3x1Platform_SRC\emWinColour
                -IC:\local\Workspace\DC_V04.01.00_int\cu3x1Platform_SRC\platform\include
                -IC:\local\Workspace\DC_V04.01.00_int\cu3x1Platform_SRC\platform\common
                -IC:\local\Workspace\DC_V04.01.00_int\cu3x1Platform_SRC\platform\hardware
                -IC:\local\Workspace\DC_V04.01.00_int\cu3x1Platform_SRC\platform\hardware\D3018X
                -IC:\local\Workspace\DC_V04.01.00_int\cu3x1Platform_SRC\embos\inc
                -IC:\local\Workspace\DC_V04.01.00_int\cu3x1Platform_SRC\emWinColour\config
                -IC:\local\Workspace\DC_V04.01.00_int\cu3x1Platform_SRC\emWinColour\gui\ConvertMono
                -IC:\local\Workspace\DC_V04.01.00_int\cu3x1Platform_SRC\emWinColour\gui\Core
                -IC:\local\Workspace\DC_V04.01.00_int\cu3x1Platform_SRC\emWinColour\gui\Font
                -IC:\local\Workspace\DC_V04.01.00_int\cu3x1Platform_SRC\emWinColour\gui\LCDDriver
                -IC:\local\Workspace\DC_V04.01.00_int\cu3x1Platform_SRC\emWinColour\gui\MemDev
                -IC:\local\Workspace\DC_V04.01.00_int\cu3x1Platform_SRC\emWinColour\gui\VNC
                -IC:\local\Workspace\DC_V04.01.00_int\cu3x1Platform_SRC\emWinColour\gui\Widget
                -IC:\local\Workspace\DC_V04.01.00_int\cu3x1Platform_SRC\emWinColour\gui\wm
                -IC:\local\Workspace\DC_V04.01.00_int\cu3x1App_SRC\Control\source
                -IC:\local\Workspace\DC_V04.01.00_int\cu3x1App_SRC\Control\source\include
                -IC:\local\Workspace\DC_V04.01.00_int\cu3x1App_SRC\Control\source\util
                -IC:\local\Workspace\DC_V04.01.00_int\cu3x1App_SRC\Control\source\datapoint
                -IC:\local\Workspace\DC_V04.01.00_int\cu3x1App_SRC\Control\source\factory
                -IC:\local\Workspace\DC_V04.01.00_int\cu3x1Platform_SRC\embos
                -IC:\local\Workspace\DC_V04.01.00_int\cu3x1Platform_SRC\emWinColour\gui\core
                -IC:\local\Workspace\DC_V04.01.00_int\cu3x1App_SRC\Control\source\rtip\webpage
                -IC:\local\Workspace\DC_V04.01.00_int\cu3x1App_SRC\Control\source\rtip\config
                -IC:\local\Workspace\DC_V04.01.00_int\cu3x1App_SRC\Control\source\rtip\xnet
                -IC:\local\Workspace\DC_V04.01.00_int\cu3x1App_SRC\Control\source\stub
                -IC:\local\Workspace\DC_V04.01.00_int\cu3x1App_SRC\Control\source\test
                -IC:\local\Workspace\DC_V04.01.00_int\cu3x1App_SRC\Control\source\GENIpro
                -IC:\local\Workspace\DC_V04.01.00_int\cu3x1App_SRC\Control\source\GENIpro\GENI_sys
                -IC:\local\Workspace\DC_V04.01.00_int\cu3x1App_SRC\Control\source\GENIpro\GENIusb\emUSB\USB\Driver
                -IC:\local\Workspace\DC_V04.01.00_int\cu3x1App_SRC\Control\source\application\intercom
                -IC:\local\Workspace\DC_V04.01.00_int\cu3x1App_SRC\Control\source\application\controller
                -IC:\local\Workspace\DC_V04.01.00_int\cu3x1App_SRC\Control\source\application\driver
                -IC:\local\Workspace\DC_V04.01.00_int\cu3x1App_SRC\Control\source\application\webif
                -IC:\local\Workspace\DC_V04.01.00_int\cu3x1App_SRC\Control\source\application\relay
                -IC:\local\Workspace\DC_V04.01.00_int\cu3x1App_SRC\Control\source\application\GENIApp
                -IC:\local\Workspace\DC_V04.01.00_int\cu3x1App_SRC\Control\source\application\alarm
                -IC:\local\Workspace\DC_V04.01.00_int\cu3x1App_SRC\Control\source\application\config
                -IC:\local\Workspace\DC_V04.01.00_int\cu3x1App_SRC\Control\source\application\AnaInConfigCtrl
                -IC:\local\Workspace\DC_V04.01.00_int\cu3x1App_SRC\Control\source\application\Sms
                -IC:\local\Workspace\DC_V04.01.00_int\cu3x1App_SRC\Control\source\application\display
                -IC:\local\Workspace\DC_V04.01.00_int\cu3x1App_SRC\Control\source\application\display\display_task
                -IC:\local\Workspace\DC_V04.01.00_int\cu3x1App_SRC\Control\source\application\display\gui_utility
                -IC:\local\Workspace\DC_V04.01.00_int\cu3x1App_SRC\Control\source\application\display\mpcunit
                -IC:\local\Workspace\DC_V04.01.00_int\cu3x1App_SRC\Control\source\GeniPro
                -IC:\local\Workspace\DC_V04.01.00_int\cu3x1App_SRC\Control\source\GeniPro\GENI_sys
                -IC:\local\Workspace\DC_V04.01.00_int\cu3x1App_SRC\Control\source\GeniPro\GENIbus
                -IC:\local\Workspace\DC_V04.01.00_int\cu3x1App_SRC\Control\source\GeniPro\GENIcom
                -IC:\local\Workspace\DC_V04.01.00_int\cu3x1App_SRC\Control\source\GeniPro\GENIrs232
                -IC:\local\Workspace\DC_V04.01.00_int\cu3x1App_SRC\Control\source\GeniPro\Virtual
                -IC:\local\Workspace\DC_V04.01.00_int\cu3x1Platform_SRC\Platform\common
                -IC:\local\Workspace\DC_V04.01.00_int\cu3x1Platform_SRC\Platform\hardware
                -IC:\local\Workspace\DC_V04.01.00_int\cu3x1Platform_SRC\Platform\hardware\D3018X
                -IC:\local\Workspace\DC_V04.01.00_int\cu3x1App_SRC\Control\source\application\display\imagesTFT
                -IC:\GHS\V35\mips35\mipsl_sf -r4121 -source=GUI_SIF_Prop.c -o
                objs\gh_2i07n.o -list=objs\GUI_SIF_Prop.lst
                C:\Users\55602\AppData\Local\Temp\gh_2i07n.s
Source File:    C:\Users\55602\AppData\Local\Temp\gh_2i07n.s
Directory:      C:\local\Workspace\DC_V04.01.00_int\cu3x1App_SRC\Control\source
Host OS:        GHS_WIN32
Version:        AS-MIPS 3.5#11 
Release:        MULTI 2000, MIPS v3.5
Revision Date:  Wed Feb 27 12:19:03 2002
Release Date:   Sat Mar 02 02:57:59 2002
                             1	 #Source File:   C:\local\Workspace\DC_V04.01.00_int\cu3x1Platform_SRC\emWinColour\GUI\Core\GUI_SIF_Prop.c

                                   Tue Apr 07 08:55:45 2015           Page 2
                                   Tue Apr 07 08:55:44 2015       gh_2i07n.s
                             2	 #Directory:     
                             3	 #		C:\local\Workspace\DC_V04.01.00_int\cu3x1App_SRC\Control\source
                             4	 #Compile Date:  Tue Apr 07 08:55:44 2015
                             5	 #Host OS:       Win32
                             6	 #Version:       C-MIPS 3.5#11 RELEASE VERSION
                             7	 #Release:       MULTI 2000, MIPS v3.5
                             8	 #Revision Date: Fri Mar 01 11:32:40 2002
                             9	 #Release Date:  Sat Mar 02 02:58:48 2002
                            10		.set	noat
                            11		.set	noreorder
                            12		.set	nomacro
                            13		.text
                            14		.align	4
                            15	_GetpCharInfo:
        27bdffd0 00000000   16		addiu	$sp, $sp, -48
        afbf002c 00000004   17		sw	$ra, 44($sp)
        afb60018 00000008   18		sw	$22, 24($sp)
        afb50014 0000000c   19		sw	$21, 20($sp)
        afb40010 00000010   20		sw	$20, 16($sp)
        afb3000c 00000014   21		sw	$19, 12($sp)
        afb20008 00000018   22		sw	$18, 8($sp)
        afb10004 0000001c   23		sw	$17, 4($sp)
        afb00000 00000020   24		sw	$16, 0($sp)
        00808025 00000024   25		move	$16, $4
                            26	 #	    .bf
        8e180018 00000028   27		lw	$24, 24($16)
        30b1ffff 0000002c   28		andi	$17, $5, 65535
        27a40024 00000030   29		addiu	$4, $sp, 36
        2719000e 00000034   30		addiu	$25, $24, 14
        0c000000 00000038   31		jal	GUI__Read16
        afb90024 0000003c   32		sw	$25, 36($sp)
        8e030018 00000040   33		lw	$3, 24($16)
        0040a825 00000044   34		move	$21, $2
        00157080 00000048   35		sll	$14, $21, 2
        006e6821 0000004c   36		addu	$13, $3, $14
        25b20010 00000050   37		addiu	$18, $13, 16
        246f0010 00000054   38		addiu	$15, $3, 16
        02a0b025 00000058   39		move	$22, $21
        0016a0c2 0000005c   40		srl	$20, $22, 3
        12800135 00000060   41		beq	$20, $0, .L40
        afaf0020 00000064   42		sw	$15, 32($sp)
        27b30020 00000068   43		addiu	$19, $sp, 32
                            44	.L41:
        0c000000 0000006c   45		jal	GUI__Read16
        02602025 00000070   46		move	$4, $19
        3c0cffff 00000074   47		lui	$12, 65535
        020c8024 00000078   48		and	$16, $16, $12
        02028025 0000007c   49		or	$16, $16, $2
        0c000000 00000080   50		jal	GUI__Read16
        02602025 00000084   51		move	$4, $19
        3219ffff 00000088   52		andi	$25, $16, 65535
        00021c00 0000008c   53		sll	$3, $2, 16
        03238025 00000090   54		or	$16, $25, $3
        3203ffff 00000094   55		andi	$3, $16, 65535
        0223702b 00000098   56		sltu	$14, $17, $3
        15c00012 0000009c   57		bne	$14, $0, .L45

                                   Tue Apr 07 08:55:45 2015           Page 3
                                   Tue Apr 07 08:55:44 2015       gh_2i07n.s
        00106c02 000000a0   58		srl	$13, $16, 16
        01b1c02b 000000a4   59		sltu	$24, $13, $17
        1700000f 000000a8   60		bne	$24, $0, .L45
        02237823 000000ac   61		subu	$15, $17, $3
        000f6880 000000b0   62		sll	$13, $15, 2
        01af7023 000000b4   63		subu	$14, $13, $15
        000e7080 000000b8   64		sll	$14, $14, 2
        024e1021 000000bc   65		addu	$2, $18, $14
        8fb40010 000000c0   66		lw	$20, 16($sp)
        8fb3000c 000000c4   67		lw	$19, 12($sp)
        8fb20008 000000c8   68		lw	$18, 8($sp)
        8fb10004 000000cc   69		lw	$17, 4($sp)
        8fb00000 000000d0   70		lw	$16, 0($sp)
        8fbf002c 000000d4   71		lw	$ra, 44($sp)
        8fb50014 000000d8   72		lw	$21, 20($sp)
        8fb60018 000000dc   73		lw	$22, 24($sp)
        03e00008 000000e0   74		jr	$ra
        27bd0030 000000e4   75		addiu	$sp, $sp, 48
                            76	.L45:
        0010cc02 000000e8   77		srl	$25, $16, 16
        03237823 000000ec   78		subu	$15, $25, $3
        25ee0001 000000f0   79		addiu	$14, $15, 1
        000ec880 000000f4   80		sll	$25, $14, 2
        032e6823 000000f8   81		subu	$13, $25, $14
        000d6880 000000fc   82		sll	$13, $13, 2
        024d9021 00000100   83		addu	$18, $18, $13
        0c000000 00000104   84		jal	GUI__Read16
        02602025 00000108   85		move	$4, $19
        3c0cffff 0000010c   86		lui	$12, 65535
        020c8024 00000110   87		and	$16, $16, $12
        02028025 00000114   88		or	$16, $16, $2
        0c000000 00000118   89		jal	GUI__Read16
        02602025 0000011c   90		move	$4, $19
        3219ffff 00000120   91		andi	$25, $16, 65535
        00021c00 00000124   92		sll	$3, $2, 16
        03238025 00000128   93		or	$16, $25, $3
        3203ffff 0000012c   94		andi	$3, $16, 65535
        0223702b 00000130   95		sltu	$14, $17, $3
        15c00012 00000134   96		bne	$14, $0, .L49
        00106c02 00000138   97		srl	$13, $16, 16
        01b1c02b 0000013c   98		sltu	$24, $13, $17
        1700000f 00000140   99		bne	$24, $0, .L49
        02237823 00000144  100		subu	$15, $17, $3
        000f6880 00000148  101		sll	$13, $15, 2
        01af7023 0000014c  102		subu	$14, $13, $15
        000e7080 00000150  103		sll	$14, $14, 2
        024e1021 00000154  104		addu	$2, $18, $14
        8fb40010 00000158  105		lw	$20, 16($sp)
        8fb3000c 0000015c  106		lw	$19, 12($sp)
        8fb20008 00000160  107		lw	$18, 8($sp)
        8fb10004 00000164  108		lw	$17, 4($sp)
        8fb00000 00000168  109		lw	$16, 0($sp)
        8fbf002c 0000016c  110		lw	$ra, 44($sp)
        8fb50014 00000170  111		lw	$21, 20($sp)
        8fb60018 00000174  112		lw	$22, 24($sp)
        03e00008 00000178  113		jr	$ra

                                   Tue Apr 07 08:55:45 2015           Page 4
                                   Tue Apr 07 08:55:44 2015       gh_2i07n.s
        27bd0030 0000017c  114		addiu	$sp, $sp, 48
                           115	.L49:
        0010cc02 00000180  116		srl	$25, $16, 16
        03237823 00000184  117		subu	$15, $25, $3
        25ee0001 00000188  118		addiu	$14, $15, 1
        000ec880 0000018c  119		sll	$25, $14, 2
        032e6823 00000190  120		subu	$13, $25, $14
        000d6880 00000194  121		sll	$13, $13, 2
        024d9021 00000198  122		addu	$18, $18, $13
        0c000000 0000019c  123		jal	GUI__Read16
        02602025 000001a0  124		move	$4, $19
        3c0cffff 000001a4  125		lui	$12, 65535
        020c8024 000001a8  126		and	$16, $16, $12
        02028025 000001ac  127		or	$16, $16, $2
        0c000000 000001b0  128		jal	GUI__Read16
        02602025 000001b4  129		move	$4, $19
        3219ffff 000001b8  130		andi	$25, $16, 65535
        00021c00 000001bc  131		sll	$3, $2, 16
        03238025 000001c0  132		or	$16, $25, $3
        3203ffff 000001c4  133		andi	$3, $16, 65535
        0223702b 000001c8  134		sltu	$14, $17, $3
        15c00012 000001cc  135		bne	$14, $0, .L53
        00106c02 000001d0  136		srl	$13, $16, 16
        01b1c02b 000001d4  137		sltu	$24, $13, $17
        1700000f 000001d8  138		bne	$24, $0, .L53
        02237823 000001dc  139		subu	$15, $17, $3
        000f6880 000001e0  140		sll	$13, $15, 2
        01af7023 000001e4  141		subu	$14, $13, $15
        000e7080 000001e8  142		sll	$14, $14, 2
        024e1021 000001ec  143		addu	$2, $18, $14
        8fb40010 000001f0  144		lw	$20, 16($sp)
        8fb3000c 000001f4  145		lw	$19, 12($sp)
        8fb20008 000001f8  146		lw	$18, 8($sp)
        8fb10004 000001fc  147		lw	$17, 4($sp)
        8fb00000 00000200  148		lw	$16, 0($sp)
        8fbf002c 00000204  149		lw	$ra, 44($sp)
        8fb50014 00000208  150		lw	$21, 20($sp)
        8fb60018 0000020c  151		lw	$22, 24($sp)
        03e00008 00000210  152		jr	$ra
        27bd0030 00000214  153		addiu	$sp, $sp, 48
                           154	.L53:
        0010cc02 00000218  155		srl	$25, $16, 16
        03237823 0000021c  156		subu	$15, $25, $3
        25ee0001 00000220  157		addiu	$14, $15, 1
        000ec880 00000224  158		sll	$25, $14, 2
        032e6823 00000228  159		subu	$13, $25, $14
        000d6880 0000022c  160		sll	$13, $13, 2
        024d9021 00000230  161		addu	$18, $18, $13
        0c000000 00000234  162		jal	GUI__Read16
        02602025 00000238  163		move	$4, $19
        3c0cffff 0000023c  164		lui	$12, 65535
        020c8024 00000240  165		and	$16, $16, $12
        02028025 00000244  166		or	$16, $16, $2
        0c000000 00000248  167		jal	GUI__Read16
        02602025 0000024c  168		move	$4, $19
        3219ffff 00000250  169		andi	$25, $16, 65535

                                   Tue Apr 07 08:55:45 2015           Page 5
                                   Tue Apr 07 08:55:44 2015       gh_2i07n.s
        00021c00 00000254  170		sll	$3, $2, 16
        03238025 00000258  171		or	$16, $25, $3
        3203ffff 0000025c  172		andi	$3, $16, 65535
        0223702b 00000260  173		sltu	$14, $17, $3
        15c00012 00000264  174		bne	$14, $0, .L57
        00106c02 00000268  175		srl	$13, $16, 16
        01b1c02b 0000026c  176		sltu	$24, $13, $17
        1700000f 00000270  177		bne	$24, $0, .L57
        02237823 00000274  178		subu	$15, $17, $3
        000f6880 00000278  179		sll	$13, $15, 2
        01af7023 0000027c  180		subu	$14, $13, $15
        000e7080 00000280  181		sll	$14, $14, 2
        024e1021 00000284  182		addu	$2, $18, $14
        8fb40010 00000288  183		lw	$20, 16($sp)
        8fb3000c 0000028c  184		lw	$19, 12($sp)
        8fb20008 00000290  185		lw	$18, 8($sp)
        8fb10004 00000294  186		lw	$17, 4($sp)
        8fb00000 00000298  187		lw	$16, 0($sp)
        8fbf002c 0000029c  188		lw	$ra, 44($sp)
        8fb50014 000002a0  189		lw	$21, 20($sp)
        8fb60018 000002a4  190		lw	$22, 24($sp)
        03e00008 000002a8  191		jr	$ra
        27bd0030 000002ac  192		addiu	$sp, $sp, 48
                           193	.L57:
        0010cc02 000002b0  194		srl	$25, $16, 16
        03237823 000002b4  195		subu	$15, $25, $3
        25ee0001 000002b8  196		addiu	$14, $15, 1
        000ec880 000002bc  197		sll	$25, $14, 2
        032e6823 000002c0  198		subu	$13, $25, $14
        000d6880 000002c4  199		sll	$13, $13, 2
        024d9021 000002c8  200		addu	$18, $18, $13
        0c000000 000002cc  201		jal	GUI__Read16
        02602025 000002d0  202		move	$4, $19
        3c0cffff 000002d4  203		lui	$12, 65535
        020c8024 000002d8  204		and	$16, $16, $12
        02028025 000002dc  205		or	$16, $16, $2
        0c000000 000002e0  206		jal	GUI__Read16
        02602025 000002e4  207		move	$4, $19
        3219ffff 000002e8  208		andi	$25, $16, 65535
        00021c00 000002ec  209		sll	$3, $2, 16
        03238025 000002f0  210		or	$16, $25, $3
        3203ffff 000002f4  211		andi	$3, $16, 65535
        0223702b 000002f8  212		sltu	$14, $17, $3
        15c00012 000002fc  213		bne	$14, $0, .L61
        00106c02 00000300  214		srl	$13, $16, 16
        01b1c02b 00000304  215		sltu	$24, $13, $17
        1700000f 00000308  216		bne	$24, $0, .L61
        02237823 0000030c  217		subu	$15, $17, $3
        000f6880 00000310  218		sll	$13, $15, 2
        01af7023 00000314  219		subu	$14, $13, $15
        000e7080 00000318  220		sll	$14, $14, 2
        024e1021 0000031c  221		addu	$2, $18, $14
        8fb40010 00000320  222		lw	$20, 16($sp)
        8fb3000c 00000324  223		lw	$19, 12($sp)
        8fb20008 00000328  224		lw	$18, 8($sp)
        8fb10004 0000032c  225		lw	$17, 4($sp)

                                   Tue Apr 07 08:55:45 2015           Page 6
                                   Tue Apr 07 08:55:44 2015       gh_2i07n.s
        8fb00000 00000330  226		lw	$16, 0($sp)
        8fbf002c 00000334  227		lw	$ra, 44($sp)
        8fb50014 00000338  228		lw	$21, 20($sp)
        8fb60018 0000033c  229		lw	$22, 24($sp)
        03e00008 00000340  230		jr	$ra
        27bd0030 00000344  231		addiu	$sp, $sp, 48
                           232	.L61:
        0010cc02 00000348  233		srl	$25, $16, 16
        03237823 0000034c  234		subu	$15, $25, $3
        25ee0001 00000350  235		addiu	$14, $15, 1
        000ec880 00000354  236		sll	$25, $14, 2
        032e6823 00000358  237		subu	$13, $25, $14
        000d6880 0000035c  238		sll	$13, $13, 2
        024d9021 00000360  239		addu	$18, $18, $13
        0c000000 00000364  240		jal	GUI__Read16
        02602025 00000368  241		move	$4, $19
        3c0cffff 0000036c  242		lui	$12, 65535
        020c8024 00000370  243		and	$16, $16, $12
        02028025 00000374  244		or	$16, $16, $2
        0c000000 00000378  245		jal	GUI__Read16
        02602025 0000037c  246		move	$4, $19
        3219ffff 00000380  247		andi	$25, $16, 65535
        00021c00 00000384  248		sll	$3, $2, 16
        03238025 00000388  249		or	$16, $25, $3
        3203ffff 0000038c  250		andi	$3, $16, 65535
        0223702b 00000390  251		sltu	$14, $17, $3
        15c00012 00000394  252		bne	$14, $0, .L65
        00106c02 00000398  253		srl	$13, $16, 16
        01b1c02b 0000039c  254		sltu	$24, $13, $17
        1700000f 000003a0  255		bne	$24, $0, .L65
        02237823 000003a4  256		subu	$15, $17, $3
        000f6880 000003a8  257		sll	$13, $15, 2
        01af7023 000003ac  258		subu	$14, $13, $15
        000e7080 000003b0  259		sll	$14, $14, 2
        024e1021 000003b4  260		addu	$2, $18, $14
        8fb40010 000003b8  261		lw	$20, 16($sp)
        8fb3000c 000003bc  262		lw	$19, 12($sp)
        8fb20008 000003c0  263		lw	$18, 8($sp)
        8fb10004 000003c4  264		lw	$17, 4($sp)
        8fb00000 000003c8  265		lw	$16, 0($sp)
        8fbf002c 000003cc  266		lw	$ra, 44($sp)
        8fb50014 000003d0  267		lw	$21, 20($sp)
        8fb60018 000003d4  268		lw	$22, 24($sp)
        03e00008 000003d8  269		jr	$ra
        27bd0030 000003dc  270		addiu	$sp, $sp, 48
                           271	.L65:
        0010cc02 000003e0  272		srl	$25, $16, 16
        03237823 000003e4  273		subu	$15, $25, $3
        25ee0001 000003e8  274		addiu	$14, $15, 1
        000ec880 000003ec  275		sll	$25, $14, 2
        032e6823 000003f0  276		subu	$13, $25, $14
        000d6880 000003f4  277		sll	$13, $13, 2
        024d9021 000003f8  278		addu	$18, $18, $13
        0c000000 000003fc  279		jal	GUI__Read16
        02602025 00000400  280		move	$4, $19
        3c0cffff 00000404  281		lui	$12, 65535

                                   Tue Apr 07 08:55:45 2015           Page 7
                                   Tue Apr 07 08:55:44 2015       gh_2i07n.s
        020c8024 00000408  282		and	$16, $16, $12
        02028025 0000040c  283		or	$16, $16, $2
        0c000000 00000410  284		jal	GUI__Read16
        02602025 00000414  285		move	$4, $19
        3219ffff 00000418  286		andi	$25, $16, 65535
        00021c00 0000041c  287		sll	$3, $2, 16
        03238025 00000420  288		or	$16, $25, $3
        3203ffff 00000424  289		andi	$3, $16, 65535
        0223702b 00000428  290		sltu	$14, $17, $3
        15c00012 0000042c  291		bne	$14, $0, .L69
        00106c02 00000430  292		srl	$13, $16, 16
        01b1c02b 00000434  293		sltu	$24, $13, $17
        1700000f 00000438  294		bne	$24, $0, .L69
        02237823 0000043c  295		subu	$15, $17, $3
        000f6880 00000440  296		sll	$13, $15, 2
        01af7023 00000444  297		subu	$14, $13, $15
        000e7080 00000448  298		sll	$14, $14, 2
        024e1021 0000044c  299		addu	$2, $18, $14
        8fb40010 00000450  300		lw	$20, 16($sp)
        8fb3000c 00000454  301		lw	$19, 12($sp)
        8fb20008 00000458  302		lw	$18, 8($sp)
        8fb10004 0000045c  303		lw	$17, 4($sp)
        8fb00000 00000460  304		lw	$16, 0($sp)
        8fbf002c 00000464  305		lw	$ra, 44($sp)
        8fb50014 00000468  306		lw	$21, 20($sp)
        8fb60018 0000046c  307		lw	$22, 24($sp)
        03e00008 00000470  308		jr	$ra
        27bd0030 00000474  309		addiu	$sp, $sp, 48
                           310	.L69:
        0010cc02 00000478  311		srl	$25, $16, 16
        03237823 0000047c  312		subu	$15, $25, $3
        25ee0001 00000480  313		addiu	$14, $15, 1
        000ec880 00000484  314		sll	$25, $14, 2
        032e6823 00000488  315		subu	$13, $25, $14
        000d6880 0000048c  316		sll	$13, $13, 2
        024d9021 00000490  317		addu	$18, $18, $13
        0c000000 00000494  318		jal	GUI__Read16
        02602025 00000498  319		move	$4, $19
        3c0cffff 0000049c  320		lui	$12, 65535
        020c8024 000004a0  321		and	$16, $16, $12
        02028025 000004a4  322		or	$16, $16, $2
        0c000000 000004a8  323		jal	GUI__Read16
        02602025 000004ac  324		move	$4, $19
        3219ffff 000004b0  325		andi	$25, $16, 65535
        00021c00 000004b4  326		sll	$3, $2, 16
        03238025 000004b8  327		or	$16, $25, $3
        3203ffff 000004bc  328		andi	$3, $16, 65535
        0223702b 000004c0  329		sltu	$14, $17, $3
        15c00012 000004c4  330		bne	$14, $0, .L72
        00106c02 000004c8  331		srl	$13, $16, 16
        01b1c02b 000004cc  332		sltu	$24, $13, $17
        1700000f 000004d0  333		bne	$24, $0, .L72
        02237823 000004d4  334		subu	$15, $17, $3
        000f6880 000004d8  335		sll	$13, $15, 2
        01af7023 000004dc  336		subu	$14, $13, $15
        000e7080 000004e0  337		sll	$14, $14, 2

                                   Tue Apr 07 08:55:45 2015           Page 8
                                   Tue Apr 07 08:55:44 2015       gh_2i07n.s
        024e1021 000004e4  338		addu	$2, $18, $14
        8fb40010 000004e8  339		lw	$20, 16($sp)
        8fb3000c 000004ec  340		lw	$19, 12($sp)
        8fb20008 000004f0  341		lw	$18, 8($sp)
        8fb10004 000004f4  342		lw	$17, 4($sp)
        8fb00000 000004f8  343		lw	$16, 0($sp)
        8fbf002c 000004fc  344		lw	$ra, 44($sp)
        8fb50014 00000500  345		lw	$21, 20($sp)
        8fb60018 00000504  346		lw	$22, 24($sp)
        03e00008 00000508  347		jr	$ra
        27bd0030 0000050c  348		addiu	$sp, $sp, 48
                           349	.L72:
        26b5fff8 00000510  350		addiu	$21, $21, -8
        0010cc02 00000514  351		srl	$25, $16, 16
        03237823 00000518  352		subu	$15, $25, $3
        25ee0001 0000051c  353		addiu	$14, $15, 1
        000ec880 00000520  354		sll	$25, $14, 2
        032e6823 00000524  355		subu	$13, $25, $14
        000d6880 00000528  356		sll	$13, $13, 2
        2694ffff 0000052c  357		addiu	$20, $20, -1
        1680fece 00000530  358		bne	$20, $0, .L41
        024d9021 00000534  359		addu	$18, $18, $13
                           360	.L40:
        32d40007 00000538  361		andi	$20, $22, 7
        1280002a 0000053c  362		beq	$20, $0, .L15
        27b30020 00000540  363		addiu	$19, $sp, 32
                           364	.L75:
        0c000000 00000544  365		jal	GUI__Read16
        02602025 00000548  366		move	$4, $19
        3c0cffff 0000054c  367		lui	$12, 65535
        020c8024 00000550  368		and	$16, $16, $12
        02028025 00000554  369		or	$16, $16, $2
        0c000000 00000558  370		jal	GUI__Read16
        02602025 0000055c  371		move	$4, $19
        3219ffff 00000560  372		andi	$25, $16, 65535
        00021c00 00000564  373		sll	$3, $2, 16
        03238025 00000568  374		or	$16, $25, $3
        3203ffff 0000056c  375		andi	$3, $16, 65535
        0223c82b 00000570  376		sltu	$25, $17, $3
        17200012 00000574  377		bne	$25, $0, .L78
        0010c402 00000578  378		srl	$24, $16, 16
        0311702b 0000057c  379		sltu	$14, $24, $17
        15c0000f 00000580  380		bne	$14, $0, .L78
        02236823 00000584  381		subu	$13, $17, $3
        000dc080 00000588  382		sll	$24, $13, 2
        030dc823 0000058c  383		subu	$25, $24, $13
        0019c880 00000590  384		sll	$25, $25, 2
        02591021 00000594  385		addu	$2, $18, $25
        8fb40010 00000598  386		lw	$20, 16($sp)
        8fb3000c 0000059c  387		lw	$19, 12($sp)
        8fb20008 000005a0  388		lw	$18, 8($sp)
        8fb10004 000005a4  389		lw	$17, 4($sp)
        8fb00000 000005a8  390		lw	$16, 0($sp)
        8fbf002c 000005ac  391		lw	$ra, 44($sp)
        8fb50014 000005b0  392		lw	$21, 20($sp)
        8fb60018 000005b4  393		lw	$22, 24($sp)

                                   Tue Apr 07 08:55:45 2015           Page 9
                                   Tue Apr 07 08:55:44 2015       gh_2i07n.s
        03e00008 000005b8  394		jr	$ra
        27bd0030 000005bc  395		addiu	$sp, $sp, 48
                           396	.L78:
        26b5ffff 000005c0  397		addiu	$21, $21, -1
        00107c02 000005c4  398		srl	$15, $16, 16
        01e36823 000005c8  399		subu	$13, $15, $3
        25b90001 000005cc  400		addiu	$25, $13, 1
        00197880 000005d0  401		sll	$15, $25, 2
        01f9c023 000005d4  402		subu	$24, $15, $25
        0018c080 000005d8  403		sll	$24, $24, 2
        2694ffff 000005dc  404		addiu	$20, $20, -1
        1680ffd8 000005e0  405		bne	$20, $0, .L75
        02589021 000005e4  406		addu	$18, $18, $24
                           407	.L15:
        8fb60018 000005e8  408		lw	$22, 24($sp)
                           409	 #	    .ef
        8fb50014 000005ec  410		lw	$21, 20($sp)
        8fbf002c 000005f0  411		lw	$ra, 44($sp)
        8fb00000 000005f4  412		lw	$16, 0($sp)
        8fb10004 000005f8  413		lw	$17, 4($sp)
        8fb20008 000005fc  414		lw	$18, 8($sp)
        8fb3000c 00000600  415		lw	$19, 12($sp)
        8fb40010 00000604  416		lw	$20, 16($sp)
        27bd0030 00000608  417		addiu	$sp, $sp, 48
        03e00008 0000060c  418		jr	$ra
        34020000 00000610  419		ori	$2, $0, 0
                           420		.type	_GetpCharInfo,@function
                           421		.size	_GetpCharInfo,.-_GetpCharInfo
                           422		.align	4
                           423	 #pCharArea	32($sp)	local
                           424	 #pCharInfo	$18	local
                           425	 #NumCharAreas	$21	local
                           426	 #pData	36($sp)	local
                           427	 #CharArea	$16	local
                           428	
                           429	 #pFont	$16	param
                           430	 #c	$17	param
                           431	
                           432		.data
                           433	.L171:
                           434		.text
                           435		.align	4
                           436		.align	4
                           437		.align	4
                           438	_GUI_SIF_DispChar:
        27bdffc0 00000614  439		addiu	$sp, $sp, -64
                           440	 #	    .bf
        afbf003c 00000618  441		sw	$ra, 60($sp)
        afb60020 0000061c  442		sw	$22, 32($sp)
        afb5001c 00000620  443		sw	$21, 28($sp)
        afb40018 00000624  444		sw	$20, 24($sp)
        afb30014 00000628  445		sw	$19, 20($sp)
        afb20010 0000062c  446		sw	$18, 16($sp)
        afb1000c 00000630  447		sw	$17, 12($sp)
        3085ffff 00000634  448		andi	$5, $4, 65535
        afb00008 00000638  449		sw	$16, 8($sp)

                                   Tue Apr 07 08:55:45 2015           Page 10
                                   Tue Apr 07 08:55:44 2015       gh_2i07n.s
        3c100000 0000063c  450		lui	$16, %hi(GUI_Context)
        26100000 00000640  451		addiu	$16, $16, %lo(GUI_Context)
        0c000000 00000644  452		jal	_GetpCharInfo
        8e04001c 00000648  453		lw	$4, 28($16)
        1040004b 0000064c  454		beq	$2, $0, .L242
        afa20028 00000650  455		sw	$2, 40($sp)
        27b20028 00000654  456		addiu	$18, $sp, 40
        27b1002c 00000658  457		addiu	$17, $sp, 44
        02209825 0000065c  458		move	$19, $17
        0c000000 00000660  459		jal	GUI__Read16
        02402025 00000664  460		move	$4, $18
        a6620000 00000668  461		sh	$2, 0($19)
        0c000000 0000066c  462		jal	GUI__Read16
        02402025 00000670  463		move	$4, $18
        a7a2002e 00000674  464		sh	$2, 46($sp)
        0c000000 00000678  465		jal	GUI__Read16
        02402025 0000067c  466		move	$4, $18
        a7a20030 00000680  467		sh	$2, 48($sp)
        0c000000 00000684  468		jal	GUI__Read16
        02402025 00000688  469		move	$4, $18
        0c000000 0000068c  470		jal	GUI__Read32
        02402025 00000690  471		move	$4, $18
        8e0e001c 00000694  472		lw	$14, 28($16)
        8612002e 00000698  473		lh	$18, 46($16)
        8dce0018 0000069c  474		lw	$14, 24($14)
        afa20034 000006a0  475		sw	$2, 52($sp)
        02402025 000006a4  476		move	$4, $18
        0c000000 000006a8  477		jal	LCD_SetDrawMode
        01c2a021 000006ac  478		addu	$20, $14, $2
        0040a825 000006b0  479		move	$21, $2
        8e03001c 000006b4  480		lw	$3, 28($16)
        afb40000 000006b8  481		sw	$20, 0($sp)
        afb00004 000006bc  482		sw	$16, 4($sp)
        86040026 000006c0  483		lh	$4, 38($16)
        86050028 000006c4  484		lh	$5, 40($16)
        96660000 000006c8  485		lhu	$6, 0($19)
        90670014 000006cc  486		lbu	$7, 20($3)
        90680016 000006d0  487		lbu	$8, 22($3)
        90690017 000006d4  488		lbu	$9, 23($3)
        97ab0030 000006d8  489		lhu	$11, 48($sp)
        0c000000 000006dc  490		jal	LCD_DrawBitmap
        340a0001 000006e0  491		ori	$10, $0, 1
        8e03001c 000006e4  492		lw	$3, 28($16)
        90620015 000006e8  493		lbu	$2, 21($3)
        90780014 000006ec  494		lbu	$24, 20($3)
        0302c82b 000006f0  495		sltu	$25, $24, $2
        1320001b 000006f4  496		beq	$25, $0, .L246
        00000000 000006f8  497		nop
        90630017 000006fc  498		lbu	$3, 23($3)
        00430018 00000700  499		mult	$2, $3
        0000a012 00000704  500		mflo	$20
        00000000 00000708  501		nop
        00000000 0000070c  502		nop
        03030018 00000710  503		mult	$24, $3
        34180002 00000714  504		ori	$24, $0, 2
        0000b012 00000718  505		mflo	$22

                                   Tue Apr 07 08:55:45 2015           Page 11
                                   Tue Apr 07 08:55:44 2015       gh_2i07n.s
        12580011 0000071c  506		beq	$18, $24, .L246
        00000000 00000720  507		nop
        00000000 00000724  508		nop
        0c000000 00000728  509		jal	GUI_GetColor
        00000000 0000072c  510		nop
        0c000000 00000730  511		jal	GUI_GetBkColor
        00409025 00000734  512		move	$18, $2
        0c000000 00000738  513		jal	GUI_SetColor
        00402025 0000073c  514		move	$4, $2
        86030028 00000740  515		lh	$3, 40($16)
        966f0000 00000744  516		lhu	$15, 0($19)
        86040026 00000748  517		lh	$4, 38($16)
        00762821 0000074c  518		addu	$5, $3, $22
        00743821 00000750  519		addu	$7, $3, $20
        0c000000 00000754  520		jal	LCD_FillRect
        008f3021 00000758  521		addu	$6, $4, $15
        0c000000 0000075c  522		jal	GUI_SetColor
        02402025 00000760  523		move	$4, $18
                           524	.L246:
        0c000000 00000764  525		jal	LCD_SetDrawMode
        02a02025 00000768  526		move	$4, $21
        962d0002 0000076c  527		lhu	$13, 2($17)
        860e0026 00000770  528		lh	$14, 38($16)
        01cd7021 00000774  529		addu	$14, $14, $13
        a60e0026 00000778  530		sh	$14, 38($16)
                           531	.L242:
        8fb60020 0000077c  532		lw	$22, 32($sp)
                           533	 #	    .ef
        8fb5001c 00000780  534		lw	$21, 28($sp)
        8fbf003c 00000784  535		lw	$ra, 60($sp)
        8fb00008 00000788  536		lw	$16, 8($sp)
        8fb1000c 0000078c  537		lw	$17, 12($sp)
        8fb20010 00000790  538		lw	$18, 16($sp)
        8fb30014 00000794  539		lw	$19, 20($sp)
        8fb40018 00000798  540		lw	$20, 24($sp)
        03e00008 0000079c  541		jr	$ra
        27bd0040 000007a0  542		addiu	$sp, $sp, 64
                           543		.type	_GUI_SIF_DispChar,@function
                           544		.size	_GUI_SIF_DispChar,.-_GUI_SIF_DispChar
                           545		.align	4
                           546	 #pCharInfo	40($sp)	local
                           547	 #pData	$20	local
                           548	 #DrawMode	$18	local
                           549	 #OldDrawMode	$21	local
                           550	 #CharInfo	44($sp)	local
                           551	 #YMag	$3	local
                           552	 #YDist	$20	local
                           553	 #YSize	$22	local
                           554	 #OldColor	$18	local
                           555	
                           556	 #c	$5	param
                           557	
                           558		.data
                           559	.L273:
                           560		.text
                           561		.align	4

                                   Tue Apr 07 08:55:45 2015           Page 12
                                   Tue Apr 07 08:55:44 2015       gh_2i07n.s
                           562		.align	4
                           563	_GUI_SIF_GetCharDistX:
        27bdfff0 000007a4  564		addiu	$sp, $sp, -16
                           565	 #	    .bf
        afbf000c 000007a8  566		sw	$ra, 12($sp)
        3085ffff 000007ac  567		andi	$5, $4, 65535
        afb00000 000007b0  568		sw	$16, 0($sp)
        34100000 000007b4  569		ori	$16, $0, 0
        3c010000 000007b8  570		lui	$1, %hi(GUI_Context+28)
        0c000000 000007bc  571		jal	_GetpCharInfo
        8c240000 000007c0  572		lw	$4, %lo(GUI_Context+28)($1)
        10400006 000007c4  573		beq	$2, $0, .L290
        afa20004 000007c8  574		sw	$2, 4($sp)
        244f0002 000007cc  575		addiu	$15, $2, 2
        afaf0004 000007d0  576		sw	$15, 4($sp)
        0c000000 000007d4  577		jal	GUI__Read16
        27a40004 000007d8  578		addiu	$4, $sp, 4
        00408025 000007dc  579		move	$16, $2
                           580	.L290:
        02001025 000007e0  581		move	$2, $16
                           582	 #	    .ef
        8fb00000 000007e4  583		lw	$16, 0($sp)
        8fbf000c 000007e8  584		lw	$ra, 12($sp)
        03e00008 000007ec  585		jr	$ra
        27bd0010 000007f0  586		addiu	$sp, $sp, 16
                           587		.type	_GUI_SIF_GetCharDistX,@function
                           588		.size	_GUI_SIF_GetCharDistX,.-_GUI_SIF_GetCharDistX
                           589		.align	4
                           590	 #pCharInfo	4($sp)	local
                           591	 #DistX	$16	local
                           592	
                           593	 #c	$5	param
                           594	
                           595		.data
                           596	.L309:
                           597		.text
                           598		.align	4
                           599		.align	4
                           600	_GUI_SIF_GetFontInfo:
        27bdffe8 000007f4  601		addiu	$sp, $sp, -24
        afbf0014 000007f8  602		sw	$ra, 20($sp)
        afb10004 000007fc  603		sw	$17, 4($sp)
        afb00000 00000800  604		sw	$16, 0($sp)
                           605	 #	    .bf
        8c980018 00000804  606		lw	$24, 24($4)
        00a08025 00000808  607		move	$16, $5
        27b1000c 0000080c  608		addiu	$17, $sp, 12
        27190004 00000810  609		addiu	$25, $24, 4
        afb9000c 00000814  610		sw	$25, 12($sp)
        0c000000 00000818  611		jal	GUI__Read16
        02202025 0000081c  612		move	$4, $17
        a2020002 00000820  613		sb	$2, 2($16)
        0c000000 00000824  614		jal	GUI__Read16
        02202025 00000828  615		move	$4, $17
        a2020003 0000082c  616		sb	$2, 3($16)
        0c000000 00000830  617		jal	GUI__Read16

                                   Tue Apr 07 08:55:45 2015           Page 13
                                   Tue Apr 07 08:55:44 2015       gh_2i07n.s
        02202025 00000834  618		move	$4, $17
        a2020004 00000838  619		sb	$2, 4($16)
        340f0001 0000083c  620		ori	$15, $0, 1
        a60f0000 00000840  621		sh	$15, 0($16)
                           622	 #	    .ef
        8fb10004 00000844  623		lw	$17, 4($sp)
        8fb00000 00000848  624		lw	$16, 0($sp)
        8fbf0014 0000084c  625		lw	$ra, 20($sp)
        03e00008 00000850  626		jr	$ra
        27bd0018 00000854  627		addiu	$sp, $sp, 24
                           628		.type	_GUI_SIF_GetFontInfo,@function
                           629		.size	_GUI_SIF_GetFontInfo,.-_GUI_SIF_GetFontInfo
                           630		.align	4
                           631	 #pData	12($sp)	local
                           632	
                           633	 #pFont	$4	param
                           634	 #pfi	$16	param
                           635	
                           636		.data
                           637	.L331:
                           638		.text
                           639		.align	4
                           640		.align	4
                           641	_GUI_SIF_IsInFont:
        27bdfff8 00000858  642		addiu	$sp, $sp, -8
                           643	 #	    .bf
        afbf0004 0000085c  644		sw	$ra, 4($sp)
        30a5ffff 00000860  645		andi	$5, $5, 65535
        3c010000 00000864  646		lui	$1, %hi(GUI_Context+28)
        0c000000 00000868  647		jal	_GetpCharInfo
        8c240000 0000086c  648		lw	$4, %lo(GUI_Context+28)($1)
                           649	 #	    .ef
        8fbf0004 00000870  650		lw	$ra, 4($sp)
        27bd0008 00000874  651		addiu	$sp, $sp, 8
        0002c82b 00000878  652		sltu	$25, $0, $2
        00191600 0000087c  653		sll	$2, $25, 24
        03e00008 00000880  654		jr	$ra
        00021603 00000884  655		sra	$2, $2, 24
                           656		.type	_GUI_SIF_IsInFont,@function
                           657		.size	_GUI_SIF_IsInFont,.-_GUI_SIF_IsInFont
                           658		.align	4
                           659	
                           660	 #pFont	none	param
                           661	 #c	$5	param
                           662	
                           663		.data
                           664	.L352:
                           665		.text
                           666		.align	4
                           667	 #GUI_Context	GUI_Context	import
                           668	
                           669		.section ".rodata","a"
                           670	.L359:
                           671		.globl	GUI_SIF_APIList_Prop
        00000000 00000000  672	GUI_SIF_APIList_Prop:	.word	_GUI_SIF_DispChar
        00000000 00000004  673		.word	_GUI_SIF_GetCharDistX

                                   Tue Apr 07 08:55:45 2015           Page 14
                                   Tue Apr 07 08:55:44 2015       gh_2i07n.s
        00000000 00000008  674		.word	_GUI_SIF_GetFontInfo
        00000000 0000000c  675		.word	_GUI_SIF_IsInFont
                           676		.type	GUI_SIF_APIList_Prop,@object
                           677		.size	GUI_SIF_APIList_Prop,16
                           678		.data
                           679		.section ".rodata","a"
                           680		.align	4
                           681		.text
