
                                   Tue Apr 07 08:54:02 2015           Page 1
                                   Tue Apr 07 08:54:02 2015       gh_2i05g.s
Command Line:   C:\GHS\V35\mips35\asmips.exe -noundefined -elf -b0
                -IC:\local\Workspace\DC_V04.01.00_int\cu3x1Platform_SRC\emWinColour
                -IC:\local\Workspace\DC_V04.01.00_int\cu3x1Platform_SRC\platform\include
                -IC:\local\Workspace\DC_V04.01.00_int\cu3x1Platform_SRC\platform\common
                -IC:\local\Workspace\DC_V04.01.00_int\cu3x1Platform_SRC\platform\hardware
                -IC:\local\Workspace\DC_V04.01.00_int\cu3x1Platform_SRC\platform\hardware\D3018X
                -IC:\local\Workspace\DC_V04.01.00_int\cu3x1Platform_SRC\embos\inc
                -IC:\local\Workspace\DC_V04.01.00_int\cu3x1Platform_SRC\emWinColour\config
                -IC:\local\Workspace\DC_V04.01.00_int\cu3x1Platform_SRC\emWinColour\gui\ConvertMono
                -IC:\local\Workspace\DC_V04.01.00_int\cu3x1Platform_SRC\emWinColour\gui\Core
                -IC:\local\Workspace\DC_V04.01.00_int\cu3x1Platform_SRC\emWinColour\gui\Font
                -IC:\local\Workspace\DC_V04.01.00_int\cu3x1Platform_SRC\emWinColour\gui\LCDDriver
                -IC:\local\Workspace\DC_V04.01.00_int\cu3x1Platform_SRC\emWinColour\gui\MemDev
                -IC:\local\Workspace\DC_V04.01.00_int\cu3x1Platform_SRC\emWinColour\gui\VNC
                -IC:\local\Workspace\DC_V04.01.00_int\cu3x1Platform_SRC\emWinColour\gui\Widget
                -IC:\local\Workspace\DC_V04.01.00_int\cu3x1Platform_SRC\emWinColour\gui\wm
                -IC:\local\Workspace\DC_V04.01.00_int\cu3x1App_SRC\Control\source
                -IC:\local\Workspace\DC_V04.01.00_int\cu3x1App_SRC\Control\source\include
                -IC:\local\Workspace\DC_V04.01.00_int\cu3x1App_SRC\Control\source\util
                -IC:\local\Workspace\DC_V04.01.00_int\cu3x1App_SRC\Control\source\datapoint
                -IC:\local\Workspace\DC_V04.01.00_int\cu3x1App_SRC\Control\source\factory
                -IC:\local\Workspace\DC_V04.01.00_int\cu3x1Platform_SRC\embos
                -IC:\local\Workspace\DC_V04.01.00_int\cu3x1Platform_SRC\emWinColour\gui\core
                -IC:\local\Workspace\DC_V04.01.00_int\cu3x1App_SRC\Control\source\rtip\webpage
                -IC:\local\Workspace\DC_V04.01.00_int\cu3x1App_SRC\Control\source\rtip\config
                -IC:\local\Workspace\DC_V04.01.00_int\cu3x1App_SRC\Control\source\rtip\xnet
                -IC:\local\Workspace\DC_V04.01.00_int\cu3x1App_SRC\Control\source\stub
                -IC:\local\Workspace\DC_V04.01.00_int\cu3x1App_SRC\Control\source\test
                -IC:\local\Workspace\DC_V04.01.00_int\cu3x1App_SRC\Control\source\GENIpro
                -IC:\local\Workspace\DC_V04.01.00_int\cu3x1App_SRC\Control\source\GENIpro\GENI_sys
                -IC:\local\Workspace\DC_V04.01.00_int\cu3x1App_SRC\Control\source\GENIpro\GENIusb\emUSB\USB\Driver
                -IC:\local\Workspace\DC_V04.01.00_int\cu3x1App_SRC\Control\source\application\intercom
                -IC:\local\Workspace\DC_V04.01.00_int\cu3x1App_SRC\Control\source\application\controller
                -IC:\local\Workspace\DC_V04.01.00_int\cu3x1App_SRC\Control\source\application\driver
                -IC:\local\Workspace\DC_V04.01.00_int\cu3x1App_SRC\Control\source\application\webif
                -IC:\local\Workspace\DC_V04.01.00_int\cu3x1App_SRC\Control\source\application\relay
                -IC:\local\Workspace\DC_V04.01.00_int\cu3x1App_SRC\Control\source\application\GENIApp
                -IC:\local\Workspace\DC_V04.01.00_int\cu3x1App_SRC\Control\source\application\alarm
                -IC:\local\Workspace\DC_V04.01.00_int\cu3x1App_SRC\Control\source\application\config
                -IC:\local\Workspace\DC_V04.01.00_int\cu3x1App_SRC\Control\source\application\AnaInConfigCtrl
                -IC:\local\Workspace\DC_V04.01.00_int\cu3x1App_SRC\Control\source\application\Sms
                -IC:\local\Workspace\DC_V04.01.00_int\cu3x1App_SRC\Control\source\application\display
                -IC:\local\Workspace\DC_V04.01.00_int\cu3x1App_SRC\Control\source\application\display\display_task
                -IC:\local\Workspace\DC_V04.01.00_int\cu3x1App_SRC\Control\source\application\display\gui_utility
                -IC:\local\Workspace\DC_V04.01.00_int\cu3x1App_SRC\Control\source\application\display\mpcunit
                -IC:\local\Workspace\DC_V04.01.00_int\cu3x1App_SRC\Control\source\GeniPro
                -IC:\local\Workspace\DC_V04.01.00_int\cu3x1App_SRC\Control\source\GeniPro\GENI_sys
                -IC:\local\Workspace\DC_V04.01.00_int\cu3x1App_SRC\Control\source\GeniPro\GENIbus
                -IC:\local\Workspace\DC_V04.01.00_int\cu3x1App_SRC\Control\source\GeniPro\GENIcom
                -IC:\local\Workspace\DC_V04.01.00_int\cu3x1App_SRC\Control\source\GeniPro\GENIrs232
                -IC:\local\Workspace\DC_V04.01.00_int\cu3x1App_SRC\Control\source\GeniPro\Virtual
                -IC:\local\Workspace\DC_V04.01.00_int\cu3x1Platform_SRC\Platform\common
                -IC:\local\Workspace\DC_V04.01.00_int\cu3x1Platform_SRC\Platform\hardware
                -IC:\local\Workspace\DC_V04.01.00_int\cu3x1Platform_SRC\Platform\hardware\D3018X
                -IC:\local\Workspace\DC_V04.01.00_int\cu3x1App_SRC\Control\source\application\display\imagesTFT
                -IC:\GHS\V35\mips35\mipsl_sf -r4121 -source=GUI_DrawBitmapMag.c
                -o objs\gh_2i05g.o -list=objs\GUI_DrawBitmapMag.lst
                C:\Users\55602\AppData\Local\Temp\gh_2i05g.s
Source File:    C:\Users\55602\AppData\Local\Temp\gh_2i05g.s
Directory:      C:\local\Workspace\DC_V04.01.00_int\cu3x1App_SRC\Control\source
Host OS:        GHS_WIN32
Version:        AS-MIPS 3.5#11 
Release:        MULTI 2000, MIPS v3.5
Revision Date:  Wed Feb 27 12:19:03 2002
Release Date:   Sat Mar 02 02:57:59 2002
                             1	 #Source File:   C:\local\Workspace\DC_V04.01.00_int\cu3x1Platform_SRC\emWinColour\GUI\Core\GUI_DrawBitmapMag.c

                                   Tue Apr 07 08:54:02 2015           Page 2
                                   Tue Apr 07 08:54:02 2015       gh_2i05g.s
                             2	 #Directory:     
                             3	 #		C:\local\Workspace\DC_V04.01.00_int\cu3x1App_SRC\Control\source
                             4	 #Compile Date:  Tue Apr 07 08:54:01 2015
                             5	 #Host OS:       Win32
                             6	 #Version:       C-MIPS 3.5#11 RELEASE VERSION
                             7	 #Release:       MULTI 2000, MIPS v3.5
                             8	 #Revision Date: Fri Mar 01 11:32:40 2002
                             9	 #Release Date:  Sat Mar 02 02:58:48 2002
                            10		.set	noat
                            11		.set	noreorder
                            12		.set	nomacro
                            13		.text
                            14		.align	4
                            15		.globl	GUI_DrawBitmapMag
                            16	GUI_DrawBitmapMag:
        27bdffc0 00000000   17		addiu	$sp, $sp, -64
        afbf003c 00000004   18		sw	$ra, 60($sp)
        afbe0028 00000008   19		sw	$fp, 40($sp)
        afb70024 0000000c   20		sw	$23, 36($sp)
        afb60020 00000010   21		sw	$22, 32($sp)
        afb5001c 00000014   22		sw	$21, 28($sp)
        afb40018 00000018   23		sw	$20, 24($sp)
        afb00008 0000001c   24		sw	$16, 8($sp)
        00808025 00000020   25		move	$16, $4
        afb1000c 00000024   26		sw	$17, 12($sp)
        00a08825 00000028   27		move	$17, $5
        afb20010 0000002c   28		sw	$18, 16($sp)
        00c09025 00000030   29		move	$18, $6
        afb30014 00000034   30		sw	$19, 20($sp)
        00e09825 00000038   31		move	$19, $7
                            32	 #	    .bf
        0c000000 0000003c   33		jal	GUI_Lock
        0100a025 00000040   34		move	$20, $8
        8e1e000c 00000044   35		lw	$fp, 12($16)
        96160000 00000048   36		lhu	$22, 0($16)
        96170002 0000004c   37		lhu	$23, 2($16)
        0c000000 00000050   38		jal	LCD_GetpPalConvTable
        03c02025 00000054   39		move	$4, $fp
        0040a825 00000058   40		move	$21, $2
        16a0000b 0000005c   41		bne	$21, $0, .L4
        00000000 00000060   42		nop
        96180006 00000064   43		lhu	$24, 6($16)
        340f0001 00000068   44		ori	$15, $0, 1
        130f0005 0000006c   45		beq	$24, $15, .L6
        34040000 00000070   46		ori	$4, $0, 0
        13c0000a 00000074   47		beq	$fp, $0, .L9
        34150000 00000078   48		ori	$21, $0, 0
        08000000 0000007c   49		j	.L1000011
        83cd0004 00000080   50		lb	$13, 4($fp)
                            51	.L6:
        3c030000 00000084   52		lui	$3, %hi(GUI_Context)
        24750000 00000088   53		addiu	$21, $3, %lo(GUI_Context)
                            54	.L4:
        13c00004 0000008c   55		beq	$fp, $0, .L9
        34040000 00000090   56		ori	$4, $0, 0
        83cd0004 00000094   57		lb	$13, 4($fp)

                                   Tue Apr 07 08:54:02 2015           Page 3
                                   Tue Apr 07 08:54:02 2015       gh_2i05g.s
                            58	.L1000011:
        55a00001 00000098   59		bnel	$13, $0, .L9
        34040002 0000009c   60		ori	$4, $0, 2
                            61	.L9:
        0c000000 000000a0   62		jal	GUI_SetDrawMode
        00000000 000000a4   63		nop
        3c030000 000000a8   64		lui	$3, %hi(GUI_Context)
        24630000 000000ac   65		addiu	$3, $3, %lo(GUI_Context)
        8c6f0048 000000b0   66		lw	$15, 72($3)
        8c780044 000000b4   67		lw	$24, 68($3)
        024f9021 000000b8   68		addu	$18, $18, $15
        02388821 000000bc   69		addu	$17, $17, $24
        02200013 000000c0   70		mtlo	$17
        02d36828 000000c4   71		macc	$13, $22, $19
        02400013 000000c8   72		mtlo	$18
        02f47828 000000cc   73		macc	$15, $23, $20
        25adffff 000000d0   74		addiu	$13, $13, -1
        a7ad0034 000000d4   75		sh	$13, 52($sp)
        0040f025 000000d8   76		move	$fp, $2
        a7b10030 000000dc   77		sh	$17, 48($sp)
        a7b20032 000000e0   78		sh	$18, 50($sp)
        27a40030 000000e4   79		addiu	$4, $sp, 48
        25efffff 000000e8   80		addiu	$15, $15, -1
        0c000000 000000ec   81		jal	WM__InitIVRSearch
        a7af0036 000000f0   82		sh	$15, 54($sp)
        10400022 000000f4   83		beq	$2, $0, .L12
        00000000 000000f8   84		nop
        8e0d0010 000000fc   85		lw	$13, 16($16)
                            86	.L1000016:
        11a00010 00000100   87		beq	$13, $0, .L1000017
        02202025 00000104   88		move	$4, $17
        02402825 00000108   89		move	$5, $18
        96060000 0000010c   90		lhu	$6, 0($16)
        96070002 00000110   91		lhu	$7, 2($16)
        8e080008 00000114   92		lw	$8, 8($16)
        8db80000 00000118   93		lw	$24, 0($13)
        8e09000c 0000011c   94		lw	$9, 12($16)
        02605025 00000120   95		move	$10, $19
        0300f809 00000124   96		jalr	$24
        02805825 00000128   97		move	$11, $20
        0c000000 0000012c   98		jal	WM__GetNextIVR
        00000000 00000130   99		nop
        5440fff2 00000134  100		bnel	$2, $0, .L1000016
        8e0d0010 00000138  101		lw	$13, 16($16)
        08000000 0000013c  102		j	.L12
        00000000 00000140  103		nop
                           104	.L1000017:
        02402825 00000144  105		move	$5, $18
        02c03025 00000148  106		move	$6, $22
        02e03825 0000014c  107		move	$7, $23
        8e030008 00000150  108		lw	$3, 8($16)
        02604025 00000154  109		move	$8, $19
        02804825 00000158  110		move	$9, $20
        afa30000 0000015c  111		sw	$3, 0($sp)
        afb50004 00000160  112		sw	$21, 4($sp)
        960a0006 00000164  113		lhu	$10, 6($16)

                                   Tue Apr 07 08:54:02 2015           Page 4
                                   Tue Apr 07 08:54:02 2015       gh_2i05g.s
        0c000000 00000168  114		jal	LCD_DrawBitmap
        960b0004 0000016c  115		lhu	$11, 4($16)
        0c000000 00000170  116		jal	WM__GetNextIVR
        00000000 00000174  117		nop
        5440ffe1 00000178  118		bnel	$2, $0, .L1000016
        8e0d0010 0000017c  119		lw	$13, 16($16)
                           120	.L12:
        0c000000 00000180  121		jal	GUI_SetDrawMode
        03c02025 00000184  122		move	$4, $fp
        0c000000 00000188  123		jal	GUI_Unlock
        00000000 0000018c  124		nop
                           125	 #	    .ef
        8fb60020 00000190  126		lw	$22, 32($sp)
        8fb5001c 00000194  127		lw	$21, 28($sp)
        8fb40018 00000198  128		lw	$20, 24($sp)
        8fb30014 0000019c  129		lw	$19, 20($sp)
        8fb20010 000001a0  130		lw	$18, 16($sp)
        8fb1000c 000001a4  131		lw	$17, 12($sp)
        8fb00008 000001a8  132		lw	$16, 8($sp)
        8fbf003c 000001ac  133		lw	$ra, 60($sp)
        8fb70024 000001b0  134		lw	$23, 36($sp)
        8fbe0028 000001b4  135		lw	$fp, 40($sp)
        03e00008 000001b8  136		jr	$ra
        27bd0040 000001bc  137		addiu	$sp, $sp, 64
                           138		.type	GUI_DrawBitmapMag,@function
                           139		.size	GUI_DrawBitmapMag,.-GUI_DrawBitmapMag
                           140		.align	4
                           141	 #PrevDraw	$fp	local
                           142	 #xSize	$22	local
                           143	 #ySize	$23	local
                           144	 #pPal	$fp	local
                           145	 #pTrans	$21	local
                           146	 #r	48($sp)	local
                           147	
                           148	 #pBitmap	$16	param
                           149	 #x0	$17	param
                           150	 #y0	$18	param
                           151	 #xMul	$19	param
                           152	 #yMul	$20	param
                           153	
                           154		.data
                           155	.L94:
                           156		.text
                           157		.align	4
                           158	 #GUI_Context	GUI_Context	import
                           159	
                           160		.data
                           161		.text
