
                                   Tue Apr 07 08:54:14 2015           Page 1
                                   Tue Apr 07 08:54:14 2015       gh_2i05p.s
Command Line:   C:\GHS\V35\mips35\asmips.exe -noundefined -elf -b0
                -IC:\local\Workspace\DC_V04.01.00_int\cu3x1Platform_SRC\emWinColour
                -IC:\local\Workspace\DC_V04.01.00_int\cu3x1Platform_SRC\platform\include
                -IC:\local\Workspace\DC_V04.01.00_int\cu3x1Platform_SRC\platform\common
                -IC:\local\Workspace\DC_V04.01.00_int\cu3x1Platform_SRC\platform\hardware
                -IC:\local\Workspace\DC_V04.01.00_int\cu3x1Platform_SRC\platform\hardware\D3018X
                -IC:\local\Workspace\DC_V04.01.00_int\cu3x1Platform_SRC\embos\inc
                -IC:\local\Workspace\DC_V04.01.00_int\cu3x1Platform_SRC\emWinColour\config
                -IC:\local\Workspace\DC_V04.01.00_int\cu3x1Platform_SRC\emWinColour\gui\ConvertMono
                -IC:\local\Workspace\DC_V04.01.00_int\cu3x1Platform_SRC\emWinColour\gui\Core
                -IC:\local\Workspace\DC_V04.01.00_int\cu3x1Platform_SRC\emWinColour\gui\Font
                -IC:\local\Workspace\DC_V04.01.00_int\cu3x1Platform_SRC\emWinColour\gui\LCDDriver
                -IC:\local\Workspace\DC_V04.01.00_int\cu3x1Platform_SRC\emWinColour\gui\MemDev
                -IC:\local\Workspace\DC_V04.01.00_int\cu3x1Platform_SRC\emWinColour\gui\VNC
                -IC:\local\Workspace\DC_V04.01.00_int\cu3x1Platform_SRC\emWinColour\gui\Widget
                -IC:\local\Workspace\DC_V04.01.00_int\cu3x1Platform_SRC\emWinColour\gui\wm
                -IC:\local\Workspace\DC_V04.01.00_int\cu3x1App_SRC\Control\source
                -IC:\local\Workspace\DC_V04.01.00_int\cu3x1App_SRC\Control\source\include
                -IC:\local\Workspace\DC_V04.01.00_int\cu3x1App_SRC\Control\source\util
                -IC:\local\Workspace\DC_V04.01.00_int\cu3x1App_SRC\Control\source\datapoint
                -IC:\local\Workspace\DC_V04.01.00_int\cu3x1App_SRC\Control\source\factory
                -IC:\local\Workspace\DC_V04.01.00_int\cu3x1Platform_SRC\embos
                -IC:\local\Workspace\DC_V04.01.00_int\cu3x1Platform_SRC\emWinColour\gui\core
                -IC:\local\Workspace\DC_V04.01.00_int\cu3x1App_SRC\Control\source\rtip\webpage
                -IC:\local\Workspace\DC_V04.01.00_int\cu3x1App_SRC\Control\source\rtip\config
                -IC:\local\Workspace\DC_V04.01.00_int\cu3x1App_SRC\Control\source\rtip\xnet
                -IC:\local\Workspace\DC_V04.01.00_int\cu3x1App_SRC\Control\source\stub
                -IC:\local\Workspace\DC_V04.01.00_int\cu3x1App_SRC\Control\source\test
                -IC:\local\Workspace\DC_V04.01.00_int\cu3x1App_SRC\Control\source\GENIpro
                -IC:\local\Workspace\DC_V04.01.00_int\cu3x1App_SRC\Control\source\GENIpro\GENI_sys
                -IC:\local\Workspace\DC_V04.01.00_int\cu3x1App_SRC\Control\source\GENIpro\GENIusb\emUSB\USB\Driver
                -IC:\local\Workspace\DC_V04.01.00_int\cu3x1App_SRC\Control\source\application\intercom
                -IC:\local\Workspace\DC_V04.01.00_int\cu3x1App_SRC\Control\source\application\controller
                -IC:\local\Workspace\DC_V04.01.00_int\cu3x1App_SRC\Control\source\application\driver
                -IC:\local\Workspace\DC_V04.01.00_int\cu3x1App_SRC\Control\source\application\webif
                -IC:\local\Workspace\DC_V04.01.00_int\cu3x1App_SRC\Control\source\application\relay
                -IC:\local\Workspace\DC_V04.01.00_int\cu3x1App_SRC\Control\source\application\GENIApp
                -IC:\local\Workspace\DC_V04.01.00_int\cu3x1App_SRC\Control\source\application\alarm
                -IC:\local\Workspace\DC_V04.01.00_int\cu3x1App_SRC\Control\source\application\config
                -IC:\local\Workspace\DC_V04.01.00_int\cu3x1App_SRC\Control\source\application\AnaInConfigCtrl
                -IC:\local\Workspace\DC_V04.01.00_int\cu3x1App_SRC\Control\source\application\Sms
                -IC:\local\Workspace\DC_V04.01.00_int\cu3x1App_SRC\Control\source\application\display
                -IC:\local\Workspace\DC_V04.01.00_int\cu3x1App_SRC\Control\source\application\display\display_task
                -IC:\local\Workspace\DC_V04.01.00_int\cu3x1App_SRC\Control\source\application\display\gui_utility
                -IC:\local\Workspace\DC_V04.01.00_int\cu3x1App_SRC\Control\source\application\display\mpcunit
                -IC:\local\Workspace\DC_V04.01.00_int\cu3x1App_SRC\Control\source\GeniPro
                -IC:\local\Workspace\DC_V04.01.00_int\cu3x1App_SRC\Control\source\GeniPro\GENI_sys
                -IC:\local\Workspace\DC_V04.01.00_int\cu3x1App_SRC\Control\source\GeniPro\GENIbus
                -IC:\local\Workspace\DC_V04.01.00_int\cu3x1App_SRC\Control\source\GeniPro\GENIcom
                -IC:\local\Workspace\DC_V04.01.00_int\cu3x1App_SRC\Control\source\GeniPro\GENIrs232
                -IC:\local\Workspace\DC_V04.01.00_int\cu3x1App_SRC\Control\source\GeniPro\Virtual
                -IC:\local\Workspace\DC_V04.01.00_int\cu3x1Platform_SRC\Platform\common
                -IC:\local\Workspace\DC_V04.01.00_int\cu3x1Platform_SRC\Platform\hardware
                -IC:\local\Workspace\DC_V04.01.00_int\cu3x1Platform_SRC\Platform\hardware\D3018X
                -IC:\local\Workspace\DC_V04.01.00_int\cu3x1App_SRC\Control\source\application\display\imagesTFT
                -IC:\GHS\V35\mips35\mipsl_sf -r4121 -source=GUI_DrawPolygon.c -o
                objs\gh_2i05p.o -list=objs\GUI_DrawPolygon.lst
                C:\Users\55602\AppData\Local\Temp\gh_2i05p.s
Source File:    C:\Users\55602\AppData\Local\Temp\gh_2i05p.s
Directory:      C:\local\Workspace\DC_V04.01.00_int\cu3x1App_SRC\Control\source
Host OS:        GHS_WIN32
Version:        AS-MIPS 3.5#11 
Release:        MULTI 2000, MIPS v3.5
Revision Date:  Wed Feb 27 12:19:03 2002
Release Date:   Sat Mar 02 02:57:59 2002
                             1	 #Source File:   C:\local\Workspace\DC_V04.01.00_int\cu3x1Platform_SRC\emWinColour\GUI\Core\GUI_DrawPolygon.c

                                   Tue Apr 07 08:54:14 2015           Page 2
                                   Tue Apr 07 08:54:14 2015       gh_2i05p.s
                             2	 #Directory:     
                             3	 #		C:\local\Workspace\DC_V04.01.00_int\cu3x1App_SRC\Control\source
                             4	 #Compile Date:  Tue Apr 07 08:54:14 2015
                             5	 #Host OS:       Win32
                             6	 #Version:       C-MIPS 3.5#11 RELEASE VERSION
                             7	 #Release:       MULTI 2000, MIPS v3.5
                             8	 #Revision Date: Fri Mar 01 11:32:40 2002
                             9	 #Release Date:  Sat Mar 02 02:58:48 2002
                            10		.set	noat
                            11		.set	noreorder
                            12		.set	nomacro
                            13		.text
                            14		.align	4
                            15		.globl	GL_DrawPolygon
                            16	GL_DrawPolygon:
        27bdffd8 00000000   17		addiu	$sp, $sp, -40
                            18	 #	    .bf
        afb20008 00000004   19		sw	$18, 8($sp)
        00c09025 00000008   20		move	$18, $6
        afb10004 0000000c   21		sw	$17, 4($sp)
        00a08825 00000010   22		move	$17, $5
        afbf0024 00000014   23		sw	$ra, 36($sp)
        afb60018 00000018   24		sw	$22, 24($sp)
        afb50014 0000001c   25		sw	$21, 20($sp)
        afb3000c 00000020   26		sw	$19, 12($sp)
        afb40010 00000024   27		sw	$20, 16($sp)
        afb00000 00000028   28		sw	$16, 0($sp)
        00808025 0000002c   29		move	$16, $4
        0200a025 00000030   30		move	$20, $16
        86980002 00000034   31		lh	$24, 2($20)
        00e09825 00000038   32		move	$19, $7
        86990000 0000003c   33		lh	$25, 0($20)
        03132821 00000040   34		addu	$5, $24, $19
        0c000000 00000044   35		jal	GL_MoveTo
        03322021 00000048   36		addu	$4, $25, $18
        2631ffff 0000004c   37		addiu	$17, $17, -1
        34160000 00000050   38		ori	$22, $0, 0
        02d1782a 00000054   39		slt	$15, $22, $17
        11e00002 00000058   40		beq	$15, $0, .L110
        00000000 0000005c   41		nop
        0220b025 00000060   42		move	$22, $17
                            43	.L110:
        0016a8c2 00000064   44		srl	$21, $22, 3
        52a0002d 00000068   45		beql	$21, $0, .L1000028
        32d50007 0000006c   46		andi	$21, $22, 7
                            47	.L44:
        86990004 00000070   48		lh	$25, 4($20)
        86980006 00000074   49		lh	$24, 6($20)
        03322021 00000078   50		addu	$4, $25, $18
        0c000000 0000007c   51		jal	GL_DrawLineTo
        03132821 00000080   52		addu	$5, $24, $19
        868f0008 00000084   53		lh	$15, 8($20)
        868e000a 00000088   54		lh	$14, 10($20)
        01f22021 0000008c   55		addu	$4, $15, $18
        0c000000 00000090   56		jal	GL_DrawLineTo
        01d32821 00000094   57		addu	$5, $14, $19

                                   Tue Apr 07 08:54:14 2015           Page 3
                                   Tue Apr 07 08:54:14 2015       gh_2i05p.s
        868d000c 00000098   58		lh	$13, 12($20)
        8699000e 0000009c   59		lh	$25, 14($20)
        01b22021 000000a0   60		addu	$4, $13, $18
        0c000000 000000a4   61		jal	GL_DrawLineTo
        03332821 000000a8   62		addu	$5, $25, $19
        86980010 000000ac   63		lh	$24, 16($20)
        868f0012 000000b0   64		lh	$15, 18($20)
        03122021 000000b4   65		addu	$4, $24, $18
        0c000000 000000b8   66		jal	GL_DrawLineTo
        01f32821 000000bc   67		addu	$5, $15, $19
        868e0014 000000c0   68		lh	$14, 20($20)
        868d0016 000000c4   69		lh	$13, 22($20)
        01d22021 000000c8   70		addu	$4, $14, $18
        0c000000 000000cc   71		jal	GL_DrawLineTo
        01b32821 000000d0   72		addu	$5, $13, $19
        86990018 000000d4   73		lh	$25, 24($20)
        8698001a 000000d8   74		lh	$24, 26($20)
        03322021 000000dc   75		addu	$4, $25, $18
        0c000000 000000e0   76		jal	GL_DrawLineTo
        03132821 000000e4   77		addu	$5, $24, $19
        868f001c 000000e8   78		lh	$15, 28($20)
        868e001e 000000ec   79		lh	$14, 30($20)
        01f22021 000000f0   80		addu	$4, $15, $18
        0c000000 000000f4   81		jal	GL_DrawLineTo
        01d32821 000000f8   82		addu	$5, $14, $19
        86990022 000000fc   83		lh	$25, 34($20)
        868d0020 00000100   84		lh	$13, 32($20)
        03332821 00000104   85		addu	$5, $25, $19
        0c000000 00000108   86		jal	GL_DrawLineTo
        01b22021 0000010c   87		addu	$4, $13, $18
        26b5ffff 00000110   88		addiu	$21, $21, -1
        16a0ffd6 00000114   89		bne	$21, $0, .L44
        26940020 00000118   90		addiu	$20, $20, 32
        32d50007 0000011c   91		andi	$21, $22, 7
                            92	.L1000028:
        52a0000b 00000120   93		beql	$21, $0, .L1000005
        86980000 00000124   94		lh	$24, 0($20)
        868d0006 00000128   95		lh	$13, 6($20)
                            96	.L1000048:
        26940004 0000012c   97		addiu	$20, $20, 4
        868e0000 00000130   98		lh	$14, 0($20)
        01b32821 00000134   99		addu	$5, $13, $19
        0c000000 00000138  100		jal	GL_DrawLineTo
        01d22021 0000013c  101		addu	$4, $14, $18
        26b5ffff 00000140  102		addiu	$21, $21, -1
        56a0fff9 00000144  103		bnel	$21, $0, .L1000048
        868d0006 00000148  104		lh	$13, 6($20)
        86980000 0000014c  105		lh	$24, 0($20)
                           106	.L1000005:
        86030000 00000150  107		lh	$3, 0($16)
        57030006 00000154  108		bnel	$24, $3, .L1000008
        86180002 00000158  109		lh	$24, 2($16)
        860d0002 0000015c  110		lh	$13, 2($16)
        868e0002 00000160  111		lh	$14, 2($20)
        51cd0006 00000164  112		beql	$14, $13, .L1000002
        8fb60018 00000168  113		lw	$22, 24($sp)

                                   Tue Apr 07 08:54:14 2015           Page 4
                                   Tue Apr 07 08:54:14 2015       gh_2i05p.s
        86180002 0000016c  114		lh	$24, 2($16)
                           115	.L1000008:
        00722021 00000170  116		addu	$4, $3, $18
        0c000000 00000174  117		jal	GL_DrawLineTo
        03132821 00000178  118		addu	$5, $24, $19
        8fb60018 0000017c  119		lw	$22, 24($sp)
                           120	.L1000002:
                           121	 #	    .ef
        8fb50014 00000180  122		lw	$21, 20($sp)
        8fbf0024 00000184  123		lw	$ra, 36($sp)
        8fb00000 00000188  124		lw	$16, 0($sp)
        8fb10004 0000018c  125		lw	$17, 4($sp)
        8fb20008 00000190  126		lw	$18, 8($sp)
        8fb3000c 00000194  127		lw	$19, 12($sp)
        8fb40010 00000198  128		lw	$20, 16($sp)
        03e00008 0000019c  129		jr	$ra
        27bd0028 000001a0  130		addiu	$sp, $sp, 40
                           131		.type	GL_DrawPolygon,@function
                           132		.size	GL_DrawPolygon,.-GL_DrawPolygon
                           133		.align	4
                           134	 #pPoint	$20	local
                           135	
                           136	 #pPoints	$16	param
                           137	 #NumPoints	$17	param
                           138	 #x0	$18	param
                           139	 #y0	$19	param
                           140	
                           141		.data
                           142	.L109:
                           143		.text
                           144		.align	4
                           145		.align	4
                           146		.align	4
                           147		.globl	GUI_DrawPolygon
                           148	GUI_DrawPolygon:
        27bdffe8 000001a4  149		addiu	$sp, $sp, -24
        afbf0014 000001a8  150		sw	$ra, 20($sp)
        afb3000c 000001ac  151		sw	$19, 12($sp)
        afb00000 000001b0  152		sw	$16, 0($sp)
        00808025 000001b4  153		move	$16, $4
        afb10004 000001b8  154		sw	$17, 4($sp)
        00a08825 000001bc  155		move	$17, $5
        afb20008 000001c0  156		sw	$18, 8($sp)
        00c09025 000001c4  157		move	$18, $6
                           158	 #	    .bf
        0c000000 000001c8  159		jal	GUI_Lock
        00e09825 000001cc  160		move	$19, $7
        3c030000 000001d0  161		lui	$3, %hi(GUI_Context)
        24630000 000001d4  162		addiu	$3, $3, %lo(GUI_Context)
        8c790044 000001d8  163		lw	$25, 68($3)
        8c780048 000001dc  164		lw	$24, 72($3)
        34040000 000001e0  165		ori	$4, $0, 0
        02599021 000001e4  166		addu	$18, $18, $25
        0c000000 000001e8  167		jal	WM__InitIVRSearch
        02789821 000001ec  168		addu	$19, $19, $24
        1040000a 000001f0  169		beq	$2, $0, .L141

                                   Tue Apr 07 08:54:14 2015           Page 5
                                   Tue Apr 07 08:54:14 2015       gh_2i05p.s
        00000000 000001f4  170		nop
        02002025 000001f8  171		move	$4, $16
                           172	.L1000145:
        02202825 000001fc  173		move	$5, $17
        02403025 00000200  174		move	$6, $18
        0c000000 00000204  175		jal	GL_DrawPolygon
        02603825 00000208  176		move	$7, $19
        0c000000 0000020c  177		jal	WM__GetNextIVR
        00000000 00000210  178		nop
        5440fff9 00000214  179		bnel	$2, $0, .L1000145
        02002025 00000218  180		move	$4, $16
                           181	.L141:
        0c000000 0000021c  182		jal	GUI_Unlock
        00000000 00000220  183		nop
                           184	 #	    .ef
        8fb10004 00000224  185		lw	$17, 4($sp)
        8fb00000 00000228  186		lw	$16, 0($sp)
        8fbf0014 0000022c  187		lw	$ra, 20($sp)
        8fb20008 00000230  188		lw	$18, 8($sp)
        8fb3000c 00000234  189		lw	$19, 12($sp)
        03e00008 00000238  190		jr	$ra
        27bd0018 0000023c  191		addiu	$sp, $sp, 24
                           192		.type	GUI_DrawPolygon,@function
                           193		.size	GUI_DrawPolygon,.-GUI_DrawPolygon
                           194		.align	4
                           195	
                           196	 #pPoints	$16	param
                           197	 #NumPoints	$17	param
                           198	 #x0	$18	param
                           199	 #y0	$19	param
                           200	
                           201		.data
                           202	.L176:
                           203		.text
                           204		.align	4
                           205	 #GUI_Context	GUI_Context	import
                           206	
                           207		.data
                           208		.text
