
                                   Tue Apr 07 08:55:02 2015           Page 1
                                   Tue Apr 07 08:55:02 2015       gh_2i06o.s
Command Line:   C:\GHS\V35\mips35\asmips.exe -noundefined -elf -b0
                -IC:\local\Workspace\DC_V04.01.00_int\cu3x1Platform_SRC\emWinColour
                -IC:\local\Workspace\DC_V04.01.00_int\cu3x1Platform_SRC\platform\include
                -IC:\local\Workspace\DC_V04.01.00_int\cu3x1Platform_SRC\platform\common
                -IC:\local\Workspace\DC_V04.01.00_int\cu3x1Platform_SRC\platform\hardware
                -IC:\local\Workspace\DC_V04.01.00_int\cu3x1Platform_SRC\platform\hardware\D3018X
                -IC:\local\Workspace\DC_V04.01.00_int\cu3x1Platform_SRC\embos\inc
                -IC:\local\Workspace\DC_V04.01.00_int\cu3x1Platform_SRC\emWinColour\config
                -IC:\local\Workspace\DC_V04.01.00_int\cu3x1Platform_SRC\emWinColour\gui\ConvertMono
                -IC:\local\Workspace\DC_V04.01.00_int\cu3x1Platform_SRC\emWinColour\gui\Core
                -IC:\local\Workspace\DC_V04.01.00_int\cu3x1Platform_SRC\emWinColour\gui\Font
                -IC:\local\Workspace\DC_V04.01.00_int\cu3x1Platform_SRC\emWinColour\gui\LCDDriver
                -IC:\local\Workspace\DC_V04.01.00_int\cu3x1Platform_SRC\emWinColour\gui\MemDev
                -IC:\local\Workspace\DC_V04.01.00_int\cu3x1Platform_SRC\emWinColour\gui\VNC
                -IC:\local\Workspace\DC_V04.01.00_int\cu3x1Platform_SRC\emWinColour\gui\Widget
                -IC:\local\Workspace\DC_V04.01.00_int\cu3x1Platform_SRC\emWinColour\gui\wm
                -IC:\local\Workspace\DC_V04.01.00_int\cu3x1App_SRC\Control\source
                -IC:\local\Workspace\DC_V04.01.00_int\cu3x1App_SRC\Control\source\include
                -IC:\local\Workspace\DC_V04.01.00_int\cu3x1App_SRC\Control\source\util
                -IC:\local\Workspace\DC_V04.01.00_int\cu3x1App_SRC\Control\source\datapoint
                -IC:\local\Workspace\DC_V04.01.00_int\cu3x1App_SRC\Control\source\factory
                -IC:\local\Workspace\DC_V04.01.00_int\cu3x1Platform_SRC\embos
                -IC:\local\Workspace\DC_V04.01.00_int\cu3x1Platform_SRC\emWinColour\gui\core
                -IC:\local\Workspace\DC_V04.01.00_int\cu3x1App_SRC\Control\source\rtip\webpage
                -IC:\local\Workspace\DC_V04.01.00_int\cu3x1App_SRC\Control\source\rtip\config
                -IC:\local\Workspace\DC_V04.01.00_int\cu3x1App_SRC\Control\source\rtip\xnet
                -IC:\local\Workspace\DC_V04.01.00_int\cu3x1App_SRC\Control\source\stub
                -IC:\local\Workspace\DC_V04.01.00_int\cu3x1App_SRC\Control\source\test
                -IC:\local\Workspace\DC_V04.01.00_int\cu3x1App_SRC\Control\source\GENIpro
                -IC:\local\Workspace\DC_V04.01.00_int\cu3x1App_SRC\Control\source\GENIpro\GENI_sys
                -IC:\local\Workspace\DC_V04.01.00_int\cu3x1App_SRC\Control\source\GENIpro\GENIusb\emUSB\USB\Driver
                -IC:\local\Workspace\DC_V04.01.00_int\cu3x1App_SRC\Control\source\application\intercom
                -IC:\local\Workspace\DC_V04.01.00_int\cu3x1App_SRC\Control\source\application\controller
                -IC:\local\Workspace\DC_V04.01.00_int\cu3x1App_SRC\Control\source\application\driver
                -IC:\local\Workspace\DC_V04.01.00_int\cu3x1App_SRC\Control\source\application\webif
                -IC:\local\Workspace\DC_V04.01.00_int\cu3x1App_SRC\Control\source\application\relay
                -IC:\local\Workspace\DC_V04.01.00_int\cu3x1App_SRC\Control\source\application\GENIApp
                -IC:\local\Workspace\DC_V04.01.00_int\cu3x1App_SRC\Control\source\application\alarm
                -IC:\local\Workspace\DC_V04.01.00_int\cu3x1App_SRC\Control\source\application\config
                -IC:\local\Workspace\DC_V04.01.00_int\cu3x1App_SRC\Control\source\application\AnaInConfigCtrl
                -IC:\local\Workspace\DC_V04.01.00_int\cu3x1App_SRC\Control\source\application\Sms
                -IC:\local\Workspace\DC_V04.01.00_int\cu3x1App_SRC\Control\source\application\display
                -IC:\local\Workspace\DC_V04.01.00_int\cu3x1App_SRC\Control\source\application\display\display_task
                -IC:\local\Workspace\DC_V04.01.00_int\cu3x1App_SRC\Control\source\application\display\gui_utility
                -IC:\local\Workspace\DC_V04.01.00_int\cu3x1App_SRC\Control\source\application\display\mpcunit
                -IC:\local\Workspace\DC_V04.01.00_int\cu3x1App_SRC\Control\source\GeniPro
                -IC:\local\Workspace\DC_V04.01.00_int\cu3x1App_SRC\Control\source\GeniPro\GENI_sys
                -IC:\local\Workspace\DC_V04.01.00_int\cu3x1App_SRC\Control\source\GeniPro\GENIbus
                -IC:\local\Workspace\DC_V04.01.00_int\cu3x1App_SRC\Control\source\GeniPro\GENIcom
                -IC:\local\Workspace\DC_V04.01.00_int\cu3x1App_SRC\Control\source\GeniPro\GENIrs232
                -IC:\local\Workspace\DC_V04.01.00_int\cu3x1App_SRC\Control\source\GeniPro\Virtual
                -IC:\local\Workspace\DC_V04.01.00_int\cu3x1Platform_SRC\Platform\common
                -IC:\local\Workspace\DC_V04.01.00_int\cu3x1Platform_SRC\Platform\hardware
                -IC:\local\Workspace\DC_V04.01.00_int\cu3x1Platform_SRC\Platform\hardware\D3018X
                -IC:\local\Workspace\DC_V04.01.00_int\cu3x1App_SRC\Control\source\application\display\imagesTFT
                -IC:\GHS\V35\mips35\mipsl_sf -r4121 -source=GUI_Log.c -o
                objs\gh_2i06o.o -list=objs\GUI_Log.lst
                C:\Users\55602\AppData\Local\Temp\gh_2i06o.s
Source File:    C:\Users\55602\AppData\Local\Temp\gh_2i06o.s
Directory:      C:\local\Workspace\DC_V04.01.00_int\cu3x1App_SRC\Control\source
Host OS:        GHS_WIN32
Version:        AS-MIPS 3.5#11 
Release:        MULTI 2000, MIPS v3.5
Revision Date:  Wed Feb 27 12:19:03 2002
Release Date:   Sat Mar 02 02:57:59 2002
                             1	 #Source File:   C:\local\Workspace\DC_V04.01.00_int\cu3x1Platform_SRC\emWinColour\GUI\Core\GUI_Log.c

                                   Tue Apr 07 08:55:02 2015           Page 2
                                   Tue Apr 07 08:55:02 2015       gh_2i06o.s
                             2	 #Directory:     
                             3	 #		C:\local\Workspace\DC_V04.01.00_int\cu3x1App_SRC\Control\source
                             4	 #Compile Date:  Tue Apr 07 08:55:02 2015
                             5	 #Host OS:       Win32
                             6	 #Version:       C-MIPS 3.5#11 RELEASE VERSION
                             7	 #Release:       MULTI 2000, MIPS v3.5
                             8	 #Revision Date: Fri Mar 01 11:32:40 2002
                             9	 #Release Date:  Sat Mar 02 02:58:48 2002
                            10		.set	noat
                            11		.set	noreorder
                            12		.set	nomacro
                            13		.text
                            14		.align	4
                            15	_CopyString:
                            16	 #	    .bf
        18c0000a 00000000   17		blez	$6, .L17
        00000000 00000004   18		nop
        08000000 00000008   19		j	.L1000019
        80ad0000 0000000c   20		lb	$13, 0($5)
                            21	.L1000018:
        a08dffff 00000010   22		sb	$13, -1($4)
        24c6ffff 00000014   23		addiu	$6, $6, -1
        18c00004 00000018   24		blez	$6, .L17
        24a50001 0000001c   25		addiu	$5, $5, 1
        80ad0000 00000020   26		lb	$13, 0($5)
                            27	.L1000019:
        55a0fffa 00000024   28		bnel	$13, $0, .L1000018
        24840001 00000028   29		addiu	$4, $4, 1
                            30	.L17:
                            31	 #	    .ef
        03e00008 0000002c   32		jr	$ra
        a0800000 00000030   33		sb	$0, 0($4)
                            34		.type	_CopyString,@function
                            35		.size	_CopyString,.-_CopyString
                            36		.align	4
                            37	
                            38	 #d	$4	param
                            39	 #s	$5	param
                            40	 #MaxLen	$6	param
                            41	
                            42		.data
                            43	.L43:
                            44		.text
                            45		.align	4
                            46		.align	4
                            47		.globl	GUI_Log
                            48	GUI_Log:
                            49	 #	    .bf
        08000000 00000034   50		j	GUI_X_Log
        00000000 00000038   51		nop
                            52	 #	    .ef
                            53		.type	GUI_Log,@function
                            54		.size	GUI_Log,.-GUI_Log
                            55		.align	4
                            56	
                            57	 #s	none	param

                                   Tue Apr 07 08:55:02 2015           Page 3
                                   Tue Apr 07 08:55:02 2015       gh_2i06o.s
                            58	
                            59		.data
                            60	.L69:
                            61		.text
                            62		.align	4
                            63		.align	4
                            64		.globl	GUI_Log1
                            65	GUI_Log1:
        27bdffb0 0000003c   66		addiu	$sp, $sp, -80
                            67	 #	    .bf
        afbf004c 00000040   68		sw	$ra, 76($sp)
        afb10004 00000044   69		sw	$17, 4($sp)
        27b1000c 00000048   70		addiu	$17, $sp, 12
        afb10008 0000004c   71		sw	$17, 8($sp)
        00803025 00000050   72		move	$6, $4
        02202025 00000054   73		move	$4, $17
        afb00000 00000058   74		sw	$16, 0($sp)
        00a08025 0000005c   75		move	$16, $5
        00c02825 00000060   76		move	$5, $6
        0c000000 00000064   77		jal	_CopyString
        34060032 00000068   78		ori	$6, $0, 50
        8fa20008 0000006c   79		lw	$2, 8($sp)
        00401825 00000070   80		move	$3, $2
        80790000 00000074   81		lb	$25, 0($3)
                            82	.L1000080:
        24630001 00000078   83		addiu	$3, $3, 1
        5720fffe 0000007c   84		bnel	$25, $0, .L1000080
        80790000 00000080   85		lb	$25, 0($3)
        8fae0008 00000084   86		lw	$14, 8($sp)
        246fffff 00000088   87		addiu	$15, $3, -1
        01e21823 0000008c   88		subu	$3, $15, $2
        01c37021 00000090   89		addu	$14, $14, $3
        afae0008 00000094   90		sw	$14, 8($sp)
        02002025 00000098   91		move	$4, $16
        34050008 0000009c   92		ori	$5, $0, 8
        0c000000 000000a0   93		jal	GUI__AddSpaceHex
        27a60008 000000a4   94		addiu	$6, $sp, 8
        0c000000 000000a8   95		jal	GUI_Log
        02202025 000000ac   96		move	$4, $17
                            97	 #	    .ef
        8fbf004c 000000b0   98		lw	$ra, 76($sp)
        8fb00000 000000b4   99		lw	$16, 0($sp)
        8fb10004 000000b8  100		lw	$17, 4($sp)
        03e00008 000000bc  101		jr	$ra
        27bd0050 000000c0  102		addiu	$sp, $sp, 80
                           103		.type	GUI_Log1,@function
                           104		.size	GUI_Log1,.-GUI_Log1
                           105		.align	4
                           106	 #ac	12($sp)	local
                           107	 #sOut	8($sp)	local
                           108	 #__GHS_S	$3	local
                           109	
                           110	 #s	$6	param
                           111	 #p0	$16	param
                           112	
                           113		.data

                                   Tue Apr 07 08:55:02 2015           Page 4
                                   Tue Apr 07 08:55:02 2015       gh_2i06o.s
                           114	.L100:
                           115		.text
                           116		.align	4
                           117		.align	4
                           118		.globl	GUI_Log2
                           119	GUI_Log2:
        27bdff98 000000c4  120		addiu	$sp, $sp, -104
                           121	 #	    .bf
        afbf0064 000000c8  122		sw	$ra, 100($sp)
        afb3000c 000000cc  123		sw	$19, 12($sp)
        afb10004 000000d0  124		sw	$17, 4($sp)
        00c08825 000000d4  125		move	$17, $6
        afb20008 000000d8  126		sw	$18, 8($sp)
        27b20018 000000dc  127		addiu	$18, $sp, 24
        afb20014 000000e0  128		sw	$18, 20($sp)
        00803825 000000e4  129		move	$7, $4
        02402025 000000e8  130		move	$4, $18
        afb00000 000000ec  131		sw	$16, 0($sp)
        00a08025 000000f0  132		move	$16, $5
        00e02825 000000f4  133		move	$5, $7
        0c000000 000000f8  134		jal	_CopyString
        34060032 000000fc  135		ori	$6, $0, 50
        8fa20014 00000100  136		lw	$2, 20($sp)
        00401825 00000104  137		move	$3, $2
        80790000 00000108  138		lb	$25, 0($3)
                           139	.L1000116:
        24630001 0000010c  140		addiu	$3, $3, 1
        5720fffe 00000110  141		bnel	$25, $0, .L1000116
        80790000 00000114  142		lb	$25, 0($3)
        8fae0014 00000118  143		lw	$14, 20($sp)
        246fffff 0000011c  144		addiu	$15, $3, -1
        01e21823 00000120  145		subu	$3, $15, $2
        01c37021 00000124  146		addu	$14, $14, $3
        afae0014 00000128  147		sw	$14, 20($sp)
        02002025 0000012c  148		move	$4, $16
        27b30014 00000130  149		addiu	$19, $sp, 20
        02603025 00000134  150		move	$6, $19
        0c000000 00000138  151		jal	GUI__AddSpaceHex
        34050008 0000013c  152		ori	$5, $0, 8
        02202025 00000140  153		move	$4, $17
        02603025 00000144  154		move	$6, $19
        0c000000 00000148  155		jal	GUI__AddSpaceHex
        34050008 0000014c  156		ori	$5, $0, 8
        0c000000 00000150  157		jal	GUI_Log
        02402025 00000154  158		move	$4, $18
                           159	 #	    .ef
        8fb10004 00000158  160		lw	$17, 4($sp)
        8fb00000 0000015c  161		lw	$16, 0($sp)
        8fbf0064 00000160  162		lw	$ra, 100($sp)
        8fb20008 00000164  163		lw	$18, 8($sp)
        8fb3000c 00000168  164		lw	$19, 12($sp)
        03e00008 0000016c  165		jr	$ra
        27bd0068 00000170  166		addiu	$sp, $sp, 104
                           167		.type	GUI_Log2,@function
                           168		.size	GUI_Log2,.-GUI_Log2
                           169		.align	4

                                   Tue Apr 07 08:55:02 2015           Page 5
                                   Tue Apr 07 08:55:02 2015       gh_2i06o.s
                           170	 #ac	24($sp)	local
                           171	 #sOut	20($sp)	local
                           172	 #__GHS_S	$3	local
                           173	
                           174	 #s	$7	param
                           175	 #p0	$16	param
                           176	 #p1	$17	param
                           177	
                           178		.data
                           179	.L136:
                           180		.text
                           181		.align	4
                           182		.align	4
                           183		.globl	GUI_Log3
                           184	GUI_Log3:
        27bdff90 00000174  185		addiu	$sp, $sp, -112
                           186	 #	    .bf
        afbf006c 00000178  187		sw	$ra, 108($sp)
        afb40010 0000017c  188		sw	$20, 16($sp)
        afb10004 00000180  189		sw	$17, 4($sp)
        00c08825 00000184  190		move	$17, $6
        afb20008 00000188  191		sw	$18, 8($sp)
        00e09025 0000018c  192		move	$18, $7
        afb3000c 00000190  193		sw	$19, 12($sp)
        27b30018 00000194  194		addiu	$19, $sp, 24
        afb30014 00000198  195		sw	$19, 20($sp)
        00804025 0000019c  196		move	$8, $4
        02602025 000001a0  197		move	$4, $19
        afb00000 000001a4  198		sw	$16, 0($sp)
        00a08025 000001a8  199		move	$16, $5
        01002825 000001ac  200		move	$5, $8
        0c000000 000001b0  201		jal	_CopyString
        34060032 000001b4  202		ori	$6, $0, 50
        8fa20014 000001b8  203		lw	$2, 20($sp)
        00401825 000001bc  204		move	$3, $2
        80790000 000001c0  205		lb	$25, 0($3)
                           206	.L1000152:
        24630001 000001c4  207		addiu	$3, $3, 1
        5720fffe 000001c8  208		bnel	$25, $0, .L1000152
        80790000 000001cc  209		lb	$25, 0($3)
        8fae0014 000001d0  210		lw	$14, 20($sp)
        246fffff 000001d4  211		addiu	$15, $3, -1
        01e21823 000001d8  212		subu	$3, $15, $2
        01c37021 000001dc  213		addu	$14, $14, $3
        afae0014 000001e0  214		sw	$14, 20($sp)
        02002025 000001e4  215		move	$4, $16
        27b40014 000001e8  216		addiu	$20, $sp, 20
        02803025 000001ec  217		move	$6, $20
        0c000000 000001f0  218		jal	GUI__AddSpaceHex
        34050008 000001f4  219		ori	$5, $0, 8
        02202025 000001f8  220		move	$4, $17
        02803025 000001fc  221		move	$6, $20
        0c000000 00000200  222		jal	GUI__AddSpaceHex
        34050008 00000204  223		ori	$5, $0, 8
        02402025 00000208  224		move	$4, $18
        02803025 0000020c  225		move	$6, $20

                                   Tue Apr 07 08:55:02 2015           Page 6
                                   Tue Apr 07 08:55:02 2015       gh_2i06o.s
        0c000000 00000210  226		jal	GUI__AddSpaceHex
        34050008 00000214  227		ori	$5, $0, 8
        0c000000 00000218  228		jal	GUI_Log
        02602025 0000021c  229		move	$4, $19
                           230	 #	    .ef
        8fb20008 00000220  231		lw	$18, 8($sp)
        8fb10004 00000224  232		lw	$17, 4($sp)
        8fb00000 00000228  233		lw	$16, 0($sp)
        8fbf006c 0000022c  234		lw	$ra, 108($sp)
        8fb3000c 00000230  235		lw	$19, 12($sp)
        8fb40010 00000234  236		lw	$20, 16($sp)
        03e00008 00000238  237		jr	$ra
        27bd0070 0000023c  238		addiu	$sp, $sp, 112
                           239		.type	GUI_Log3,@function
                           240		.size	GUI_Log3,.-GUI_Log3
                           241		.align	4
                           242	 #ac	24($sp)	local
                           243	 #sOut	20($sp)	local
                           244	 #__GHS_S	$3	local
                           245	
                           246	 #s	$8	param
                           247	 #p0	$16	param
                           248	 #p1	$17	param
                           249	 #p2	$18	param
                           250	
                           251		.data
                           252	.L172:
                           253		.text
                           254		.align	4
                           255		.align	4
                           256		.globl	GUI_Log4
                           257	GUI_Log4:
        27bdff80 00000240  258		addiu	$sp, $sp, -128
                           259	 #	    .bf
        afbf007c 00000244  260		sw	$ra, 124($sp)
        afb40010 00000248  261		sw	$20, 16($sp)
        afb10004 0000024c  262		sw	$17, 4($sp)
        00c08825 00000250  263		move	$17, $6
        afb20008 00000254  264		sw	$18, 8($sp)
        00e09025 00000258  265		move	$18, $7
        afb3000c 0000025c  266		sw	$19, 12($sp)
        01009825 00000260  267		move	$19, $8
        afb50014 00000264  268		sw	$21, 20($sp)
        27b5001c 00000268  269		addiu	$21, $sp, 28
        afb50018 0000026c  270		sw	$21, 24($sp)
        00804825 00000270  271		move	$9, $4
        02a02025 00000274  272		move	$4, $21
        afb00000 00000278  273		sw	$16, 0($sp)
        00a08025 0000027c  274		move	$16, $5
        01202825 00000280  275		move	$5, $9
        0c000000 00000284  276		jal	_CopyString
        34060032 00000288  277		ori	$6, $0, 50
        8fa20018 0000028c  278		lw	$2, 24($sp)
        00401825 00000290  279		move	$3, $2
        80790000 00000294  280		lb	$25, 0($3)
                           281	.L1000188:

                                   Tue Apr 07 08:55:02 2015           Page 7
                                   Tue Apr 07 08:55:02 2015       gh_2i06o.s
        24630001 00000298  282		addiu	$3, $3, 1
        5720fffe 0000029c  283		bnel	$25, $0, .L1000188
        80790000 000002a0  284		lb	$25, 0($3)
        8fae0018 000002a4  285		lw	$14, 24($sp)
        246fffff 000002a8  286		addiu	$15, $3, -1
        01e21823 000002ac  287		subu	$3, $15, $2
        01c37021 000002b0  288		addu	$14, $14, $3
        afae0018 000002b4  289		sw	$14, 24($sp)
        02002025 000002b8  290		move	$4, $16
        27b40018 000002bc  291		addiu	$20, $sp, 24
        02803025 000002c0  292		move	$6, $20
        0c000000 000002c4  293		jal	GUI__AddSpaceHex
        34050008 000002c8  294		ori	$5, $0, 8
        02202025 000002cc  295		move	$4, $17
        02803025 000002d0  296		move	$6, $20
        0c000000 000002d4  297		jal	GUI__AddSpaceHex
        34050008 000002d8  298		ori	$5, $0, 8
        02402025 000002dc  299		move	$4, $18
        02803025 000002e0  300		move	$6, $20
        0c000000 000002e4  301		jal	GUI__AddSpaceHex
        34050008 000002e8  302		ori	$5, $0, 8
        02602025 000002ec  303		move	$4, $19
        02803025 000002f0  304		move	$6, $20
        0c000000 000002f4  305		jal	GUI__AddSpaceHex
        34050008 000002f8  306		ori	$5, $0, 8
        0c000000 000002fc  307		jal	GUI_Log
        02a02025 00000300  308		move	$4, $21
                           309	 #	    .ef
        8fb3000c 00000304  310		lw	$19, 12($sp)
        8fb20008 00000308  311		lw	$18, 8($sp)
        8fb10004 0000030c  312		lw	$17, 4($sp)
        8fb00000 00000310  313		lw	$16, 0($sp)
        8fbf007c 00000314  314		lw	$ra, 124($sp)
        8fb40010 00000318  315		lw	$20, 16($sp)
        8fb50014 0000031c  316		lw	$21, 20($sp)
        03e00008 00000320  317		jr	$ra
        27bd0080 00000324  318		addiu	$sp, $sp, 128
                           319		.type	GUI_Log4,@function
                           320		.size	GUI_Log4,.-GUI_Log4
                           321		.align	4
                           322	 #ac	28($sp)	local
                           323	 #sOut	24($sp)	local
                           324	 #__GHS_S	$3	local
                           325	
                           326	 #s	$9	param
                           327	 #p0	$16	param
                           328	 #p1	$17	param
                           329	 #p2	$18	param
                           330	 #p3	$19	param
                           331	
                           332		.data
                           333	.L208:
                           334		.text
                           335		.align	4
                           336	
                           337		.data

                                   Tue Apr 07 08:55:02 2015           Page 8
                                   Tue Apr 07 08:55:02 2015       gh_2i06o.s
                           338		.text
