
                                   Tue Apr 07 08:56:10 2015           Page 1
                                   Tue Apr 07 08:56:10 2015       gh_2i086.s
Command Line:   C:\GHS\V35\mips35\asmips.exe -noundefined -elf -b0
                -IC:\local\Workspace\DC_V04.01.00_int\cu3x1Platform_SRC\emWinColour
                -IC:\local\Workspace\DC_V04.01.00_int\cu3x1Platform_SRC\platform\include
                -IC:\local\Workspace\DC_V04.01.00_int\cu3x1Platform_SRC\platform\common
                -IC:\local\Workspace\DC_V04.01.00_int\cu3x1Platform_SRC\platform\hardware
                -IC:\local\Workspace\DC_V04.01.00_int\cu3x1Platform_SRC\platform\hardware\D3018X
                -IC:\local\Workspace\DC_V04.01.00_int\cu3x1Platform_SRC\embos\inc
                -IC:\local\Workspace\DC_V04.01.00_int\cu3x1Platform_SRC\emWinColour\config
                -IC:\local\Workspace\DC_V04.01.00_int\cu3x1Platform_SRC\emWinColour\gui\ConvertMono
                -IC:\local\Workspace\DC_V04.01.00_int\cu3x1Platform_SRC\emWinColour\gui\Core
                -IC:\local\Workspace\DC_V04.01.00_int\cu3x1Platform_SRC\emWinColour\gui\Font
                -IC:\local\Workspace\DC_V04.01.00_int\cu3x1Platform_SRC\emWinColour\gui\LCDDriver
                -IC:\local\Workspace\DC_V04.01.00_int\cu3x1Platform_SRC\emWinColour\gui\MemDev
                -IC:\local\Workspace\DC_V04.01.00_int\cu3x1Platform_SRC\emWinColour\gui\VNC
                -IC:\local\Workspace\DC_V04.01.00_int\cu3x1Platform_SRC\emWinColour\gui\Widget
                -IC:\local\Workspace\DC_V04.01.00_int\cu3x1Platform_SRC\emWinColour\gui\wm
                -IC:\local\Workspace\DC_V04.01.00_int\cu3x1App_SRC\Control\source
                -IC:\local\Workspace\DC_V04.01.00_int\cu3x1App_SRC\Control\source\include
                -IC:\local\Workspace\DC_V04.01.00_int\cu3x1App_SRC\Control\source\util
                -IC:\local\Workspace\DC_V04.01.00_int\cu3x1App_SRC\Control\source\datapoint
                -IC:\local\Workspace\DC_V04.01.00_int\cu3x1App_SRC\Control\source\factory
                -IC:\local\Workspace\DC_V04.01.00_int\cu3x1Platform_SRC\embos
                -IC:\local\Workspace\DC_V04.01.00_int\cu3x1Platform_SRC\emWinColour\gui\core
                -IC:\local\Workspace\DC_V04.01.00_int\cu3x1App_SRC\Control\source\rtip\webpage
                -IC:\local\Workspace\DC_V04.01.00_int\cu3x1App_SRC\Control\source\rtip\config
                -IC:\local\Workspace\DC_V04.01.00_int\cu3x1App_SRC\Control\source\rtip\xnet
                -IC:\local\Workspace\DC_V04.01.00_int\cu3x1App_SRC\Control\source\stub
                -IC:\local\Workspace\DC_V04.01.00_int\cu3x1App_SRC\Control\source\test
                -IC:\local\Workspace\DC_V04.01.00_int\cu3x1App_SRC\Control\source\GENIpro
                -IC:\local\Workspace\DC_V04.01.00_int\cu3x1App_SRC\Control\source\GENIpro\GENI_sys
                -IC:\local\Workspace\DC_V04.01.00_int\cu3x1App_SRC\Control\source\GENIpro\GENIusb\emUSB\USB\Driver
                -IC:\local\Workspace\DC_V04.01.00_int\cu3x1App_SRC\Control\source\application\intercom
                -IC:\local\Workspace\DC_V04.01.00_int\cu3x1App_SRC\Control\source\application\controller
                -IC:\local\Workspace\DC_V04.01.00_int\cu3x1App_SRC\Control\source\application\driver
                -IC:\local\Workspace\DC_V04.01.00_int\cu3x1App_SRC\Control\source\application\webif
                -IC:\local\Workspace\DC_V04.01.00_int\cu3x1App_SRC\Control\source\application\relay
                -IC:\local\Workspace\DC_V04.01.00_int\cu3x1App_SRC\Control\source\application\GENIApp
                -IC:\local\Workspace\DC_V04.01.00_int\cu3x1App_SRC\Control\source\application\alarm
                -IC:\local\Workspace\DC_V04.01.00_int\cu3x1App_SRC\Control\source\application\config
                -IC:\local\Workspace\DC_V04.01.00_int\cu3x1App_SRC\Control\source\application\AnaInConfigCtrl
                -IC:\local\Workspace\DC_V04.01.00_int\cu3x1App_SRC\Control\source\application\Sms
                -IC:\local\Workspace\DC_V04.01.00_int\cu3x1App_SRC\Control\source\application\display
                -IC:\local\Workspace\DC_V04.01.00_int\cu3x1App_SRC\Control\source\application\display\display_task
                -IC:\local\Workspace\DC_V04.01.00_int\cu3x1App_SRC\Control\source\application\display\gui_utility
                -IC:\local\Workspace\DC_V04.01.00_int\cu3x1App_SRC\Control\source\application\display\mpcunit
                -IC:\local\Workspace\DC_V04.01.00_int\cu3x1App_SRC\Control\source\GeniPro
                -IC:\local\Workspace\DC_V04.01.00_int\cu3x1App_SRC\Control\source\GeniPro\GENI_sys
                -IC:\local\Workspace\DC_V04.01.00_int\cu3x1App_SRC\Control\source\GeniPro\GENIbus
                -IC:\local\Workspace\DC_V04.01.00_int\cu3x1App_SRC\Control\source\GeniPro\GENIcom
                -IC:\local\Workspace\DC_V04.01.00_int\cu3x1App_SRC\Control\source\GeniPro\GENIrs232
                -IC:\local\Workspace\DC_V04.01.00_int\cu3x1App_SRC\Control\source\GeniPro\Virtual
                -IC:\local\Workspace\DC_V04.01.00_int\cu3x1Platform_SRC\Platform\common
                -IC:\local\Workspace\DC_V04.01.00_int\cu3x1Platform_SRC\Platform\hardware
                -IC:\local\Workspace\DC_V04.01.00_int\cu3x1Platform_SRC\Platform\hardware\D3018X
                -IC:\local\Workspace\DC_V04.01.00_int\cu3x1App_SRC\Control\source\application\display\imagesTFT
                -IC:\GHS\V35\mips35\mipsl_sf -r4121 -source=GUIAlloc.c -o
                objs\gh_2i086.o -list=objs\GUIAlloc.lst
                C:\Users\55602\AppData\Local\Temp\gh_2i086.s
Source File:    C:\Users\55602\AppData\Local\Temp\gh_2i086.s
Directory:      C:\local\Workspace\DC_V04.01.00_int\cu3x1App_SRC\Control\source
Host OS:        GHS_WIN32
Version:        AS-MIPS 3.5#11 
Release:        MULTI 2000, MIPS v3.5
Revision Date:  Wed Feb 27 12:19:03 2002
Release Date:   Sat Mar 02 02:57:59 2002
                             1	 #Source File:   C:\local\Workspace\DC_V04.01.00_int\cu3x1Platform_SRC\emWinColour\GUI\Core\GUIAlloc.c

                                   Tue Apr 07 08:56:10 2015           Page 2
                                   Tue Apr 07 08:56:10 2015       gh_2i086.s
                             2	 #Directory:     
                             3	 #		C:\local\Workspace\DC_V04.01.00_int\cu3x1App_SRC\Control\source
                             4	 #Compile Date:  Tue Apr 07 08:56:10 2015
                             5	 #Host OS:       Win32
                             6	 #Version:       C-MIPS 3.5#11 RELEASE VERSION
                             7	 #Release:       MULTI 2000, MIPS v3.5
                             8	 #Revision Date: Fri Mar 01 11:32:40 2002
                             9	 #Release Date:  Sat Mar 02 02:58:48 2002
                            10		.set	noat
                            11		.set	noreorder
                            12		.set	nomacro
                            13		.text
                            14		.align	4
                            15	_CheckInit:
        83990000 00000000   16		lb	$25, %sdaoff(.L366)($28)
                            17	 #	    .bf
        17200003 00000004   18		bne	$25, $0, .L347
        00000000 00000008   19		nop
        08000000 0000000c   20		j	GUI_ALLOC_Init
        00000000 00000010   21		nop
                            22	.L347:
                            23	 #	    .ef
        03e00008 00000014   24		jr	$ra
        00000000 00000018   25		nop
                            26		.type	_CheckInit,@function
                            27		.size	_CheckInit,.-_CheckInit
                            28		.align	4
                            29	
                            30		.data
                            31	.L365:
                            32		.section ".sdata","aw"
                            33	.L366:
                            34	IsInitialized:	.type	IsInitialized,@object
                            35		.size	IsInitialized,1
              00 00000000   36		.byte	0
                            37		.data
                            38		.bss	aBlock,98328,4
                            39	
                            40		.lsbss	_LockCnt,4,4
                            41	
                            42		.text
                            43		.align	4
                            44		.align	4
                            45	_GetNumFreeBytes:
        8f990000 0000001c   46		lw	$25, %sdaoff(_LockCnt)($28)
                            47	 #	    .bf
        53200003 00000020   48		beql	$25, $0, .L1000377
        3c010000 00000024   49		lui	$1, %hi(GUI_ALLOC+16)
        08000000 00000028   50		j	GUI_ALLOC_GetMaxSize
        00000000 0000002c   51		nop
                            52	.L1000377:
                            53	 #	    .ef
        03e00008 00000030   54		jr	$ra
        8c220000 00000034   55		lw	$2, %lo(GUI_ALLOC+16)($1)
                            56		.type	_GetNumFreeBytes,@function
                            57		.size	_GetNumFreeBytes,.-_GetNumFreeBytes

                                   Tue Apr 07 08:56:10 2015           Page 3
                                   Tue Apr 07 08:56:10 2015       gh_2i086.s
                            58		.align	4
                            59	
                            60		.data
                            61	.L398:
                            62		.text
                            63		.align	4
                            64		.align	4
                            65		.globl	GUI_ALLOC_Init
                            66	GUI_ALLOC_Init:
        340d0001 00000038   67		ori	$13, $0, 1
                            68	 #	    .bf
                            69	 #	    .ef
        a38d0000 0000003c   70		sb	$13, %sdaoff(.L366)($28)
        34192001 00000040   71		ori	$25, $0, 8193
        3c030000 00000044   72		lui	$3, %hi(GUI_ALLOC)
        24630000 00000048   73		addiu	$3, $3, %lo(GUI_ALLOC)
        ac790004 0000004c   74		sw	$25, 4($3)
        ac790008 00000050   75		sw	$25, 8($3)
        3c0f0004 00000054   76		lui	$15, 4
        ac6f0010 00000058   77		sw	$15, 16($3)
        ac6f0014 0000005c   78		sw	$15, 20($3)
        ac600000 00000060   79		sw	$0, 0($3)
        ac60000c 00000064   80		sw	$0, 12($3)
        3c030000 00000068   81		lui	$3, %hi(aBlock)
        24630000 0000006c   82		addiu	$3, $3, %lo(aBlock)
        34180004 00000070   83		ori	$24, $0, 4
        ac780004 00000074   84		sw	$24, 4($3)
        ac600000 00000078   85		sw	$0, 0($3)
        03e00008 0000007c   86		jr	$ra
        a4600008 00000080   87		sh	$0, 8($3)
                            88		.type	GUI_ALLOC_Init,@function
                            89		.size	GUI_ALLOC_Init,.-GUI_ALLOC_Init
                            90		.align	4
                            91	
                            92		.data
                            93	.L421:
                            94		.text
                            95		.align	4
                            96		.align	4
                            97		.globl	GUI_ALLOC_AllocNoInit
                            98	GUI_ALLOC_AllocNoInit:
        27bdffe8 00000084   99		addiu	$sp, $sp, -24
                           100	 #	    .bf
        afb10004 00000088  101		sw	$17, 4($sp)
        afb20008 0000008c  102		sw	$18, 8($sp)
        afb00000 00000090  103		sw	$16, 0($sp)
        00808025 00000094  104		move	$16, $4
        16000005 00000098  105		bne	$16, $0, .L429
        afbf0014 0000009c  106		sw	$ra, 20($sp)
        8fb00000 000000a0  107		lw	$16, 0($sp)
        27bd0018 000000a4  108		addiu	$sp, $sp, 24
        03e00008 000000a8  109		jr	$ra
        34020000 000000ac  110		ori	$2, $0, 0
                           111	.L429:
        0c000000 000000b0  112		jal	GUI_Lock
        00000000 000000b4  113		nop

                                   Tue Apr 07 08:56:10 2015           Page 4
                                   Tue Apr 07 08:56:10 2015       gh_2i086.s
        0c000000 000000b8  114		jal	_CheckInit
        00000000 000000bc  115		nop
        26180003 000000c0  116		addiu	$24, $16, 3
        240ffffc 000000c4  117		addiu	$15, $0, -4
        0c000000 000000c8  118		jal	_GetNumFreeBytes
        01f88024 000000cc  119		and	$16, $15, $24
        0050182a 000000d0  120		slt	$3, $2, $16
        5060000a 000000d4  121		beql	$3, $0, .L1000436
        34030001 000000d8  122		ori	$3, $0, 1
        0c000000 000000dc  123		jal	GUI_Unlock
        00000000 000000e0  124		nop
        8fb20008 000000e4  125		lw	$18, 8($sp)
        8fb10004 000000e8  126		lw	$17, 4($sp)
        8fbf0014 000000ec  127		lw	$ra, 20($sp)
        8fb00000 000000f0  128		lw	$16, 0($sp)
        27bd0018 000000f4  129		addiu	$sp, $sp, 24
        03e00008 000000f8  130		jr	$ra
        34020000 000000fc  131		ori	$2, $0, 0
                           132	.L1000436:
        340b0400 00000100  133		ori	$11, $0, 1024
        3c110000 00000104  134		lui	$17, %hi(aBlock)
        26310000 00000108  135		addiu	$17, $17, %lo(aBlock)
        02205025 0000010c  136		move	$10, $17
        01401025 00000110  137		move	$2, $10
                           138	.L720:
        00036880 00000114  139		sll	$13, $3, 2
        01a37023 00000118  140		subu	$14, $13, $3
        000e7080 0000011c  141		sll	$14, $14, 2
        004ec821 00000120  142		addu	$25, $2, $14
        8f2f0004 00000124  143		lw	$15, 4($25)
        55e00007 00000128  144		bnel	$15, $0, .L1000723
        24630001 0000012c  145		addiu	$3, $3, 1
        00032c00 00000130  146		sll	$5, $3, 16
        00052c03 00000134  147		sra	$5, $5, 16
        10a0006d 00000138  148		beq	$5, $0, .L442
        00000000 0000013c  149		nop
        08000000 00000140  150		j	.L1000443
        01405825 00000144  151		move	$11, $10
                           152	.L1000723:
        0003c080 00000148  153		sll	$24, $3, 2
        0303c823 0000014c  154		subu	$25, $24, $3
        0019c880 00000150  155		sll	$25, $25, 2
        00597821 00000154  156		addu	$15, $2, $25
        8ded0004 00000158  157		lw	$13, 4($15)
        55a00007 0000015c  158		bnel	$13, $0, .L1000726
        24630001 00000160  159		addiu	$3, $3, 1
        00032c00 00000164  160		sll	$5, $3, 16
        00052c03 00000168  161		sra	$5, $5, 16
        10a00060 0000016c  162		beq	$5, $0, .L442
        00000000 00000170  163		nop
        08000000 00000174  164		j	.L1000443
        01405825 00000178  165		move	$11, $10
                           166	.L1000726:
        00037080 0000017c  167		sll	$14, $3, 2
        01c37823 00000180  168		subu	$15, $14, $3
        000f7880 00000184  169		sll	$15, $15, 2

                                   Tue Apr 07 08:56:10 2015           Page 5
                                   Tue Apr 07 08:56:10 2015       gh_2i086.s
        004f6821 00000188  170		addu	$13, $2, $15
        8db80004 0000018c  171		lw	$24, 4($13)
        57000007 00000190  172		bnel	$24, $0, .L1000729
        24630001 00000194  173		addiu	$3, $3, 1
        00032c00 00000198  174		sll	$5, $3, 16
        00052c03 0000019c  175		sra	$5, $5, 16
        10a00053 000001a0  176		beq	$5, $0, .L442
        00000000 000001a4  177		nop
        08000000 000001a8  178		j	.L1000443
        01405825 000001ac  179		move	$11, $10
                           180	.L1000729:
        0003c880 000001b0  181		sll	$25, $3, 2
        03236823 000001b4  182		subu	$13, $25, $3
        000d6880 000001b8  183		sll	$13, $13, 2
        004dc021 000001bc  184		addu	$24, $2, $13
        8f0e0004 000001c0  185		lw	$14, 4($24)
        55c00007 000001c4  186		bnel	$14, $0, .L1000732
        24630001 000001c8  187		addiu	$3, $3, 1
        00032c00 000001cc  188		sll	$5, $3, 16
        00052c03 000001d0  189		sra	$5, $5, 16
        10a00046 000001d4  190		beq	$5, $0, .L442
        00000000 000001d8  191		nop
        08000000 000001dc  192		j	.L1000443
        01405825 000001e0  193		move	$11, $10
                           194	.L1000732:
        00037880 000001e4  195		sll	$15, $3, 2
        01e3c023 000001e8  196		subu	$24, $15, $3
        0018c080 000001ec  197		sll	$24, $24, 2
        00587021 000001f0  198		addu	$14, $2, $24
        8dd90004 000001f4  199		lw	$25, 4($14)
        57200007 000001f8  200		bnel	$25, $0, .L1000735
        24630001 000001fc  201		addiu	$3, $3, 1
        00032c00 00000200  202		sll	$5, $3, 16
        00052c03 00000204  203		sra	$5, $5, 16
        10a00039 00000208  204		beq	$5, $0, .L442
        00000000 0000020c  205		nop
        08000000 00000210  206		j	.L1000443
        01405825 00000214  207		move	$11, $10
                           208	.L1000735:
        00036880 00000218  209		sll	$13, $3, 2
        01a37023 0000021c  210		subu	$14, $13, $3
        000e7080 00000220  211		sll	$14, $14, 2
        004ec821 00000224  212		addu	$25, $2, $14
        8f2f0004 00000228  213		lw	$15, 4($25)
        55e00007 0000022c  214		bnel	$15, $0, .L1000738
        24630001 00000230  215		addiu	$3, $3, 1
        00032c00 00000234  216		sll	$5, $3, 16
        00052c03 00000238  217		sra	$5, $5, 16
        10a0002c 0000023c  218		beq	$5, $0, .L442
        00000000 00000240  219		nop
        08000000 00000244  220		j	.L1000443
        01405825 00000248  221		move	$11, $10
                           222	.L1000738:
        0003c080 0000024c  223		sll	$24, $3, 2
        0303c823 00000250  224		subu	$25, $24, $3
        0019c880 00000254  225		sll	$25, $25, 2

                                   Tue Apr 07 08:56:10 2015           Page 6
                                   Tue Apr 07 08:56:10 2015       gh_2i086.s
        00597821 00000258  226		addu	$15, $2, $25
        8ded0004 0000025c  227		lw	$13, 4($15)
        55a00007 00000260  228		bnel	$13, $0, .L1000741
        24630001 00000264  229		addiu	$3, $3, 1
        00032c00 00000268  230		sll	$5, $3, 16
        00052c03 0000026c  231		sra	$5, $5, 16
        10a0001f 00000270  232		beq	$5, $0, .L442
        00000000 00000274  233		nop
        08000000 00000278  234		j	.L1000443
        01405825 0000027c  235		move	$11, $10
                           236	.L1000741:
        00037080 00000280  237		sll	$14, $3, 2
        01c37823 00000284  238		subu	$15, $14, $3
        000f7880 00000288  239		sll	$15, $15, 2
        004f6821 0000028c  240		addu	$13, $2, $15
        8db80004 00000290  241		lw	$24, 4($13)
        57000007 00000294  242		bnel	$24, $0, .L1000743
        256bffff 00000298  243		addiu	$11, $11, -1
        00032c00 0000029c  244		sll	$5, $3, 16
        00052c03 000002a0  245		sra	$5, $5, 16
        10a00012 000002a4  246		beq	$5, $0, .L442
        00000000 000002a8  247		nop
        08000000 000002ac  248		j	.L1000443
        01405825 000002b0  249		move	$11, $10
                           250	.L1000743:
        1560ff97 000002b4  251		bne	$11, $0, .L720
        24630001 000002b8  252		addiu	$3, $3, 1
        0003c080 000002bc  253		sll	$24, $3, 2
        0303c823 000002c0  254		subu	$25, $24, $3
        0019c880 000002c4  255		sll	$25, $25, 2
        01597821 000002c8  256		addu	$15, $10, $25
        8ded0004 000002cc  257		lw	$13, 4($15)
        55a00007 000002d0  258		bnel	$13, $0, .L442
        34050000 000002d4  259		ori	$5, $0, 0
        00032c00 000002d8  260		sll	$5, $3, 16
        00052c03 000002dc  261		sra	$5, $5, 16
        10a00003 000002e0  262		beq	$5, $0, .L442
        00000000 000002e4  263		nop
        08000000 000002e8  264		j	.L1000443
        01405825 000002ec  265		move	$11, $10
                           266	.L442:
        0c000000 000002f0  267		jal	GUI_Unlock
        00000000 000002f4  268		nop
        8fb20008 000002f8  269		lw	$18, 8($sp)
        8fb10004 000002fc  270		lw	$17, 4($sp)
        8fbf0014 00000300  271		lw	$ra, 20($sp)
        8fb00000 00000304  272		lw	$16, 0($sp)
        27bd0018 00000308  273		addiu	$sp, $sp, 24
        03e00008 0000030c  274		jr	$ra
        34020000 00000310  275		ori	$2, $0, 0
                           276	.L1000443:
        01607825 00000314  277		move	$15, $11
        95e30008 00000318  278		lhu	$3, 8($15)
        34020000 0000031c  279		ori	$2, $0, 0
        1060001a 00000320  280		beq	$3, $0, .L448
        00036880 00000324  281		sll	$13, $3, 2

                                   Tue Apr 07 08:56:10 2015           Page 7
                                   Tue Apr 07 08:56:10 2015       gh_2i086.s
                           282	.L1000444:
        01a37023 00000328  283		subu	$14, $13, $3
        000e7080 0000032c  284		sll	$14, $14, 2
        8df80004 00000330  285		lw	$24, 4($15)
        8def0000 00000334  286		lw	$15, 0($15)
        016ec821 00000338  287		addu	$25, $11, $14
        8f2e0000 0000033c  288		lw	$14, 0($25)
        01f8c021 00000340  289		addu	$24, $15, $24
        01d8c823 00000344  290		subu	$25, $14, $24
        0330682a 00000348  291		slt	$13, $25, $16
        55a00008 0000034c  292		bnel	$13, $0, .L1000446
        00601025 00000350  293		move	$2, $3
        00021c00 00000354  294		sll	$3, $2, 16
        00031c03 00000358  295		sra	$3, $3, 16
        2419ffff 0000035c  296		addiu	$25, $0, -1
        5079001a 00000360  297		beql	$3, $25, .L1000452
        8f8f0000 00000364  298		lw	$15, %sdaoff(_LockCnt)($28)
        08000000 00000368  299		j	.L1000472
        2419ffff 0000036c  300		addiu	$25, $0, -1
                           301	.L1000446:
        00027880 00000370  302		sll	$15, $2, 2
        01e2c023 00000374  303		subu	$24, $15, $2
        0018c080 00000378  304		sll	$24, $24, 2
        01787821 0000037c  305		addu	$15, $11, $24
        95e30008 00000380  306		lhu	$3, 8($15)
        5460ffe8 00000384  307		bnel	$3, $0, .L1000444
        00036880 00000388  308		sll	$13, $3, 2
                           309	.L448:
        8df90000 0000038c  310		lw	$25, 0($15)
        8ded0004 00000390  311		lw	$13, 4($15)
        3c0f0004 00000394  312		lui	$15, 4
        032d6821 00000398  313		addu	$13, $25, $13
        01edc023 0000039c  314		subu	$24, $15, $13
        0310702a 000003a0  315		slt	$14, $24, $16
        55c00008 000003a4  316		bnel	$14, $0, .L452
        2403ffff 000003a8  317		addiu	$3, $0, -1
        00021c00 000003ac  318		sll	$3, $2, 16
        00031c03 000003b0  319		sra	$3, $3, 16
        2419ffff 000003b4  320		addiu	$25, $0, -1
        50790004 000003b8  321		beql	$3, $25, .L1000452
        8f8f0000 000003bc  322		lw	$15, %sdaoff(_LockCnt)($28)
        08000000 000003c0  323		j	.L1000472
        2419ffff 000003c4  324		addiu	$25, $0, -1
                           325	.L452:
        8f8f0000 000003c8  326		lw	$15, %sdaoff(_LockCnt)($28)
                           327	.L1000452:
        55e00065 000003cc  328		bnel	$15, $0, .L1000472
        2419ffff 000003d0  329		addiu	$25, $0, -1
        3c030000 000003d4  330		lui	$3, %hi(GUI_Heap)
        24640000 000003d8  331		addiu	$4, $3, %lo(GUI_Heap)
        01403025 000003dc  332		move	$6, $10
        00c01025 000003e0  333		move	$2, $6
        944a0008 000003e4  334		lhu	$10, 8($2)
        34030000 000003e8  335		ori	$3, $0, 0
        340b0000 000003ec  336		ori	$11, $0, 0
        11400050 000003f0  337		beq	$10, $0, .L469

                                   Tue Apr 07 08:56:10 2015           Page 8
                                   Tue Apr 07 08:56:10 2015       gh_2i086.s
        2412ffff 000003f4  338		addiu	$18, $0, -1
        000ac880 000003f8  339		sll	$25, $10, 2
                           340	.L1000454:
        032a6823 000003fc  341		subu	$13, $25, $10
        000d6880 00000400  342		sll	$13, $13, 2
        00cd6821 00000404  343		addu	$13, $6, $13
        8c4f0000 00000408  344		lw	$15, 0($2)
        8c580004 0000040c  345		lw	$24, 4($2)
        01a04025 00000410  346		move	$8, $13
        8d190000 00000414  347		lw	$25, 0($8)
        01f8c021 00000418  348		addu	$24, $15, $24
        03381823 0000041c  349		subu	$3, $25, $24
        0070702a 00000420  350		slt	$14, $3, $16
        11c0003b 00000424  351		beq	$14, $0, .L467
        00604825 00000428  352		move	$9, $3
        5120003a 0000042c  353		beql	$9, $0, .L1000467
        01405825 00000430  354		move	$11, $10
        8dab0004 00000434  355		lw	$11, 4($13)
        00991821 00000438  356		addu	$3, $4, $25
        0160c825 0000043c  357		move	$25, $11
        13200031 00000440  358		beq	$25, $0, .L466
        00691023 00000444  359		subu	$2, $3, $9
        0043c023 00000448  360		subu	$24, $2, $3
        00793821 0000044c  361		addu	$7, $3, $25
        00e37823 00000450  362		subu	$15, $7, $3
        01f8702b 00000454  363		sltu	$14, $15, $24
        15c00025 00000458  364		bne	$14, $0, .L463
        00596821 0000045c  365		addu	$13, $2, $25
        24e3ffff 00000460  366		addiu	$3, $7, -1
        01603825 00000464  367		move	$7, $11
        000758c2 00000468  368		srl	$11, $7, 3
        11600015 0000046c  369		beq	$11, $0, .L640
        25a2ffff 00000470  370		addiu	$2, $13, -1
                           371	.L648:
        806d0000 00000474  372		lb	$13, 0($3)
        a04d0000 00000478  373		sb	$13, 0($2)
        806fffff 0000047c  374		lb	$15, -1($3)
        a04fffff 00000480  375		sb	$15, -1($2)
        8079fffe 00000484  376		lb	$25, -2($3)
        a059fffe 00000488  377		sb	$25, -2($2)
        806efffd 0000048c  378		lb	$14, -3($3)
        a04efffd 00000490  379		sb	$14, -3($2)
        8078fffc 00000494  380		lb	$24, -4($3)
        a058fffc 00000498  381		sb	$24, -4($2)
        806dfffb 0000049c  382		lb	$13, -5($3)
        a04dfffb 000004a0  383		sb	$13, -5($2)
        806ffffa 000004a4  384		lb	$15, -6($3)
        2442fff8 000004a8  385		addiu	$2, $2, -8
        256bffff 000004ac  386		addiu	$11, $11, -1
        a04f0002 000004b0  387		sb	$15, 2($2)
        8079fff9 000004b4  388		lb	$25, -7($3)
        2463fff8 000004b8  389		addiu	$3, $3, -8
        1560ffed 000004bc  390		bne	$11, $0, .L648
        a0590001 000004c0  391		sb	$25, 1($2)
                           392	.L640:
        30eb0007 000004c4  393		andi	$11, $7, 7

                                   Tue Apr 07 08:56:10 2015           Page 9
                                   Tue Apr 07 08:56:10 2015       gh_2i086.s
        51600010 000004c8  394		beql	$11, $0, .L1000466
        8d180000 000004cc  395		lw	$24, 0($8)
                           396	.L651:
        80790000 000004d0  397		lb	$25, 0($3)
        2442ffff 000004d4  398		addiu	$2, $2, -1
        256bffff 000004d8  399		addiu	$11, $11, -1
        a0590001 000004dc  400		sb	$25, 1($2)
        1560fffb 000004e0  401		bne	$11, $0, .L651
        2463ffff 000004e4  402		addiu	$3, $3, -1
        08000000 000004e8  403		j	.L1000466
        8d180000 000004ec  404		lw	$24, 0($8)
                           405	.L463:
        806d0000 000004f0  406		lb	$13, 0($3)
        24420001 000004f4  407		addiu	$2, $2, 1
        2739ffff 000004f8  408		addiu	$25, $25, -1
        a04dffff 000004fc  409		sb	$13, -1($2)
        1720fffb 00000500  410		bne	$25, $0, .L463
        24630001 00000504  411		addiu	$3, $3, 1
                           412	.L466:
        8d180000 00000508  413		lw	$24, 0($8)
                           414	.L1000466:
        0309c023 0000050c  415		subu	$24, $24, $9
        ad180000 00000510  416		sw	$24, 0($8)
                           417	.L467:
        01405825 00000514  418		move	$11, $10
                           419	.L1000467:
        000b7880 00000518  420		sll	$15, $11, 2
        01eb1823 0000051c  421		subu	$3, $15, $11
        00031880 00000520  422		sll	$3, $3, 2
        00c31021 00000524  423		addu	$2, $6, $3
        944a0008 00000528  424		lhu	$10, 8($2)
        5540ffb3 0000052c  425		bnel	$10, $0, .L1000454
        000ac880 00000530  426		sll	$25, $10, 2
                           427	.L469:
        02231821 00000534  428		addu	$3, $17, $3
        8c6d0004 00000538  429		lw	$13, 4($3)
        8c790000 0000053c  430		lw	$25, 0($3)
        3c0f0004 00000540  431		lui	$15, 4
        032d6821 00000544  432		addu	$13, $25, $13
        01edc023 00000548  433		subu	$24, $15, $13
        0310702a 0000054c  434		slt	$14, $24, $16
        51c00001 00000550  435		beql	$14, $0, .L471
        01609025 00000554  436		move	$18, $11
                           437	.L471:
        00121c00 00000558  438		sll	$3, $18, 16
        00031c03 0000055c  439		sra	$3, $3, 16
        2419ffff 00000560  440		addiu	$25, $0, -1
                           441	.L1000472:
        5479000a 00000564  442		bnel	$3, $25, .L1000474
        02205825 00000568  443		move	$11, $17
        0c000000 0000056c  444		jal	GUI_Unlock
        00000000 00000570  445		nop
        8fb20008 00000574  446		lw	$18, 8($sp)
        8fb10004 00000578  447		lw	$17, 4($sp)
        8fbf0014 0000057c  448		lw	$ra, 20($sp)
        8fb00000 00000580  449		lw	$16, 0($sp)

                                   Tue Apr 07 08:56:10 2015           Page 10
                                   Tue Apr 07 08:56:10 2015       gh_2i086.s
        27bd0018 00000584  450		addiu	$sp, $sp, 24
        03e00008 00000588  451		jr	$ra
        34020000 0000058c  452		ori	$2, $0, 0
                           453	.L1000474:
        00037080 00000590  454		sll	$14, $3, 2
        01c37823 00000594  455		subu	$15, $14, $3
        000f7880 00000598  456		sll	$15, $15, 2
        016f1021 0000059c  457		addu	$2, $11, $15
        8c4e0004 000005a0  458		lw	$14, 4($2)
        8c4d0000 000005a4  459		lw	$13, 0($2)
        244a0008 000005a8  460		addiu	$10, $2, 8
        94420008 000005ac  461		lhu	$2, 8($2)
        0005c080 000005b0  462		sll	$24, $5, 2
        0305c823 000005b4  463		subu	$25, $24, $5
        0019c880 000005b8  464		sll	$25, $25, 2
        01797821 000005bc  465		addu	$15, $11, $25
        a5e20008 000005c0  466		sh	$2, 8($15)
        01ae7021 000005c4  467		addu	$14, $13, $14
        adee0000 000005c8  468		sw	$14, 0($15)
        10400006 000005cc  469		beq	$2, $0, .L476
        adf00004 000005d0  470		sw	$16, 4($15)
        0002c880 000005d4  471		sll	$25, $2, 2
        03226823 000005d8  472		subu	$13, $25, $2
        000d6880 000005dc  473		sll	$13, $13, 2
        016dc021 000005e0  474		addu	$24, $11, $13
        a705000a 000005e4  475		sh	$5, 10($24)
                           476	.L476:
        a5e3000a 000005e8  477		sh	$3, 10($15)
        3c030000 000005ec  478		lui	$3, %hi(GUI_ALLOC)
        8c6e0000 000005f0  479		lw	$14, %lo(GUI_ALLOC)($3)
        a5450000 000005f4  480		sh	$5, 0($10)
        25ce0001 000005f8  481		addiu	$14, $14, 1
        ac6e0000 000005fc  482		sw	$14, %lo(GUI_ALLOC)($3)
        24630000 00000600  483		addiu	$3, $3, %lo(GUI_ALLOC)
        8c6d0004 00000604  484		lw	$13, 4($3)
        246f0008 00000608  485		addiu	$15, $3, 8
        8c790008 0000060c  486		lw	$25, 8($3)
        25a2ffff 00000610  487		addiu	$2, $13, -1
        ac620004 00000614  488		sw	$2, 4($3)
        0059c02a 00000618  489		slt	$24, $2, $25
        57000001 0000061c  490		bnel	$24, $0, .L478
        ade20000 00000620  491		sw	$2, 0($15)
                           492	.L478:
        8c6f000c 00000624  493		lw	$15, 12($3)
        24780014 00000628  494		addiu	$24, $3, 20
        8c6e0010 0000062c  495		lw	$14, 16($3)
        01f07821 00000630  496		addu	$15, $15, $16
        8c6d0014 00000634  497		lw	$13, 20($3)
        01d01023 00000638  498		subu	$2, $14, $16
        ac620010 0000063c  499		sw	$2, 16($3)
        004dc82a 00000640  500		slt	$25, $2, $13
        13200002 00000644  501		beq	$25, $0, .L480
        ac6f000c 00000648  502		sw	$15, 12($3)
        af020000 0000064c  503		sw	$2, 0($24)
                           504	.L480:
        0c000000 00000650  505		jal	GUI_Unlock

                                   Tue Apr 07 08:56:10 2015           Page 11
                                   Tue Apr 07 08:56:10 2015       gh_2i086.s
        00a08025 00000654  506		move	$16, $5
                           507	 #	    .ef
        02001025 00000658  508		move	$2, $16
        8fb00000 0000065c  509		lw	$16, 0($sp)
        8fbf0014 00000660  510		lw	$ra, 20($sp)
        8fb10004 00000664  511		lw	$17, 4($sp)
        8fb20008 00000668  512		lw	$18, 8($sp)
        03e00008 0000066c  513		jr	$ra
        27bd0018 00000670  514		addiu	$sp, $sp, 24
                           515		.type	GUI_ALLOC_AllocNoInit,@function
                           516		.size	GUI_ALLOC_AllocNoInit,.-GUI_ALLOC_AllocNoInit
                           517		.align	4
                           518	 #size	$16	local
                           519	 #hMemNew	$5	local
                           520	 #hMemIns	$3	local
                           521	 #i	$3	local
                           522	 #i	$2	local
                           523	 #iNext	$3	local
                           524	 #NumFreeBytes	$25	local
                           525	 #i	$11	local
                           526	 #iNext	$10	local
                           527	 #r	$18	local
                           528	 #NumBytesBeforeBlock	$9	local
                           529	 #pData	$3	local
                           530	 #__GHS_n	$11	local
                           531	 #__GHS_T	$2	local
                           532	 #__GHS_S	$3	local
                           533	 #__GHS_N	$25	local
                           534	 #Off	$14	local
                           535	 #Next	$2	local
                           536	
                           537	 #Size	$16	param
                           538	
                           539		.data
                           540	.L927:
                           541		.text
                           542		.align	4
                           543		.align	4
                           544		.globl	GUI_ALLOC_h2p
                           545	GUI_ALLOC_h2p:
        00042400 00000674  546		sll	$4, $4, 16
        00042403 00000678  547		sra	$4, $4, 16
                           548	 #	    .bf
        54800003 0000067c  549		bnel	$4, $0, .L1001072
        00047880 00000680  550		sll	$15, $4, 2
        03e00008 00000684  551		jr	$ra
        34020000 00000688  552		ori	$2, $0, 0
                           553	.L1001072:
        01e4c023 0000068c  554		subu	$24, $15, $4
        0018c080 00000690  555		sll	$24, $24, 2
        3c0d0000 00000694  556		lui	$13, %hi(aBlock)
        25ad0000 00000698  557		addiu	$13, $13, %lo(aBlock)
        01b87021 0000069c  558		addu	$14, $13, $24
        8dc20000 000006a0  559		lw	$2, 0($14)
        3c190000 000006a4  560		lui	$25, %hi(GUI_Heap)
        27390000 000006a8  561		addiu	$25, $25, %lo(GUI_Heap)

                                   Tue Apr 07 08:56:10 2015           Page 12
                                   Tue Apr 07 08:56:10 2015       gh_2i086.s
                           562	 #	    .ef
        03e00008 000006ac  563		jr	$ra
        03221021 000006b0  564		addu	$2, $25, $2
                           565		.type	GUI_ALLOC_h2p,@function
                           566		.size	GUI_ALLOC_h2p,.-GUI_ALLOC_h2p
                           567		.align	4
                           568	
                           569	 #hMem	$4	param
                           570	
                           571		.data
                           572	.L1103:
                           573		.text
                           574		.align	4
                           575		.align	4
                           576		.globl	GUI_ALLOC_GetNumFreeBytes
                           577	GUI_ALLOC_GetNumFreeBytes:
        27bdfff8 000006b4  578		addiu	$sp, $sp, -8
                           579	 #	    .bf
        afbf0004 000006b8  580		sw	$ra, 4($sp)
        0c000000 000006bc  581		jal	_CheckInit
        00000000 000006c0  582		nop
        0c000000 000006c4  583		jal	_GetNumFreeBytes
        00000000 000006c8  584		nop
                           585	 #	    .ef
        8fbf0004 000006cc  586		lw	$ra, 4($sp)
        03e00008 000006d0  587		jr	$ra
        27bd0008 000006d4  588		addiu	$sp, $sp, 8
                           589		.type	GUI_ALLOC_GetNumFreeBytes,@function
                           590		.size	GUI_ALLOC_GetNumFreeBytes,.-GUI_ALLOC_GetNumFreeBytes
                           591		.align	4
                           592	
                           593		.data
                           594	.L1127:
                           595		.text
                           596		.align	4
                           597		.align	4
                           598		.globl	GUI_ALLOC_GetMaxSize
                           599	GUI_ALLOC_GetMaxSize:
        27bdfff0 000006d8  600		addiu	$sp, $sp, -16
        afbf000c 000006dc  601		sw	$ra, 12($sp)
                           602	 #	    .bf
        0c000000 000006e0  603		jal	GUI_Lock
        afb00000 000006e4  604		sw	$16, 0($sp)
        0c000000 000006e8  605		jal	_CheckInit
        00000000 000006ec  606		nop
        3c0b0000 000006f0  607		lui	$11, %hi(aBlock)
        256b0000 000006f4  608		addiu	$11, $11, %lo(aBlock)
        01601025 000006f8  609		move	$2, $11
        94430008 000006fc  610		lhu	$3, 8($2)
        34100000 00000700  611		ori	$16, $0, 0
        10600013 00000704  612		beq	$3, $0, .L1135
        0003c080 00000708  613		sll	$24, $3, 2
                           614	.L1001137:
        0303c823 0000070c  615		subu	$25, $24, $3
        0019c880 00000710  616		sll	$25, $25, 2
        8c4d0000 00000714  617		lw	$13, 0($2)

                                   Tue Apr 07 08:56:10 2015           Page 13
                                   Tue Apr 07 08:56:10 2015       gh_2i086.s
        8c4e0004 00000718  618		lw	$14, 4($2)
        01797821 0000071c  619		addu	$15, $11, $25
        8df90000 00000720  620		lw	$25, 0($15)
        01ae7021 00000724  621		addu	$14, $13, $14
        032e1023 00000728  622		subu	$2, $25, $14
        0202c02a 0000072c  623		slt	$24, $16, $2
        57000001 00000730  624		bnel	$24, $0, .L1136
        00408025 00000734  625		move	$16, $2
                           626	.L1136:
        00037080 00000738  627		sll	$14, $3, 2
        01c37823 0000073c  628		subu	$15, $14, $3
        000f7880 00000740  629		sll	$15, $15, 2
        016f1021 00000744  630		addu	$2, $11, $15
        94430008 00000748  631		lhu	$3, 8($2)
        5460ffef 0000074c  632		bnel	$3, $0, .L1001137
        0003c080 00000750  633		sll	$24, $3, 2
                           634	.L1135:
        8c590004 00000754  635		lw	$25, 4($2)
        8c580000 00000758  636		lw	$24, 0($2)
        3c0f0004 0000075c  637		lui	$15, 4
        0319c821 00000760  638		addu	$25, $24, $25
        01f91023 00000764  639		subu	$2, $15, $25
        0202702a 00000768  640		slt	$14, $16, $2
        55c00001 0000076c  641		bnel	$14, $0, .L1141
        00408025 00000770  642		move	$16, $2
                           643	.L1141:
        0c000000 00000774  644		jal	GUI_Unlock
        00000000 00000778  645		nop
                           646	 #	    .ef
        02001025 0000077c  647		move	$2, $16
        8fbf000c 00000780  648		lw	$ra, 12($sp)
        8fb00000 00000784  649		lw	$16, 0($sp)
        03e00008 00000788  650		jr	$ra
        27bd0010 0000078c  651		addiu	$sp, $sp, 16
                           652		.type	GUI_ALLOC_GetMaxSize,@function
                           653		.size	GUI_ALLOC_GetMaxSize,.-GUI_ALLOC_GetMaxSize
                           654		.align	4
                           655	 #r	$16	local
                           656	 #NumFreeBytes	$2	local
                           657	 #i	$3	local
                           658	 #iNext	$3	local
                           659	
                           660		.data
                           661	.L1175:
                           662		.text
                           663		.align	4
                           664		.align	4
                           665		.globl	GUI_ALLOC_Lock
                           666	GUI_ALLOC_Lock:
        8f990000 00000790  667		lw	$25, %sdaoff(_LockCnt)($28)
                           668	 #	    .bf
                           669	 #	    .ef
        27390001 00000794  670		addiu	$25, $25, 1
        03e00008 00000798  671		jr	$ra
        af990000 0000079c  672		sw	$25, %sdaoff(_LockCnt)($28)
                           673		.type	GUI_ALLOC_Lock,@function

                                   Tue Apr 07 08:56:10 2015           Page 14
                                   Tue Apr 07 08:56:10 2015       gh_2i086.s
                           674		.size	GUI_ALLOC_Lock,.-GUI_ALLOC_Lock
                           675		.align	4
                           676	
                           677		.data
                           678	.L1207:
                           679		.text
                           680		.align	4
                           681		.align	4
                           682		.globl	GUI_ALLOC_Unlock
                           683	GUI_ALLOC_Unlock:
        8f990000 000007a0  684		lw	$25, %sdaoff(_LockCnt)($28)
                           685	 #	    .bf
                           686	 #	    .ef
        2739ffff 000007a4  687		addiu	$25, $25, -1
        03e00008 000007a8  688		jr	$ra
        af990000 000007ac  689		sw	$25, %sdaoff(_LockCnt)($28)
                           690		.type	GUI_ALLOC_Unlock,@function
                           691		.size	GUI_ALLOC_Unlock,.-GUI_ALLOC_Unlock
                           692		.align	4
                           693	
                           694		.data
                           695	.L1226:
                           696		.text
                           697		.align	4
                           698		.align	4
                           699		.globl	GUI_ALLOC_GetSize
                           700	GUI_ALLOC_GetSize:
        00042400 000007b0  701		sll	$4, $4, 16
                           702	 #	    .bf
        00042403 000007b4  703		sra	$4, $4, 16
        10800008 000007b8  704		beq	$4, $0, .L1234
        34030000 000007bc  705		ori	$3, $0, 0
        00047880 000007c0  706		sll	$15, $4, 2
        01e4c023 000007c4  707		subu	$24, $15, $4
        0018c080 000007c8  708		sll	$24, $24, 2
        3c0d0000 000007cc  709		lui	$13, %hi(aBlock)
        25ad0000 000007d0  710		addiu	$13, $13, %lo(aBlock)
        01b87021 000007d4  711		addu	$14, $13, $24
        8dc30004 000007d8  712		lw	$3, 4($14)
                           713	.L1234:
                           714	 #	    .ef
        03e00008 000007dc  715		jr	$ra
        00601025 000007e0  716		move	$2, $3
                           717		.type	GUI_ALLOC_GetSize,@function
                           718		.size	GUI_ALLOC_GetSize,.-GUI_ALLOC_GetSize
                           719		.align	4
                           720	 #r	$3	local
                           721	
                           722	 #hMem	$4	param
                           723	
                           724		.data
                           725	.L1257:
                           726		.text
                           727		.align	4
                           728		.align	4
                           729		.globl	GUI_ALLOC_Free

                                   Tue Apr 07 08:56:10 2015           Page 15
                                   Tue Apr 07 08:56:10 2015       gh_2i086.s
                           730	GUI_ALLOC_Free:
        27bdfff0 000007e4  731		addiu	$sp, $sp, -16
                           732	 #	    .bf
        afb00000 000007e8  733		sw	$16, 0($sp)
        00048400 000007ec  734		sll	$16, $4, 16
        00108403 000007f0  735		sra	$16, $16, 16
        1200002a 000007f4  736		beq	$16, $0, .L1267
        afbf000c 000007f8  737		sw	$ra, 12($sp)
        0c000000 000007fc  738		jal	GUI_Lock
        00000000 00000800  739		nop
        3c0b0000 00000804  740		lui	$11, %hi(aBlock)
        256b0000 00000808  741		addiu	$11, $11, %lo(aBlock)
        00107880 0000080c  742		sll	$15, $16, 2
        01f0c023 00000810  743		subu	$24, $15, $16
        0018c080 00000814  744		sll	$24, $24, 2
        0178c021 00000818  745		addu	$24, $11, $24
        8f020004 0000081c  746		lw	$2, 4($24)
        270f0004 00000820  747		addiu	$15, $24, 4
        1040001c 00000824  748		beq	$2, $0, .L1272
        3c030000 00000828  749		lui	$3, %hi(GUI_ALLOC)
        24630000 0000082c  750		addiu	$3, $3, %lo(GUI_ALLOC)
        8c6d0010 00000830  751		lw	$13, 16($3)
        8c79000c 00000834  752		lw	$25, 12($3)
        ade00000 00000838  753		sw	$0, 0($15)
        01a26821 0000083c  754		addu	$13, $13, $2
        0322c823 00000840  755		subu	$25, $25, $2
        ac79000c 00000844  756		sw	$25, 12($3)
        9719000a 00000848  757		lhu	$25, 10($24)
        97020008 0000084c  758		lhu	$2, 8($24)
        ac6d0010 00000850  759		sw	$13, 16($3)
        00197080 00000854  760		sll	$14, $25, 2
        01d97823 00000858  761		subu	$15, $14, $25
        000f7880 0000085c  762		sll	$15, $15, 2
        016f6821 00000860  763		addu	$13, $11, $15
        10400006 00000864  764		beq	$2, $0, .L1277
        a5a20008 00000868  765		sh	$2, 8($13)
        00027080 0000086c  766		sll	$14, $2, 2
        01c27823 00000870  767		subu	$15, $14, $2
        000f7880 00000874  768		sll	$15, $15, 2
        016f6821 00000878  769		addu	$13, $11, $15
        a5b9000a 0000087c  770		sh	$25, 10($13)
                           771	.L1277:
        8c780004 00000880  772		lw	$24, 4($3)
        27180001 00000884  773		addiu	$24, $24, 1
        ac780004 00000888  774		sw	$24, 4($3)
        8c6f0000 0000088c  775		lw	$15, 0($3)
        25efffff 00000890  776		addiu	$15, $15, -1
        ac6f0000 00000894  777		sw	$15, 0($3)
                           778	.L1272:
        0c000000 00000898  779		jal	GUI_Unlock
        00000000 0000089c  780		nop
                           781	.L1267:
        8fb00000 000008a0  782		lw	$16, 0($sp)
                           783	 #	    .ef
        8fbf000c 000008a4  784		lw	$ra, 12($sp)
        03e00008 000008a8  785		jr	$ra

                                   Tue Apr 07 08:56:10 2015           Page 16
                                   Tue Apr 07 08:56:10 2015       gh_2i086.s
        27bd0010 000008ac  786		addiu	$sp, $sp, 16
                           787		.type	GUI_ALLOC_Free,@function
                           788		.size	GUI_ALLOC_Free,.-GUI_ALLOC_Free
                           789		.align	4
                           790	 #Next	$2	local
                           791	 #Prev	$25	local
                           792	
                           793	 #hMem	$16	param
                           794	
                           795		.data
                           796	.L1305:
                           797		.text
                           798		.align	4
                           799		.align	4
                           800		.globl	GUI_ALLOC_FreePtr
                           801	GUI_ALLOC_FreePtr:
        27bdfff0 000008b0  802		addiu	$sp, $sp, -16
        afbf000c 000008b4  803		sw	$ra, 12($sp)
        afb00000 000008b8  804		sw	$16, 0($sp)
                           805	 #	    .bf
        0c000000 000008bc  806		jal	GUI_Lock
        00808025 000008c0  807		move	$16, $4
        0c000000 000008c4  808		jal	GUI_ALLOC_Free
        86040000 000008c8  809		lh	$4, 0($16)
        0c000000 000008cc  810		jal	GUI_Unlock
        a6000000 000008d0  811		sh	$0, 0($16)
                           812	 #	    .ef
        8fbf000c 000008d4  813		lw	$ra, 12($sp)
        8fb00000 000008d8  814		lw	$16, 0($sp)
        03e00008 000008dc  815		jr	$ra
        27bd0010 000008e0  816		addiu	$sp, $sp, 16
                           817		.type	GUI_ALLOC_FreePtr,@function
                           818		.size	GUI_ALLOC_FreePtr,.-GUI_ALLOC_FreePtr
                           819		.align	4
                           820	
                           821	 #ph	$16	param
                           822	
                           823		.data
                           824	.L1336:
                           825		.text
                           826		.align	4
                           827	 #aBlock	aBlock	static
                           828	 #IsInitialized	%sdaoff(.L366)	static
                           829	 #_LockCnt	%sdaoff(_LockCnt)	static
                           830	
                           831		.data
                           832		.comm	GUI_Heap,262144,4
                           833		.type	GUI_Heap,@object
                           834		.size	GUI_Heap,262144
                           835		.comm	GUI_ALLOC,24,4
                           836		.type	GUI_ALLOC,@object
                           837		.size	GUI_ALLOC,24
                           838		.section ".bss","awb"
                           839		.align	4
                           840		.section ".sbss","awb"
                           841		.align	4

                                   Tue Apr 07 08:56:10 2015           Page 17
                                   Tue Apr 07 08:56:10 2015       gh_2i086.s
                           842		.text
