
                                   Tue Apr 07 08:56:18 2015           Page 1
                                   Tue Apr 07 08:56:17 2015       gh_2i08b.s
Command Line:   C:\GHS\V35\mips35\asmips.exe -noundefined -elf -b0
                -IC:\local\Workspace\DC_V04.01.00_int\cu3x1Platform_SRC\emWinColour
                -IC:\local\Workspace\DC_V04.01.00_int\cu3x1Platform_SRC\platform\include
                -IC:\local\Workspace\DC_V04.01.00_int\cu3x1Platform_SRC\platform\common
                -IC:\local\Workspace\DC_V04.01.00_int\cu3x1Platform_SRC\platform\hardware
                -IC:\local\Workspace\DC_V04.01.00_int\cu3x1Platform_SRC\platform\hardware\D3018X
                -IC:\local\Workspace\DC_V04.01.00_int\cu3x1Platform_SRC\embos\inc
                -IC:\local\Workspace\DC_V04.01.00_int\cu3x1Platform_SRC\emWinColour\config
                -IC:\local\Workspace\DC_V04.01.00_int\cu3x1Platform_SRC\emWinColour\gui\ConvertMono
                -IC:\local\Workspace\DC_V04.01.00_int\cu3x1Platform_SRC\emWinColour\gui\Core
                -IC:\local\Workspace\DC_V04.01.00_int\cu3x1Platform_SRC\emWinColour\gui\Font
                -IC:\local\Workspace\DC_V04.01.00_int\cu3x1Platform_SRC\emWinColour\gui\LCDDriver
                -IC:\local\Workspace\DC_V04.01.00_int\cu3x1Platform_SRC\emWinColour\gui\MemDev
                -IC:\local\Workspace\DC_V04.01.00_int\cu3x1Platform_SRC\emWinColour\gui\VNC
                -IC:\local\Workspace\DC_V04.01.00_int\cu3x1Platform_SRC\emWinColour\gui\Widget
                -IC:\local\Workspace\DC_V04.01.00_int\cu3x1Platform_SRC\emWinColour\gui\wm
                -IC:\local\Workspace\DC_V04.01.00_int\cu3x1App_SRC\Control\source
                -IC:\local\Workspace\DC_V04.01.00_int\cu3x1App_SRC\Control\source\include
                -IC:\local\Workspace\DC_V04.01.00_int\cu3x1App_SRC\Control\source\util
                -IC:\local\Workspace\DC_V04.01.00_int\cu3x1App_SRC\Control\source\datapoint
                -IC:\local\Workspace\DC_V04.01.00_int\cu3x1App_SRC\Control\source\factory
                -IC:\local\Workspace\DC_V04.01.00_int\cu3x1Platform_SRC\embos
                -IC:\local\Workspace\DC_V04.01.00_int\cu3x1Platform_SRC\emWinColour\gui\core
                -IC:\local\Workspace\DC_V04.01.00_int\cu3x1App_SRC\Control\source\rtip\webpage
                -IC:\local\Workspace\DC_V04.01.00_int\cu3x1App_SRC\Control\source\rtip\config
                -IC:\local\Workspace\DC_V04.01.00_int\cu3x1App_SRC\Control\source\rtip\xnet
                -IC:\local\Workspace\DC_V04.01.00_int\cu3x1App_SRC\Control\source\stub
                -IC:\local\Workspace\DC_V04.01.00_int\cu3x1App_SRC\Control\source\test
                -IC:\local\Workspace\DC_V04.01.00_int\cu3x1App_SRC\Control\source\GENIpro
                -IC:\local\Workspace\DC_V04.01.00_int\cu3x1App_SRC\Control\source\GENIpro\GENI_sys
                -IC:\local\Workspace\DC_V04.01.00_int\cu3x1App_SRC\Control\source\GENIpro\GENIusb\emUSB\USB\Driver
                -IC:\local\Workspace\DC_V04.01.00_int\cu3x1App_SRC\Control\source\application\intercom
                -IC:\local\Workspace\DC_V04.01.00_int\cu3x1App_SRC\Control\source\application\controller
                -IC:\local\Workspace\DC_V04.01.00_int\cu3x1App_SRC\Control\source\application\driver
                -IC:\local\Workspace\DC_V04.01.00_int\cu3x1App_SRC\Control\source\application\webif
                -IC:\local\Workspace\DC_V04.01.00_int\cu3x1App_SRC\Control\source\application\relay
                -IC:\local\Workspace\DC_V04.01.00_int\cu3x1App_SRC\Control\source\application\GENIApp
                -IC:\local\Workspace\DC_V04.01.00_int\cu3x1App_SRC\Control\source\application\alarm
                -IC:\local\Workspace\DC_V04.01.00_int\cu3x1App_SRC\Control\source\application\config
                -IC:\local\Workspace\DC_V04.01.00_int\cu3x1App_SRC\Control\source\application\AnaInConfigCtrl
                -IC:\local\Workspace\DC_V04.01.00_int\cu3x1App_SRC\Control\source\application\Sms
                -IC:\local\Workspace\DC_V04.01.00_int\cu3x1App_SRC\Control\source\application\display
                -IC:\local\Workspace\DC_V04.01.00_int\cu3x1App_SRC\Control\source\application\display\display_task
                -IC:\local\Workspace\DC_V04.01.00_int\cu3x1App_SRC\Control\source\application\display\gui_utility
                -IC:\local\Workspace\DC_V04.01.00_int\cu3x1App_SRC\Control\source\application\display\mpcunit
                -IC:\local\Workspace\DC_V04.01.00_int\cu3x1App_SRC\Control\source\GeniPro
                -IC:\local\Workspace\DC_V04.01.00_int\cu3x1App_SRC\Control\source\GeniPro\GENI_sys
                -IC:\local\Workspace\DC_V04.01.00_int\cu3x1App_SRC\Control\source\GeniPro\GENIbus
                -IC:\local\Workspace\DC_V04.01.00_int\cu3x1App_SRC\Control\source\GeniPro\GENIcom
                -IC:\local\Workspace\DC_V04.01.00_int\cu3x1App_SRC\Control\source\GeniPro\GENIrs232
                -IC:\local\Workspace\DC_V04.01.00_int\cu3x1App_SRC\Control\source\GeniPro\Virtual
                -IC:\local\Workspace\DC_V04.01.00_int\cu3x1Platform_SRC\Platform\common
                -IC:\local\Workspace\DC_V04.01.00_int\cu3x1Platform_SRC\Platform\hardware
                -IC:\local\Workspace\DC_V04.01.00_int\cu3x1Platform_SRC\Platform\hardware\D3018X
                -IC:\local\Workspace\DC_V04.01.00_int\cu3x1App_SRC\Control\source\application\display\imagesTFT
                -IC:\GHS\V35\mips35\mipsl_sf -r4121 -source=GUICharP.c -o
                objs\gh_2i08b.o -list=objs\GUICharP.lst
                C:\Users\55602\AppData\Local\Temp\gh_2i08b.s
Source File:    C:\Users\55602\AppData\Local\Temp\gh_2i08b.s
Directory:      C:\local\Workspace\DC_V04.01.00_int\cu3x1App_SRC\Control\source
Host OS:        GHS_WIN32
Version:        AS-MIPS 3.5#11 
Release:        MULTI 2000, MIPS v3.5
Revision Date:  Wed Feb 27 12:19:03 2002
Release Date:   Sat Mar 02 02:57:59 2002
                             1	 #Source File:   C:\local\Workspace\DC_V04.01.00_int\cu3x1Platform_SRC\emWinColour\GUI\Core\GUICharP.c

                                   Tue Apr 07 08:56:18 2015           Page 2
                                   Tue Apr 07 08:56:17 2015       gh_2i08b.s
                             2	 #Directory:     
                             3	 #		C:\local\Workspace\DC_V04.01.00_int\cu3x1App_SRC\Control\source
                             4	 #Compile Date:  Tue Apr 07 08:56:17 2015
                             5	 #Host OS:       Win32
                             6	 #Version:       C-MIPS 3.5#11 RELEASE VERSION
                             7	 #Release:       MULTI 2000, MIPS v3.5
                             8	 #Revision Date: Fri Mar 01 11:32:40 2002
                             9	 #Release Date:  Sat Mar 02 02:58:48 2002
                            10		.set	noat
                            11		.set	noreorder
                            12		.set	nomacro
                            13		.text
                            14		.align	4
                            15	GUIPROP_FindChar:
                            16	 #	    .bf
        1080000c 00000000   17		beq	$4, $0, .L11
        30a5ffff 00000004   18		andi	$5, $5, 65535
        94990000 00000008   19		lhu	$25, 0($4)
                            20	.L1000006:
        00b9c02b 0000000c   21		sltu	$24, $5, $25
        57000006 00000010   22		bnel	$24, $0, .L1000005
        8c840008 00000014   23		lw	$4, 8($4)
        948f0002 00000018   24		lhu	$15, 2($4)
        01e5702b 0000001c   25		sltu	$14, $15, $5
        11c00004 00000020   26		beq	$14, $0, .L11
        00000000 00000024   27		nop
        8c840008 00000028   28		lw	$4, 8($4)
                            29	.L1000005:
        5480fff7 0000002c   30		bnel	$4, $0, .L1000006
        94990000 00000030   31		lhu	$25, 0($4)
                            32	.L11:
                            33	 #	    .ef
        03e00008 00000034   34		jr	$ra
        00801025 00000038   35		move	$2, $4
                            36		.type	GUIPROP_FindChar,@function
                            37		.size	GUIPROP_FindChar,.-GUIPROP_FindChar
                            38		.align	4
                            39	
                            40	 #pProp	$4	param
                            41	 #c	$5	param
                            42	
                            43		.data
                            44	.L39:
                            45		.text
                            46		.align	4
                            47		.align	4
                            48		.align	4
                            49		.globl	GUIPROP_DispChar
                            50	GUIPROP_DispChar:
        27bdffd8 0000003c   51		addiu	$sp, $sp, -40
                            52	 #	    .bf
        afbf0024 00000040   53		sw	$ra, 36($sp)
        afb5001c 00000044   54		sw	$21, 28($sp)
        afb40018 00000048   55		sw	$20, 24($sp)
        afb30014 0000004c   56		sw	$19, 20($sp)
        afb20010 00000050   57		sw	$18, 16($sp)

                                   Tue Apr 07 08:56:18 2015           Page 3
                                   Tue Apr 07 08:56:17 2015       gh_2i08b.s
        afb00008 00000054   58		sw	$16, 8($sp)
        3090ffff 00000058   59		andi	$16, $4, 65535
        afb1000c 0000005c   60		sw	$17, 12($sp)
        3c110000 00000060   61		lui	$17, %hi(GUI_Context)
        26310000 00000064   62		addiu	$17, $17, %lo(GUI_Context)
        8e24001c 00000068   63		lw	$4, 28($17)
        8632002e 0000006c   64		lh	$18, 46($17)
        02002825 00000070   65		move	$5, $16
        0c000000 00000074   66		jal	GUIPROP_FindChar
        8c840018 00000078   67		lw	$4, 24($4)
        00401825 0000007c   68		move	$3, $2
        5060004f 00000080   69		beql	$3, $0, .L1000054
        8fb5001c 00000084   70		lw	$21, 28($sp)
        946e0000 00000088   71		lhu	$14, 0($3)
        8c790004 0000008c   72		lw	$25, 4($3)
        02402025 00000090   73		move	$4, $18
        020e7823 00000094   74		subu	$15, $16, $14
        000f68c0 00000098   75		sll	$13, $15, 3
        032d8021 0000009c   76		addu	$16, $25, $13
        0c000000 000000a0   77		jal	LCD_SetDrawMode
        92130002 000000a4   78		lbu	$19, 2($16)
        93980000 000000a8   79		lbu	$24, %sdaoff(GUI_MoveRTL)($28)
        0040a025 000000ac   80		move	$20, $2
        5300000a 000000b0   81		beql	$24, $0, .L1000058
        8e020004 000000b4   82		lw	$2, 4($16)
        8e38001c 000000b8   83		lw	$24, 28($17)
        92190001 000000bc   84		lbu	$25, 1($16)
        93180016 000000c0   85		lbu	$24, 22($24)
        862f0026 000000c4   86		lh	$15, 38($17)
        03380018 000000c8   87		mult	$25, $24
        00006812 000000cc   88		mflo	$13
        01ed7823 000000d0   89		subu	$15, $15, $13
        a62f0026 000000d4   90		sh	$15, 38($17)
        8e020004 000000d8   91		lw	$2, 4($16)
                            92	.L1000058:
        8e23001c 000000dc   93		lw	$3, 28($17)
        afb10004 000000e0   94		sw	$17, 4($sp)
        afa20000 000000e4   95		sw	$2, 0($sp)
        86240026 000000e8   96		lh	$4, 38($17)
        86250028 000000ec   97		lh	$5, 40($17)
        92060000 000000f0   98		lbu	$6, 0($16)
        90670014 000000f4   99		lbu	$7, 20($3)
        90680016 000000f8  100		lbu	$8, 22($3)
        90690017 000000fc  101		lbu	$9, 23($3)
        02605825 00000100  102		move	$11, $19
        0c000000 00000104  103		jal	LCD_DrawBitmap
        340a0001 00000108  104		ori	$10, $0, 1
        8e23001c 0000010c  105		lw	$3, 28($17)
        90620015 00000110  106		lbu	$2, 21($3)
        90790014 00000114  107		lbu	$25, 20($3)
        0322702b 00000118  108		sltu	$14, $25, $2
        11c0001a 0000011c  109		beq	$14, $0, .L60
        00000000 00000120  110		nop
        90630017 00000124  111		lbu	$3, 23($3)
        00430018 00000128  112		mult	$2, $3
        00009812 0000012c  113		mflo	$19

                                   Tue Apr 07 08:56:18 2015           Page 4
                                   Tue Apr 07 08:56:17 2015       gh_2i08b.s
        340d0002 00000130  114		ori	$13, $0, 2
        00000000 00000134  115		nop
        03230018 00000138  116		mult	$25, $3
        0000a812 0000013c  117		mflo	$21
        124d0011 00000140  118		beq	$18, $13, .L60
        00000000 00000144  119		nop
        00000000 00000148  120		nop
        0c000000 0000014c  121		jal	GUI_GetColor
        00000000 00000150  122		nop
        0c000000 00000154  123		jal	GUI_GetBkColor
        00409025 00000158  124		move	$18, $2
        0c000000 0000015c  125		jal	GUI_SetColor
        00402025 00000160  126		move	$4, $2
        86230028 00000164  127		lh	$3, 40($17)
        92190000 00000168  128		lbu	$25, 0($16)
        86240026 0000016c  129		lh	$4, 38($17)
        00752821 00000170  130		addu	$5, $3, $21
        00733821 00000174  131		addu	$7, $3, $19
        0c000000 00000178  132		jal	LCD_FillRect
        00993021 0000017c  133		addu	$6, $4, $25
        0c000000 00000180  134		jal	GUI_SetColor
        02402025 00000184  135		move	$4, $18
                           136	.L60:
        0c000000 00000188  137		jal	LCD_SetDrawMode
        02802025 0000018c  138		move	$4, $20
        93980000 00000190  139		lbu	$24, %sdaoff(GUI_MoveRTL)($28)
        5700000a 00000194  140		bnel	$24, $0, .L1000054
        8fb5001c 00000198  141		lw	$21, 28($sp)
        8e38001c 0000019c  142		lw	$24, 28($17)
        92190001 000001a0  143		lbu	$25, 1($16)
        93180016 000001a4  144		lbu	$24, 22($24)
        862f0026 000001a8  145		lh	$15, 38($17)
        03380018 000001ac  146		mult	$25, $24
        00006812 000001b0  147		mflo	$13
        01ed7821 000001b4  148		addu	$15, $15, $13
        a62f0026 000001b8  149		sh	$15, 38($17)
        8fb5001c 000001bc  150		lw	$21, 28($sp)
                           151	.L1000054:
                           152	 #	    .ef
        8fb40018 000001c0  153		lw	$20, 24($sp)
        8fbf0024 000001c4  154		lw	$ra, 36($sp)
        8fb00008 000001c8  155		lw	$16, 8($sp)
        8fb1000c 000001cc  156		lw	$17, 12($sp)
        8fb20010 000001d0  157		lw	$18, 16($sp)
        8fb30014 000001d4  158		lw	$19, 20($sp)
        03e00008 000001d8  159		jr	$ra
        27bd0028 000001dc  160		addiu	$sp, $sp, 40
                           161		.type	GUIPROP_DispChar,@function
                           162		.size	GUIPROP_DispChar,.-GUIPROP_DispChar
                           163		.align	4
                           164	 #BytesPerLine	$19	local
                           165	 #DrawMode	$18	local
                           166	 #pProp	$3	local
                           167	 #OldDrawMode	$20	local
                           168	 #pCharInfo	$16	local
                           169	 #YMag	$3	local

                                   Tue Apr 07 08:56:18 2015           Page 5
                                   Tue Apr 07 08:56:17 2015       gh_2i08b.s
                           170	 #YDist	$19	local
                           171	 #YSize	$21	local
                           172	 #OldColor	$18	local
                           173	
                           174	 #c	$16	param
                           175	
                           176		.data
                           177	.L98:
                           178		.text
                           179		.align	4
                           180		.align	4
                           181		.globl	GUIPROP_GetCharDistX
                           182	GUIPROP_GetCharDistX:
        27bdfff0 000001e0  183		addiu	$sp, $sp, -16
                           184	 #	    .bf
        afbf000c 000001e4  185		sw	$ra, 12($sp)
        afb10004 000001e8  186		sw	$17, 4($sp)
        3c010000 000001ec  187		lui	$1, %hi(GUI_Context+28)
        8c310000 000001f0  188		lw	$17, %lo(GUI_Context+28)($1)
        afb00000 000001f4  189		sw	$16, 0($sp)
        3090ffff 000001f8  190		andi	$16, $4, 65535
        8e240018 000001fc  191		lw	$4, 24($17)
        0c000000 00000200  192		jal	GUIPROP_FindChar
        02002825 00000204  193		move	$5, $16
        00401825 00000208  194		move	$3, $2
        1060000c 0000020c  195		beq	$3, $0, .L124
        34020000 00000210  196		ori	$2, $0, 0
        946f0000 00000214  197		lhu	$15, 0($3)
        8c790004 00000218  198		lw	$25, 4($3)
        020fc023 0000021c  199		subu	$24, $16, $15
        922f0016 00000220  200		lbu	$15, 22($17)
        001870c0 00000224  201		sll	$14, $24, 3
        032e6821 00000228  202		addu	$13, $25, $14
        91b80000 0000022c  203		lbu	$24, 0($13)
        030f0018 00000230  204		mult	$24, $15
        00001012 00000234  205		mflo	$2
        00000000 00000238  206		nop
        00000000 0000023c  207		nop
                           208	.L124:
        8fb10004 00000240  209		lw	$17, 4($sp)
                           210	 #	    .ef
        8fb00000 00000244  211		lw	$16, 0($sp)
        8fbf000c 00000248  212		lw	$ra, 12($sp)
        03e00008 0000024c  213		jr	$ra
        27bd0010 00000250  214		addiu	$sp, $sp, 16
                           215		.type	GUIPROP_GetCharDistX,@function
                           216		.size	GUIPROP_GetCharDistX,.-GUIPROP_GetCharDistX
                           217		.align	4
                           218	 #pProp	$3	local
                           219	
                           220	 #c	$16	param
                           221	
                           222		.data
                           223	.L143:
                           224		.text
                           225		.align	4

                                   Tue Apr 07 08:56:18 2015           Page 6
                                   Tue Apr 07 08:56:17 2015       gh_2i08b.s
                           226		.align	4
                           227		.globl	GUIPROP_GetFontInfo
                           228	GUIPROP_GetFontInfo:
        34190001 00000254  229		ori	$25, $0, 1
                           230	 #	    .bf
                           231	 #	    .ef
        03e00008 00000258  232		jr	$ra
        a4b90000 0000025c  233		sh	$25, 0($5)
                           234		.type	GUIPROP_GetFontInfo,@function
                           235		.size	GUIPROP_GetFontInfo,.-GUIPROP_GetFontInfo
                           236		.align	4
                           237	
                           238	 #pFont	none	param
                           239	 #pfi	$5	param
                           240	
                           241		.data
                           242	.L166:
                           243		.text
                           244		.align	4
                           245		.align	4
                           246		.globl	GUIPROP_IsInFont
                           247	GUIPROP_IsInFont:
        27bdfff8 00000260  248		addiu	$sp, $sp, -8
        afbf0004 00000264  249		sw	$ra, 4($sp)
        30a5ffff 00000268  250		andi	$5, $5, 65535
                           251	 #	    .bf
        0c000000 0000026c  252		jal	GUIPROP_FindChar
        8c840018 00000270  253		lw	$4, 24($4)
                           254	 #	    .ef
        8fbf0004 00000274  255		lw	$ra, 4($sp)
        27bd0008 00000278  256		addiu	$sp, $sp, 8
        0002c82b 0000027c  257		sltu	$25, $0, $2
        00191600 00000280  258		sll	$2, $25, 24
        03e00008 00000284  259		jr	$ra
        00021603 00000288  260		sra	$2, $2, 24
                           261		.type	GUIPROP_IsInFont,@function
                           262		.size	GUIPROP_IsInFont,.-GUIPROP_IsInFont
                           263		.align	4
                           264	
                           265	 #pFont	$4	param
                           266	 #c	$5	param
                           267	
                           268		.data
                           269	.L188:
                           270		.text
                           271		.align	4
                           272	 #GUI_Context	GUI_Context	import
                           273	 #GUI_MoveRTL	%sdaoff(GUI_MoveRTL)	import
                           274	
                           275		.data
                           276		.text
