
                                   Tue Apr 07 08:56:13 2015           Page 1
                                   Tue Apr 07 08:56:13 2015       gh_2i088.s
Command Line:   C:\GHS\V35\mips35\asmips.exe -noundefined -elf -b0
                -IC:\local\Workspace\DC_V04.01.00_int\cu3x1Platform_SRC\emWinColour
                -IC:\local\Workspace\DC_V04.01.00_int\cu3x1Platform_SRC\platform\include
                -IC:\local\Workspace\DC_V04.01.00_int\cu3x1Platform_SRC\platform\common
                -IC:\local\Workspace\DC_V04.01.00_int\cu3x1Platform_SRC\platform\hardware
                -IC:\local\Workspace\DC_V04.01.00_int\cu3x1Platform_SRC\platform\hardware\D3018X
                -IC:\local\Workspace\DC_V04.01.00_int\cu3x1Platform_SRC\embos\inc
                -IC:\local\Workspace\DC_V04.01.00_int\cu3x1Platform_SRC\emWinColour\config
                -IC:\local\Workspace\DC_V04.01.00_int\cu3x1Platform_SRC\emWinColour\gui\ConvertMono
                -IC:\local\Workspace\DC_V04.01.00_int\cu3x1Platform_SRC\emWinColour\gui\Core
                -IC:\local\Workspace\DC_V04.01.00_int\cu3x1Platform_SRC\emWinColour\gui\Font
                -IC:\local\Workspace\DC_V04.01.00_int\cu3x1Platform_SRC\emWinColour\gui\LCDDriver
                -IC:\local\Workspace\DC_V04.01.00_int\cu3x1Platform_SRC\emWinColour\gui\MemDev
                -IC:\local\Workspace\DC_V04.01.00_int\cu3x1Platform_SRC\emWinColour\gui\VNC
                -IC:\local\Workspace\DC_V04.01.00_int\cu3x1Platform_SRC\emWinColour\gui\Widget
                -IC:\local\Workspace\DC_V04.01.00_int\cu3x1Platform_SRC\emWinColour\gui\wm
                -IC:\local\Workspace\DC_V04.01.00_int\cu3x1App_SRC\Control\source
                -IC:\local\Workspace\DC_V04.01.00_int\cu3x1App_SRC\Control\source\include
                -IC:\local\Workspace\DC_V04.01.00_int\cu3x1App_SRC\Control\source\util
                -IC:\local\Workspace\DC_V04.01.00_int\cu3x1App_SRC\Control\source\datapoint
                -IC:\local\Workspace\DC_V04.01.00_int\cu3x1App_SRC\Control\source\factory
                -IC:\local\Workspace\DC_V04.01.00_int\cu3x1Platform_SRC\embos
                -IC:\local\Workspace\DC_V04.01.00_int\cu3x1Platform_SRC\emWinColour\gui\core
                -IC:\local\Workspace\DC_V04.01.00_int\cu3x1App_SRC\Control\source\rtip\webpage
                -IC:\local\Workspace\DC_V04.01.00_int\cu3x1App_SRC\Control\source\rtip\config
                -IC:\local\Workspace\DC_V04.01.00_int\cu3x1App_SRC\Control\source\rtip\xnet
                -IC:\local\Workspace\DC_V04.01.00_int\cu3x1App_SRC\Control\source\stub
                -IC:\local\Workspace\DC_V04.01.00_int\cu3x1App_SRC\Control\source\test
                -IC:\local\Workspace\DC_V04.01.00_int\cu3x1App_SRC\Control\source\GENIpro
                -IC:\local\Workspace\DC_V04.01.00_int\cu3x1App_SRC\Control\source\GENIpro\GENI_sys
                -IC:\local\Workspace\DC_V04.01.00_int\cu3x1App_SRC\Control\source\GENIpro\GENIusb\emUSB\USB\Driver
                -IC:\local\Workspace\DC_V04.01.00_int\cu3x1App_SRC\Control\source\application\intercom
                -IC:\local\Workspace\DC_V04.01.00_int\cu3x1App_SRC\Control\source\application\controller
                -IC:\local\Workspace\DC_V04.01.00_int\cu3x1App_SRC\Control\source\application\driver
                -IC:\local\Workspace\DC_V04.01.00_int\cu3x1App_SRC\Control\source\application\webif
                -IC:\local\Workspace\DC_V04.01.00_int\cu3x1App_SRC\Control\source\application\relay
                -IC:\local\Workspace\DC_V04.01.00_int\cu3x1App_SRC\Control\source\application\GENIApp
                -IC:\local\Workspace\DC_V04.01.00_int\cu3x1App_SRC\Control\source\application\alarm
                -IC:\local\Workspace\DC_V04.01.00_int\cu3x1App_SRC\Control\source\application\config
                -IC:\local\Workspace\DC_V04.01.00_int\cu3x1App_SRC\Control\source\application\AnaInConfigCtrl
                -IC:\local\Workspace\DC_V04.01.00_int\cu3x1App_SRC\Control\source\application\Sms
                -IC:\local\Workspace\DC_V04.01.00_int\cu3x1App_SRC\Control\source\application\display
                -IC:\local\Workspace\DC_V04.01.00_int\cu3x1App_SRC\Control\source\application\display\display_task
                -IC:\local\Workspace\DC_V04.01.00_int\cu3x1App_SRC\Control\source\application\display\gui_utility
                -IC:\local\Workspace\DC_V04.01.00_int\cu3x1App_SRC\Control\source\application\display\mpcunit
                -IC:\local\Workspace\DC_V04.01.00_int\cu3x1App_SRC\Control\source\GeniPro
                -IC:\local\Workspace\DC_V04.01.00_int\cu3x1App_SRC\Control\source\GeniPro\GENI_sys
                -IC:\local\Workspace\DC_V04.01.00_int\cu3x1App_SRC\Control\source\GeniPro\GENIbus
                -IC:\local\Workspace\DC_V04.01.00_int\cu3x1App_SRC\Control\source\GeniPro\GENIcom
                -IC:\local\Workspace\DC_V04.01.00_int\cu3x1App_SRC\Control\source\GeniPro\GENIrs232
                -IC:\local\Workspace\DC_V04.01.00_int\cu3x1App_SRC\Control\source\GeniPro\Virtual
                -IC:\local\Workspace\DC_V04.01.00_int\cu3x1Platform_SRC\Platform\common
                -IC:\local\Workspace\DC_V04.01.00_int\cu3x1Platform_SRC\Platform\hardware
                -IC:\local\Workspace\DC_V04.01.00_int\cu3x1Platform_SRC\Platform\hardware\D3018X
                -IC:\local\Workspace\DC_V04.01.00_int\cu3x1App_SRC\Control\source\application\display\imagesTFT
                -IC:\GHS\V35\mips35\mipsl_sf -r4121 -source=GUIChar.c -o
                objs\gh_2i088.o -list=objs\GUIChar.lst
                C:\Users\55602\AppData\Local\Temp\gh_2i088.s
Source File:    C:\Users\55602\AppData\Local\Temp\gh_2i088.s
Directory:      C:\local\Workspace\DC_V04.01.00_int\cu3x1App_SRC\Control\source
Host OS:        GHS_WIN32
Version:        AS-MIPS 3.5#11 
Release:        MULTI 2000, MIPS v3.5
Revision Date:  Wed Feb 27 12:19:03 2002
Release Date:   Sat Mar 02 02:57:59 2002
                             1	 #Source File:   C:\local\Workspace\DC_V04.01.00_int\cu3x1Platform_SRC\emWinColour\GUI\Core\GUIChar.c

                                   Tue Apr 07 08:56:13 2015           Page 2
                                   Tue Apr 07 08:56:13 2015       gh_2i088.s
                             2	 #Directory:     
                             3	 #		C:\local\Workspace\DC_V04.01.00_int\cu3x1App_SRC\Control\source
                             4	 #Compile Date:  Tue Apr 07 08:56:13 2015
                             5	 #Host OS:       Win32
                             6	 #Version:       C-MIPS 3.5#11 RELEASE VERSION
                             7	 #Release:       MULTI 2000, MIPS v3.5
                             8	 #Revision Date: Fri Mar 01 11:32:40 2002
                             9	 #Release Date:  Sat Mar 02 02:58:48 2002
                            10		.set	noat
                            11		.set	noreorder
                            12		.set	nomacro
                            13		.text
                            14		.align	4
                            15		.globl	GUI_DispNextLine
                            16	GUI_DispNextLine:
        27bdfff0 00000000   17		addiu	$sp, $sp, -16
        afbf000c 00000004   18		sw	$ra, 12($sp)
        afb00000 00000008   19		sw	$16, 0($sp)
                            20	 #	    .bf
        0c000000 0000000c   21		jal	GUI_Lock
        3c100000 00000010   22		lui	$16, %hi(GUI_Context)
        0c000000 00000014   23		jal	GUI_GetFontDistY
        26100000 00000018   24		addiu	$16, $16, %lo(GUI_Context)
        86030028 0000001c   25		lh	$3, 40($16)
        86190024 00000020   26		lh	$25, 36($16)
        00621821 00000024   27		addu	$3, $3, $2
        a6030028 00000028   28		sh	$3, 40($16)
        0c000000 0000002c   29		jal	GUI_Unlock
        a6190026 00000030   30		sh	$25, 38($16)
                            31	 #	    .ef
        8fb00000 00000034   32		lw	$16, 0($sp)
        8fbf000c 00000038   33		lw	$ra, 12($sp)
        03e00008 0000003c   34		jr	$ra
        27bd0010 00000040   35		addiu	$sp, $sp, 16
                            36		.type	GUI_DispNextLine,@function
                            37		.size	GUI_DispNextLine,.-GUI_DispNextLine
                            38		.align	4
                            39	
                            40		.data
                            41	.L15:
                            42		.text
                            43		.align	4
                            44		.align	4
                            45		.globl	GL_DispChar
                            46	GL_DispChar:
        27bdfff0 00000044   47		addiu	$sp, $sp, -16
                            48	 #	    .bf
        afb00000 00000048   49		sw	$16, 0($sp)
        3090ffff 0000004c   50		andi	$16, $4, 65535
        3419000a 00000050   51		ori	$25, $0, 10
        16190007 00000054   52		bne	$16, $25, .L23
        afbf000c 00000058   53		sw	$ra, 12($sp)
        0c000000 0000005c   54		jal	GUI_DispNextLine
        00000000 00000060   55		nop
        8fbf000c 00000064   56		lw	$ra, 12($sp)
        8fb00000 00000068   57		lw	$16, 0($sp)

                                   Tue Apr 07 08:56:13 2015           Page 3
                                   Tue Apr 07 08:56:13 2015       gh_2i088.s
        03e00008 0000006c   58		jr	$ra
        27bd0010 00000070   59		addiu	$sp, $sp, 16
                            60	.L23:
        3418000d 00000074   61		ori	$24, $0, 13
        52180011 00000078   62		beql	$16, $24, .L1000021
        8fb00000 0000007c   63		lw	$16, 0($sp)
        0c000000 00000080   64		jal	GUI_Lock
        00000000 00000084   65		nop
        3c010000 00000088   66		lui	$1, %hi(GUI_Context+28)
        8c2f0000 0000008c   67		lw	$15, %lo(GUI_Context+28)($1)
        8def0000 00000090   68		lw	$15, 0($15)
        01e0f809 00000094   69		jalr	$15
        02002025 00000098   70		move	$4, $16
        8f8e0000 0000009c   71		lw	$14, %sdaoff(GUI_pfDispCharStyle)($28)
        11c00004 000000a0   72		beq	$14, $0, .L28
        00000000 000000a4   73		nop
        01c0c825 000000a8   74		move	$25, $14
        0320f809 000000ac   75		jalr	$25
        02002025 000000b0   76		move	$4, $16
                            77	.L28:
        0c000000 000000b4   78		jal	GUI_Unlock
        00000000 000000b8   79		nop
        8fb00000 000000bc   80		lw	$16, 0($sp)
                            81	.L1000021:
                            82	 #	    .ef
        8fbf000c 000000c0   83		lw	$ra, 12($sp)
        03e00008 000000c4   84		jr	$ra
        27bd0010 000000c8   85		addiu	$sp, $sp, 16
                            86		.type	GL_DispChar,@function
                            87		.size	GL_DispChar,.-GL_DispChar
                            88		.align	4
                            89	
                            90	 #c	$16	param
                            91	
                            92		.data
                            93	.L56:
                            94		.text
                            95		.align	4
                            96		.align	4
                            97		.globl	GUI_GetYAdjust
                            98	GUI_GetYAdjust:
        27bdfff0 000000cc   99		addiu	$sp, $sp, -16
        afbf000c 000000d0  100		sw	$ra, 12($sp)
                           101	 #	    .bf
        0c000000 000000d4  102		jal	GUI_Lock
        afb00000 000000d8  103		sw	$16, 0($sp)
        3c020000 000000dc  104		lui	$2, %hi(GUI_Context)
        24420000 000000e0  105		addiu	$2, $2, %lo(GUI_Context)
        84590030 000000e4  106		lh	$25, 48($2)
        34100000 000000e8  107		ori	$16, $0, 0
        3323000c 000000ec  108		andi	$3, $25, 12
        2463fffc 000000f0  109		addiu	$3, $3, -4
        10600007 000000f4  110		beq	$3, $0, .L79
        2463fffc 000000f8  111		addiu	$3, $3, -4
        10600016 000000fc  112		beq	$3, $0, .L81
        2463fffc 00000100  113		addiu	$3, $3, -4

                                   Tue Apr 07 08:56:13 2015           Page 4
                                   Tue Apr 07 08:56:13 2015       gh_2i088.s
        5060000c 00000104  114		beql	$3, $0, .L1000080
        8c4e001c 00000108  115		lw	$14, 28($2)
        08000000 0000010c  116		j	.L77
        00000000 00000110  117		nop
                           118	.L79:
        8c59001c 00000114  119		lw	$25, 28($2)
        93390014 00000118  120		lbu	$25, 20($25)
        0c000000 0000011c  121		jal	GUI_Unlock
        2730ffff 00000120  122		addiu	$16, $25, -1
        02001025 00000124  123		move	$2, $16
        8fbf000c 00000128  124		lw	$ra, 12($sp)
        8fb00000 0000012c  125		lw	$16, 0($sp)
        03e00008 00000130  126		jr	$ra
        27bd0010 00000134  127		addiu	$sp, $sp, 16
                           128	.L1000080:
        91ce0014 00000138  129		lbu	$14, 20($14)
        0c000000 0000013c  130		jal	GUI_Unlock
        000e8042 00000140  131		srl	$16, $14, 1
        02001025 00000144  132		move	$2, $16
        8fbf000c 00000148  133		lw	$ra, 12($sp)
        8fb00000 0000014c  134		lw	$16, 0($sp)
        03e00008 00000150  135		jr	$ra
        27bd0010 00000154  136		addiu	$sp, $sp, 16
                           137	.L81:
        8c58001c 00000158  138		lw	$24, 28($2)
        93180014 0000015c  139		lbu	$24, 20($24)
        00188042 00000160  140		srl	$16, $24, 1
                           141	.L77:
        0c000000 00000164  142		jal	GUI_Unlock
        00000000 00000168  143		nop
                           144	 #	    .ef
        02001025 0000016c  145		move	$2, $16
        8fbf000c 00000170  146		lw	$ra, 12($sp)
        8fb00000 00000174  147		lw	$16, 0($sp)
        03e00008 00000178  148		jr	$ra
        27bd0010 0000017c  149		addiu	$sp, $sp, 16
                           150		.type	GUI_GetYAdjust,@function
                           151		.size	GUI_GetYAdjust,.-GUI_GetYAdjust
                           152		.align	4
                           153	 #r	$16	local
                           154	
                           155		.data
                           156	.L105:
                           157		.text
                           158		.align	4
                           159		.align	4
                           160		.globl	GUI_GetFontDistY
                           161	GUI_GetFontDistY:
        27bdfff0 00000180  162		addiu	$sp, $sp, -16
        afbf000c 00000184  163		sw	$ra, 12($sp)
                           164	 #	    .bf
        0c000000 00000188  165		jal	GUI_Lock
        afb00000 0000018c  166		sw	$16, 0($sp)
        3c010000 00000190  167		lui	$1, %hi(GUI_Context+28)
        8c300000 00000194  168		lw	$16, %lo(GUI_Context+28)($1)
        0c000000 00000198  169		jal	GUI_Unlock

                                   Tue Apr 07 08:56:13 2015           Page 5
                                   Tue Apr 07 08:56:13 2015       gh_2i088.s
        92100015 0000019c  170		lbu	$16, 21($16)
                           171	 #	    .ef
        02001025 000001a0  172		move	$2, $16
        8fbf000c 000001a4  173		lw	$ra, 12($sp)
        8fb00000 000001a8  174		lw	$16, 0($sp)
        03e00008 000001ac  175		jr	$ra
        27bd0010 000001b0  176		addiu	$sp, $sp, 16
                           177		.type	GUI_GetFontDistY,@function
                           178		.size	GUI_GetFontDistY,.-GUI_GetFontDistY
                           179		.align	4
                           180	
                           181		.data
                           182	.L134:
                           183		.text
                           184		.align	4
                           185		.align	4
                           186		.globl	GUI_GetCharDistX
                           187	GUI_GetCharDistX:
        27bdfff0 000001b4  188		addiu	$sp, $sp, -16
        afbf000c 000001b8  189		sw	$ra, 12($sp)
        afb00000 000001bc  190		sw	$16, 0($sp)
                           191	 #	    .bf
        0c000000 000001c0  192		jal	GUI_Lock
        3090ffff 000001c4  193		andi	$16, $4, 65535
        3c010000 000001c8  194		lui	$1, %hi(GUI_Context+28)
        8c390000 000001cc  195		lw	$25, %lo(GUI_Context+28)($1)
        8f390004 000001d0  196		lw	$25, 4($25)
        0320f809 000001d4  197		jalr	$25
        02002025 000001d8  198		move	$4, $16
        0c000000 000001dc  199		jal	GUI_Unlock
        00408025 000001e0  200		move	$16, $2
                           201	 #	    .ef
        02001025 000001e4  202		move	$2, $16
        8fbf000c 000001e8  203		lw	$ra, 12($sp)
        8fb00000 000001ec  204		lw	$16, 0($sp)
        03e00008 000001f0  205		jr	$ra
        27bd0010 000001f4  206		addiu	$sp, $sp, 16
                           207		.type	GUI_GetCharDistX,@function
                           208		.size	GUI_GetCharDistX,.-GUI_GetCharDistX
                           209		.align	4
                           210	
                           211	 #c	$16	param
                           212	
                           213		.data
                           214	.L153:
                           215		.text
                           216		.align	4
                           217	 #GUI_Context	GUI_Context	import
                           218	 #GUI_pfDispCharStyle	%sdaoff(GUI_pfDispCharStyle)	import
                           219	
                           220		.data
                           221		.text
