
                                   Tue Apr 07 08:57:53 2015           Page 1
                                   Tue Apr 07 08:57:53 2015       gh_2i0ac.s
Command Line:   C:\GHS\V35\mips35\asmips.exe -noundefined -elf -b0
                -IC:\local\Workspace\DC_V04.01.00_int\cu3x1Platform_SRC\emWinColour
                -IC:\local\Workspace\DC_V04.01.00_int\cu3x1Platform_SRC\platform\include
                -IC:\local\Workspace\DC_V04.01.00_int\cu3x1Platform_SRC\platform\common
                -IC:\local\Workspace\DC_V04.01.00_int\cu3x1Platform_SRC\platform\hardware
                -IC:\local\Workspace\DC_V04.01.00_int\cu3x1Platform_SRC\platform\hardware\D3018X
                -IC:\local\Workspace\DC_V04.01.00_int\cu3x1Platform_SRC\embos\inc
                -IC:\local\Workspace\DC_V04.01.00_int\cu3x1Platform_SRC\emWinColour\config
                -IC:\local\Workspace\DC_V04.01.00_int\cu3x1Platform_SRC\emWinColour\gui\ConvertMono
                -IC:\local\Workspace\DC_V04.01.00_int\cu3x1Platform_SRC\emWinColour\gui\Core
                -IC:\local\Workspace\DC_V04.01.00_int\cu3x1Platform_SRC\emWinColour\gui\Font
                -IC:\local\Workspace\DC_V04.01.00_int\cu3x1Platform_SRC\emWinColour\gui\LCDDriver
                -IC:\local\Workspace\DC_V04.01.00_int\cu3x1Platform_SRC\emWinColour\gui\MemDev
                -IC:\local\Workspace\DC_V04.01.00_int\cu3x1Platform_SRC\emWinColour\gui\VNC
                -IC:\local\Workspace\DC_V04.01.00_int\cu3x1Platform_SRC\emWinColour\gui\Widget
                -IC:\local\Workspace\DC_V04.01.00_int\cu3x1Platform_SRC\emWinColour\gui\wm
                -IC:\local\Workspace\DC_V04.01.00_int\cu3x1App_SRC\Control\source
                -IC:\local\Workspace\DC_V04.01.00_int\cu3x1App_SRC\Control\source\include
                -IC:\local\Workspace\DC_V04.01.00_int\cu3x1App_SRC\Control\source\util
                -IC:\local\Workspace\DC_V04.01.00_int\cu3x1App_SRC\Control\source\datapoint
                -IC:\local\Workspace\DC_V04.01.00_int\cu3x1App_SRC\Control\source\factory
                -IC:\local\Workspace\DC_V04.01.00_int\cu3x1Platform_SRC\embos
                -IC:\local\Workspace\DC_V04.01.00_int\cu3x1Platform_SRC\emWinColour\gui\core
                -IC:\local\Workspace\DC_V04.01.00_int\cu3x1App_SRC\Control\source\rtip\webpage
                -IC:\local\Workspace\DC_V04.01.00_int\cu3x1App_SRC\Control\source\rtip\config
                -IC:\local\Workspace\DC_V04.01.00_int\cu3x1App_SRC\Control\source\rtip\xnet
                -IC:\local\Workspace\DC_V04.01.00_int\cu3x1App_SRC\Control\source\stub
                -IC:\local\Workspace\DC_V04.01.00_int\cu3x1App_SRC\Control\source\test
                -IC:\local\Workspace\DC_V04.01.00_int\cu3x1App_SRC\Control\source\GENIpro
                -IC:\local\Workspace\DC_V04.01.00_int\cu3x1App_SRC\Control\source\GENIpro\GENI_sys
                -IC:\local\Workspace\DC_V04.01.00_int\cu3x1App_SRC\Control\source\GENIpro\GENIusb\emUSB\USB\Driver
                -IC:\local\Workspace\DC_V04.01.00_int\cu3x1App_SRC\Control\source\application\intercom
                -IC:\local\Workspace\DC_V04.01.00_int\cu3x1App_SRC\Control\source\application\controller
                -IC:\local\Workspace\DC_V04.01.00_int\cu3x1App_SRC\Control\source\application\driver
                -IC:\local\Workspace\DC_V04.01.00_int\cu3x1App_SRC\Control\source\application\webif
                -IC:\local\Workspace\DC_V04.01.00_int\cu3x1App_SRC\Control\source\application\relay
                -IC:\local\Workspace\DC_V04.01.00_int\cu3x1App_SRC\Control\source\application\GENIApp
                -IC:\local\Workspace\DC_V04.01.00_int\cu3x1App_SRC\Control\source\application\alarm
                -IC:\local\Workspace\DC_V04.01.00_int\cu3x1App_SRC\Control\source\application\config
                -IC:\local\Workspace\DC_V04.01.00_int\cu3x1App_SRC\Control\source\application\AnaInConfigCtrl
                -IC:\local\Workspace\DC_V04.01.00_int\cu3x1App_SRC\Control\source\application\Sms
                -IC:\local\Workspace\DC_V04.01.00_int\cu3x1App_SRC\Control\source\application\display
                -IC:\local\Workspace\DC_V04.01.00_int\cu3x1App_SRC\Control\source\application\display\display_task
                -IC:\local\Workspace\DC_V04.01.00_int\cu3x1App_SRC\Control\source\application\display\gui_utility
                -IC:\local\Workspace\DC_V04.01.00_int\cu3x1App_SRC\Control\source\application\display\mpcunit
                -IC:\local\Workspace\DC_V04.01.00_int\cu3x1App_SRC\Control\source\GeniPro
                -IC:\local\Workspace\DC_V04.01.00_int\cu3x1App_SRC\Control\source\GeniPro\GENI_sys
                -IC:\local\Workspace\DC_V04.01.00_int\cu3x1App_SRC\Control\source\GeniPro\GENIbus
                -IC:\local\Workspace\DC_V04.01.00_int\cu3x1App_SRC\Control\source\GeniPro\GENIcom
                -IC:\local\Workspace\DC_V04.01.00_int\cu3x1App_SRC\Control\source\GeniPro\GENIrs232
                -IC:\local\Workspace\DC_V04.01.00_int\cu3x1App_SRC\Control\source\GeniPro\Virtual
                -IC:\local\Workspace\DC_V04.01.00_int\cu3x1Platform_SRC\Platform\common
                -IC:\local\Workspace\DC_V04.01.00_int\cu3x1Platform_SRC\Platform\hardware
                -IC:\local\Workspace\DC_V04.01.00_int\cu3x1Platform_SRC\Platform\hardware\D3018X
                -IC:\local\Workspace\DC_V04.01.00_int\cu3x1App_SRC\Control\source\application\display\imagesTFT
                -IC:\GHS\V35\mips35\mipsl_sf -r4121 -source=GUIDEV_CmpWithLCD.c
                -o objs\gh_2i0ac.o -list=objs\GUIDEV_CmpWithLCD.lst
                C:\Users\55602\AppData\Local\Temp\gh_2i0ac.s
Source File:    C:\Users\55602\AppData\Local\Temp\gh_2i0ac.s
Directory:      C:\local\Workspace\DC_V04.01.00_int\cu3x1App_SRC\Control\source
Host OS:        GHS_WIN32
Version:        AS-MIPS 3.5#11 
Release:        MULTI 2000, MIPS v3.5
Revision Date:  Wed Feb 27 12:19:03 2002
Release Date:   Sat Mar 02 02:57:59 2002
                             1	 #Source File:   C:\local\Workspace\DC_V04.01.00_int\cu3x1Platform_SRC\emWinColour\GUI\MemDev\GUIDEV_CmpWithLCD.c

                                   Tue Apr 07 08:57:53 2015           Page 2
                                   Tue Apr 07 08:57:53 2015       gh_2i0ac.s
                             2	 #Directory:     
                             3	 #		C:\local\Workspace\DC_V04.01.00_int\cu3x1App_SRC\Control\source
                             4	 #Compile Date:  Tue Apr 07 08:57:53 2015
                             5	 #Host OS:       Win32
                             6	 #Version:       C-MIPS 3.5#11 RELEASE VERSION
                             7	 #Release:       MULTI 2000, MIPS v3.5
                             8	 #Revision Date: Fri Mar 01 11:32:40 2002
                             9	 #Release Date:  Sat Mar 02 02:58:48 2002
                            10		.set	noat
                            11		.set	noreorder
                            12		.set	nomacro
                            13		.text
                            14		.align	4
                            15		.globl	GUI_MEMDEV_CompareWithLCD
                            16	GUI_MEMDEV_CompareWithLCD:
        27bdffa8 00000000   17		addiu	$sp, $sp, -88
                            18	 #	    .bf
        afa00028 00000004   19		sw	$0, 40($sp)
        afbe0020 00000008   20		sw	$fp, 32($sp)
        afb7001c 0000000c   21		sw	$23, 28($sp)
        afb60018 00000010   22		sw	$22, 24($sp)
        afb50014 00000014   23		sw	$21, 20($sp)
        afb00000 00000018   24		sw	$16, 0($sp)
        00048400 0000001c   25		sll	$16, $4, 16
        00108403 00000020   26		sra	$16, $16, 16
        afb10004 00000024   27		sw	$17, 4($sp)
        00a08825 00000028   28		move	$17, $5
        afb20008 0000002c   29		sw	$18, 8($sp)
        00c09025 00000030   30		move	$18, $6
        afb3000c 00000034   31		sw	$19, 12($sp)
        00e09825 00000038   32		move	$19, $7
        afb40010 0000003c   33		sw	$20, 16($sp)
        0100a025 00000040   34		move	$20, $8
        16000003 00000044   35		bne	$16, $0, .L4
        afbf0054 00000048   36		sw	$ra, 84($sp)
        3c010000 0000004c   37		lui	$1, %hi(GUI_Context+80)
        84300000 00000050   38		lh	$16, %lo(GUI_Context+80)($1)
                            39	.L4:
        1600000e 00000054   40		bne	$16, $0, .L6
        00000000 00000058   41		nop
        8fbe0020 0000005c   42		lw	$fp, 32($sp)
        8fb7001c 00000060   43		lw	$23, 28($sp)
        8fbf0054 00000064   44		lw	$ra, 84($sp)
        8fb00000 00000068   45		lw	$16, 0($sp)
        8fb10004 0000006c   46		lw	$17, 4($sp)
        8fb20008 00000070   47		lw	$18, 8($sp)
        8fb3000c 00000074   48		lw	$19, 12($sp)
        8fb40010 00000078   49		lw	$20, 16($sp)
        8fb50014 0000007c   50		lw	$21, 20($sp)
        8fb60018 00000080   51		lw	$22, 24($sp)
        27bd0058 00000084   52		addiu	$sp, $sp, 88
        03e00008 00000088   53		jr	$ra
        34020001 0000008c   54		ori	$2, $0, 1
                            55	.L6:
        0c000000 00000090   56		jal	GUI_Lock
        00000000 00000094   57		nop

                                   Tue Apr 07 08:57:53 2015           Page 3
                                   Tue Apr 07 08:57:53 2015       gh_2i0ac.s
        0c000000 00000098   58		jal	GUI_ALLOC_h2p
        02002025 0000009c   59		move	$4, $16
        844c0000 000000a0   60		lh	$12, 0($2)
        845e0002 000000a4   61		lh	$fp, 2($2)
        844f0004 000000a8   62		lh	$15, 4($2)
        afac0030 000000ac   63		sw	$12, 48($sp)
        844e0006 000000b0   64		lh	$14, 6($2)
        01ec6021 000000b4   65		addu	$12, $15, $12
        afac0038 000000b8   66		sw	$12, 56($sp)
        01de6021 000000bc   67		addu	$12, $14, $fp
        0c000000 000000c0   68		jal	LCD_GetXMag
        afac003c 000000c4   69		sw	$12, 60($sp)
        0c000000 000000c8   70		jal	LCD_GetYMag
        afa2002c 000000cc   71		sw	$2, 44($sp)
        07c10002 000000d0   72		bgez	$fp, .L9
        afa20040 000000d4   73		sw	$2, 64($sp)
        341e0000 000000d8   74		ori	$fp, $0, 0
                            75	.L9:
        8fa10030 000000dc   76		lw	$1, 48($sp)
        04220001 000000e0   77		bltzl	$1, .L11
        afa00030 000000e4   78		sw	$0, 48($sp)
                            79	.L11:
        0c000000 000000e8   80		jal	LCD_GetVYSize
        00000000 000000ec   81		nop
        8fac003c 000000f0   82		lw	$12, 60($sp)
        00401825 000000f4   83		move	$3, $2
        006cc02a 000000f8   84		slt	$24, $3, $12
        57000001 000000fc   85		bnel	$24, $0, .L13
        afa3003c 00000100   86		sw	$3, 60($sp)
                            87	.L13:
        0c000000 00000104   88		jal	LCD_GetVXSize
        00000000 00000108   89		nop
        8fac0038 0000010c   90		lw	$12, 56($sp)
        00401825 00000110   91		move	$3, $2
        006c782a 00000114   92		slt	$15, $3, $12
        11e000f4 00000118   93		beq	$15, $0, .L1000020
        8fac003c 0000011c   94		lw	$12, 60($sp)
        afa30038 00000120   95		sw	$3, 56($sp)
        03ccc02a 00000124   96		slt	$24, $fp, $12
        130000f3 00000128   97		beq	$24, $0, .L29
        00000000 0000012c   98		nop
        8fb60030 00000130   99		lw	$22, 48($sp)
                           100	.L1000019:
        03c02825 00000134  101		move	$5, $fp
        0c000000 00000138  102		jal	GUI_MEMDEV__XY2PTR
        02c02025 0000013c  103		move	$4, $22
        8fa10038 00000140  104		lw	$1, 56($sp)
        afa00034 00000144  105		sw	$0, 52($sp)
        8fac0030 00000148  106		lw	$12, 48($sp)
        242effff 0000014c  107		addiu	$14, $1, -1
        34010000 00000150  108		ori	$1, $0, 0
        01cc6823 00000154  109		subu	$13, $14, $12
        25b90001 00000158  110		addiu	$25, $13, 1
        0039c02a 0000015c  111		slt	$24, $1, $25
        13000002 00000160  112		beq	$24, $0, .L223
        00408025 00000164  113		move	$16, $2

                                   Tue Apr 07 08:57:53 2015           Page 4
                                   Tue Apr 07 08:57:53 2015       gh_2i0ac.s
        afb90034 00000168  114		sw	$25, 52($sp)
                           115	.L223:
        8fa10034 0000016c  116		lw	$1, 52($sp)
        00016082 00000170  117		srl	$12, $1, 2
        118000a2 00000174  118		beq	$12, $0, .L81
        afac0024 00000178  119		sw	$12, 36($sp)
        8fac0040 0000017c  120		lw	$12, 64($sp)
        03cc0018 00000180  121		mult	$fp, $12
        00006012 00000184  122		mflo	$12
        afac004c 00000188  123		sw	$12, 76($sp)
        00000000 0000018c  124		nop
                           125	.L82:
        8fac002c 00000190  126		lw	$12, 44($sp)
        92150000 00000194  127		lbu	$21, 0($16)
        26100001 00000198  128		addiu	$16, $16, 1
        02cc0018 0000019c  129		mult	$22, $12
        00002012 000001a0  130		mflo	$4
        0c000000 000001a4  131		jal	LCD_L0_GetPixelIndex
        8fa5004c 000001a8  132		lw	$5, 76($sp)
        0c000000 000001ac  133		jal	LCD_GetBitsPerPixel
        0040b825 000001b0  134		move	$23, $2
        28430009 000001b4  135		slti	$3, $2, 9
        14600005 000001b8  136		bne	$3, $0, .L84
        00000000 000001bc  137		nop
        92190000 000001c0  138		lbu	$25, 0($16)
        26100001 000001c4  139		addiu	$16, $16, 1
        00196a00 000001c8  140		sll	$13, $25, 8
        02ada825 000001cc  141		or	$21, $21, $13
                           142	.L84:
        12f50014 000001d0  143		beq	$23, $21, .L88
        340c0001 000001d4  144		ori	$12, $0, 1
        ae360000 000001d8  145		sw	$22, 0($17)
        ae5e0000 000001dc  146		sw	$fp, 0($18)
        ae970000 000001e0  147		sw	$23, 0($20)
        ae750000 000001e4  148		sw	$21, 0($19)
        0c000000 000001e8  149		jal	GUI_Unlock
        afac0028 000001ec  150		sw	$12, 40($sp)
        8fb60018 000001f0  151		lw	$22, 24($sp)
        8fb50014 000001f4  152		lw	$21, 20($sp)
        8fb40010 000001f8  153		lw	$20, 16($sp)
        8fb3000c 000001fc  154		lw	$19, 12($sp)
        8fb20008 00000200  155		lw	$18, 8($sp)
        8fb10004 00000204  156		lw	$17, 4($sp)
        8fb00000 00000208  157		lw	$16, 0($sp)
        8fbf0054 0000020c  158		lw	$ra, 84($sp)
        8fb7001c 00000210  159		lw	$23, 28($sp)
        8fbe0020 00000214  160		lw	$fp, 32($sp)
        8fa20028 00000218  161		lw	$2, 40($sp)
        03e00008 0000021c  162		jr	$ra
        27bd0058 00000220  163		addiu	$sp, $sp, 88
                           164	.L88:
        8fac002c 00000224  165		lw	$12, 44($sp)
        26d60001 00000228  166		addiu	$22, $22, 1
        92150000 0000022c  167		lbu	$21, 0($16)
        02cc0018 00000230  168		mult	$22, $12
        26100001 00000234  169		addiu	$16, $16, 1

                                   Tue Apr 07 08:57:53 2015           Page 5
                                   Tue Apr 07 08:57:53 2015       gh_2i0ac.s
        00002012 00000238  170		mflo	$4
        0c000000 0000023c  171		jal	LCD_L0_GetPixelIndex
        8fa5004c 00000240  172		lw	$5, 76($sp)
        0c000000 00000244  173		jal	LCD_GetBitsPerPixel
        0040b825 00000248  174		move	$23, $2
        28430009 0000024c  175		slti	$3, $2, 9
        14600005 00000250  176		bne	$3, $0, .L90
        00000000 00000254  177		nop
        920d0000 00000258  178		lbu	$13, 0($16)
        26100001 0000025c  179		addiu	$16, $16, 1
        000d7200 00000260  180		sll	$14, $13, 8
        02aea825 00000264  181		or	$21, $21, $14
                           182	.L90:
        12f50014 00000268  183		beq	$23, $21, .L94
        340c0001 0000026c  184		ori	$12, $0, 1
        ae360000 00000270  185		sw	$22, 0($17)
        ae5e0000 00000274  186		sw	$fp, 0($18)
        ae970000 00000278  187		sw	$23, 0($20)
        ae750000 0000027c  188		sw	$21, 0($19)
        0c000000 00000280  189		jal	GUI_Unlock
        afac0028 00000284  190		sw	$12, 40($sp)
        8fb60018 00000288  191		lw	$22, 24($sp)
        8fb50014 0000028c  192		lw	$21, 20($sp)
        8fb40010 00000290  193		lw	$20, 16($sp)
        8fb3000c 00000294  194		lw	$19, 12($sp)
        8fb20008 00000298  195		lw	$18, 8($sp)
        8fb10004 0000029c  196		lw	$17, 4($sp)
        8fb00000 000002a0  197		lw	$16, 0($sp)
        8fbf0054 000002a4  198		lw	$ra, 84($sp)
        8fb7001c 000002a8  199		lw	$23, 28($sp)
        8fbe0020 000002ac  200		lw	$fp, 32($sp)
        8fa20028 000002b0  201		lw	$2, 40($sp)
        03e00008 000002b4  202		jr	$ra
        27bd0058 000002b8  203		addiu	$sp, $sp, 88
                           204	.L94:
        8fac002c 000002bc  205		lw	$12, 44($sp)
        26d60001 000002c0  206		addiu	$22, $22, 1
        92150000 000002c4  207		lbu	$21, 0($16)
        02cc0018 000002c8  208		mult	$22, $12
        26100001 000002cc  209		addiu	$16, $16, 1
        00002012 000002d0  210		mflo	$4
        0c000000 000002d4  211		jal	LCD_L0_GetPixelIndex
        8fa5004c 000002d8  212		lw	$5, 76($sp)
        0c000000 000002dc  213		jal	LCD_GetBitsPerPixel
        0040b825 000002e0  214		move	$23, $2
        28430009 000002e4  215		slti	$3, $2, 9
        14600005 000002e8  216		bne	$3, $0, .L96
        00000000 000002ec  217		nop
        920e0000 000002f0  218		lbu	$14, 0($16)
        26100001 000002f4  219		addiu	$16, $16, 1
        000e7a00 000002f8  220		sll	$15, $14, 8
        02afa825 000002fc  221		or	$21, $21, $15
                           222	.L96:
        12f50014 00000300  223		beq	$23, $21, .L100
        340c0001 00000304  224		ori	$12, $0, 1
        ae360000 00000308  225		sw	$22, 0($17)

                                   Tue Apr 07 08:57:53 2015           Page 6
                                   Tue Apr 07 08:57:53 2015       gh_2i0ac.s
        ae5e0000 0000030c  226		sw	$fp, 0($18)
        ae970000 00000310  227		sw	$23, 0($20)
        ae750000 00000314  228		sw	$21, 0($19)
        0c000000 00000318  229		jal	GUI_Unlock
        afac0028 0000031c  230		sw	$12, 40($sp)
        8fb60018 00000320  231		lw	$22, 24($sp)
        8fb50014 00000324  232		lw	$21, 20($sp)
        8fb40010 00000328  233		lw	$20, 16($sp)
        8fb3000c 0000032c  234		lw	$19, 12($sp)
        8fb20008 00000330  235		lw	$18, 8($sp)
        8fb10004 00000334  236		lw	$17, 4($sp)
        8fb00000 00000338  237		lw	$16, 0($sp)
        8fbf0054 0000033c  238		lw	$ra, 84($sp)
        8fb7001c 00000340  239		lw	$23, 28($sp)
        8fbe0020 00000344  240		lw	$fp, 32($sp)
        8fa20028 00000348  241		lw	$2, 40($sp)
        03e00008 0000034c  242		jr	$ra
        27bd0058 00000350  243		addiu	$sp, $sp, 88
                           244	.L100:
        8fac002c 00000354  245		lw	$12, 44($sp)
        26d60001 00000358  246		addiu	$22, $22, 1
        92150000 0000035c  247		lbu	$21, 0($16)
        02cc0018 00000360  248		mult	$22, $12
        26100001 00000364  249		addiu	$16, $16, 1
        00002012 00000368  250		mflo	$4
        0c000000 0000036c  251		jal	LCD_L0_GetPixelIndex
        8fa5004c 00000370  252		lw	$5, 76($sp)
        0c000000 00000374  253		jal	LCD_GetBitsPerPixel
        0040b825 00000378  254		move	$23, $2
        28430009 0000037c  255		slti	$3, $2, 9
        14600005 00000380  256		bne	$3, $0, .L102
        00000000 00000384  257		nop
        920f0000 00000388  258		lbu	$15, 0($16)
        26100001 0000038c  259		addiu	$16, $16, 1
        000fc200 00000390  260		sll	$24, $15, 8
        02b8a825 00000394  261		or	$21, $21, $24
                           262	.L102:
        12f50014 00000398  263		beq	$23, $21, .L105
        340c0001 0000039c  264		ori	$12, $0, 1
        ae360000 000003a0  265		sw	$22, 0($17)
        ae5e0000 000003a4  266		sw	$fp, 0($18)
        ae970000 000003a8  267		sw	$23, 0($20)
        ae750000 000003ac  268		sw	$21, 0($19)
        0c000000 000003b0  269		jal	GUI_Unlock
        afac0028 000003b4  270		sw	$12, 40($sp)
        8fb60018 000003b8  271		lw	$22, 24($sp)
        8fb50014 000003bc  272		lw	$21, 20($sp)
        8fb40010 000003c0  273		lw	$20, 16($sp)
        8fb3000c 000003c4  274		lw	$19, 12($sp)
        8fb20008 000003c8  275		lw	$18, 8($sp)
        8fb10004 000003cc  276		lw	$17, 4($sp)
        8fb00000 000003d0  277		lw	$16, 0($sp)
        8fbf0054 000003d4  278		lw	$ra, 84($sp)
        8fb7001c 000003d8  279		lw	$23, 28($sp)
        8fbe0020 000003dc  280		lw	$fp, 32($sp)
        8fa20028 000003e0  281		lw	$2, 40($sp)

                                   Tue Apr 07 08:57:53 2015           Page 7
                                   Tue Apr 07 08:57:53 2015       gh_2i0ac.s
        03e00008 000003e4  282		jr	$ra
        27bd0058 000003e8  283		addiu	$sp, $sp, 88
                           284	.L105:
        8fa10024 000003ec  285		lw	$1, 36($sp)
        26d60001 000003f0  286		addiu	$22, $22, 1
        242cffff 000003f4  287		addiu	$12, $1, -1
        1580ff65 000003f8  288		bne	$12, $0, .L82
        afac0024 000003fc  289		sw	$12, 36($sp)
                           290	.L81:
        8fa10034 00000400  291		lw	$1, 52($sp)
        302c0003 00000404  292		andi	$12, $1, 3
        11800036 00000408  293		beq	$12, $0, .L18
        afac0024 0000040c  294		sw	$12, 36($sp)
        8fac0040 00000410  295		lw	$12, 64($sp)
        03cc0018 00000414  296		mult	$fp, $12
        00006012 00000418  297		mflo	$12
        afac0044 0000041c  298		sw	$12, 68($sp)
        8fac002c 00000420  299		lw	$12, 44($sp)
        02cc0018 00000424  300		mult	$22, $12
        00006012 00000428  301		mflo	$12
        afac0048 0000042c  302		sw	$12, 72($sp)
        00000000 00000430  303		nop
                           304	.L108:
        92150000 00000434  305		lbu	$21, 0($16)
        26100001 00000438  306		addiu	$16, $16, 1
        8fa40048 0000043c  307		lw	$4, 72($sp)
        0c000000 00000440  308		jal	LCD_L0_GetPixelIndex
        8fa50044 00000444  309		lw	$5, 68($sp)
        0c000000 00000448  310		jal	LCD_GetBitsPerPixel
        0040b825 0000044c  311		move	$23, $2
        28430009 00000450  312		slti	$3, $2, 9
        14600005 00000454  313		bne	$3, $0, .L110
        00000000 00000458  314		nop
        920e0000 0000045c  315		lbu	$14, 0($16)
        26100001 00000460  316		addiu	$16, $16, 1
        000e7a00 00000464  317		sll	$15, $14, 8
        02afa825 00000468  318		or	$21, $21, $15
                           319	.L110:
        12f50014 0000046c  320		beq	$23, $21, .L113
        340c0001 00000470  321		ori	$12, $0, 1
        ae360000 00000474  322		sw	$22, 0($17)
        ae5e0000 00000478  323		sw	$fp, 0($18)
        ae970000 0000047c  324		sw	$23, 0($20)
        ae750000 00000480  325		sw	$21, 0($19)
        0c000000 00000484  326		jal	GUI_Unlock
        afac0028 00000488  327		sw	$12, 40($sp)
        8fb60018 0000048c  328		lw	$22, 24($sp)
        8fb50014 00000490  329		lw	$21, 20($sp)
        8fb40010 00000494  330		lw	$20, 16($sp)
        8fb3000c 00000498  331		lw	$19, 12($sp)
        8fb20008 0000049c  332		lw	$18, 8($sp)
        8fb10004 000004a0  333		lw	$17, 4($sp)
        8fb00000 000004a4  334		lw	$16, 0($sp)
        8fbf0054 000004a8  335		lw	$ra, 84($sp)
        8fb7001c 000004ac  336		lw	$23, 28($sp)
        8fbe0020 000004b0  337		lw	$fp, 32($sp)

                                   Tue Apr 07 08:57:53 2015           Page 8
                                   Tue Apr 07 08:57:53 2015       gh_2i0ac.s
        8fa20028 000004b4  338		lw	$2, 40($sp)
        03e00008 000004b8  339		jr	$ra
        27bd0058 000004bc  340		addiu	$sp, $sp, 88
                           341	.L113:
        8fa10048 000004c0  342		lw	$1, 72($sp)
        8fac002c 000004c4  343		lw	$12, 44($sp)
        002c6021 000004c8  344		addu	$12, $1, $12
        8fa10024 000004cc  345		lw	$1, 36($sp)
        afac0048 000004d0  346		sw	$12, 72($sp)
        26d60001 000004d4  347		addiu	$22, $22, 1
        242cffff 000004d8  348		addiu	$12, $1, -1
        1580ffd5 000004dc  349		bne	$12, $0, .L108
        afac0024 000004e0  350		sw	$12, 36($sp)
                           351	.L18:
        27de0001 000004e4  352		addiu	$fp, $fp, 1
        8fac003c 000004e8  353		lw	$12, 60($sp)
                           354	.L1000020:
        03ccc02a 000004ec  355		slt	$24, $fp, $12
        5700ff10 000004f0  356		bnel	$24, $0, .L1000019
        8fb60030 000004f4  357		lw	$22, 48($sp)
                           358	.L29:
        0c000000 000004f8  359		jal	GUI_Unlock
        00000000 000004fc  360		nop
                           361	 #	    .ef
        8fb60018 00000500  362		lw	$22, 24($sp)
        8fb50014 00000504  363		lw	$21, 20($sp)
        8fb40010 00000508  364		lw	$20, 16($sp)
        8fb3000c 0000050c  365		lw	$19, 12($sp)
        8fb20008 00000510  366		lw	$18, 8($sp)
        8fb10004 00000514  367		lw	$17, 4($sp)
        8fb00000 00000518  368		lw	$16, 0($sp)
        8fbf0054 0000051c  369		lw	$ra, 84($sp)
        8fb7001c 00000520  370		lw	$23, 28($sp)
        8fbe0020 00000524  371		lw	$fp, 32($sp)
        8fa20028 00000528  372		lw	$2, 40($sp)
        03e00008 0000052c  373		jr	$ra
        27bd0058 00000530  374		addiu	$sp, $sp, 88
                           375		.type	GUI_MEMDEV_CompareWithLCD,@function
                           376		.size	GUI_MEMDEV_CompareWithLCD,.-GUI_MEMDEV_CompareWithLCD
                           377		.align	4
                           378	 #Ret	40($sp)	local
                           379	 #y	$fp	local
                           380	 #x0	48($sp)	local
                           381	 #XMax	56($sp)	local
                           382	 #YMax	60($sp)	local
                           383	 #Max	$3	local
                           384	 #MagX	44($sp)	local
                           385	 #MagY	64($sp)	local
                           386	 #x	$22	local
                           387	 #pData	$16	local
                           388	 #Exp	$21	local
                           389	 #Act	$23	local
                           390	
                           391	 #hMem	$16	param
                           392	 #px	$17	param
                           393	 #py	$18	param

                                   Tue Apr 07 08:57:53 2015           Page 9
                                   Tue Apr 07 08:57:53 2015       gh_2i0ac.s
                           394	 #pExp	$19	param
                           395	 #pAct	$20	param
                           396	
                           397		.data
                           398	.L222:
                           399		.text
                           400		.align	4
                           401	 #GUI_Context	GUI_Context	import
                           402	
                           403		.data
                           404		.text
