
                                   Tue Apr 07 08:57:46 2015           Page 1
                                   Tue Apr 07 08:57:45 2015       gh_2i0a7.s
Command Line:   C:\GHS\V35\mips35\asmips.exe -noundefined -elf -b0
                -IC:\local\Workspace\DC_V04.01.00_int\cu3x1Platform_SRC\emWinColour
                -IC:\local\Workspace\DC_V04.01.00_int\cu3x1Platform_SRC\platform\include
                -IC:\local\Workspace\DC_V04.01.00_int\cu3x1Platform_SRC\platform\common
                -IC:\local\Workspace\DC_V04.01.00_int\cu3x1Platform_SRC\platform\hardware
                -IC:\local\Workspace\DC_V04.01.00_int\cu3x1Platform_SRC\platform\hardware\D3018X
                -IC:\local\Workspace\DC_V04.01.00_int\cu3x1Platform_SRC\embos\inc
                -IC:\local\Workspace\DC_V04.01.00_int\cu3x1Platform_SRC\emWinColour\config
                -IC:\local\Workspace\DC_V04.01.00_int\cu3x1Platform_SRC\emWinColour\gui\ConvertMono
                -IC:\local\Workspace\DC_V04.01.00_int\cu3x1Platform_SRC\emWinColour\gui\Core
                -IC:\local\Workspace\DC_V04.01.00_int\cu3x1Platform_SRC\emWinColour\gui\Font
                -IC:\local\Workspace\DC_V04.01.00_int\cu3x1Platform_SRC\emWinColour\gui\LCDDriver
                -IC:\local\Workspace\DC_V04.01.00_int\cu3x1Platform_SRC\emWinColour\gui\MemDev
                -IC:\local\Workspace\DC_V04.01.00_int\cu3x1Platform_SRC\emWinColour\gui\VNC
                -IC:\local\Workspace\DC_V04.01.00_int\cu3x1Platform_SRC\emWinColour\gui\Widget
                -IC:\local\Workspace\DC_V04.01.00_int\cu3x1Platform_SRC\emWinColour\gui\wm
                -IC:\local\Workspace\DC_V04.01.00_int\cu3x1App_SRC\Control\source
                -IC:\local\Workspace\DC_V04.01.00_int\cu3x1App_SRC\Control\source\include
                -IC:\local\Workspace\DC_V04.01.00_int\cu3x1App_SRC\Control\source\util
                -IC:\local\Workspace\DC_V04.01.00_int\cu3x1App_SRC\Control\source\datapoint
                -IC:\local\Workspace\DC_V04.01.00_int\cu3x1App_SRC\Control\source\factory
                -IC:\local\Workspace\DC_V04.01.00_int\cu3x1Platform_SRC\embos
                -IC:\local\Workspace\DC_V04.01.00_int\cu3x1Platform_SRC\emWinColour\gui\core
                -IC:\local\Workspace\DC_V04.01.00_int\cu3x1App_SRC\Control\source\rtip\webpage
                -IC:\local\Workspace\DC_V04.01.00_int\cu3x1App_SRC\Control\source\rtip\config
                -IC:\local\Workspace\DC_V04.01.00_int\cu3x1App_SRC\Control\source\rtip\xnet
                -IC:\local\Workspace\DC_V04.01.00_int\cu3x1App_SRC\Control\source\stub
                -IC:\local\Workspace\DC_V04.01.00_int\cu3x1App_SRC\Control\source\test
                -IC:\local\Workspace\DC_V04.01.00_int\cu3x1App_SRC\Control\source\GENIpro
                -IC:\local\Workspace\DC_V04.01.00_int\cu3x1App_SRC\Control\source\GENIpro\GENI_sys
                -IC:\local\Workspace\DC_V04.01.00_int\cu3x1App_SRC\Control\source\GENIpro\GENIusb\emUSB\USB\Driver
                -IC:\local\Workspace\DC_V04.01.00_int\cu3x1App_SRC\Control\source\application\intercom
                -IC:\local\Workspace\DC_V04.01.00_int\cu3x1App_SRC\Control\source\application\controller
                -IC:\local\Workspace\DC_V04.01.00_int\cu3x1App_SRC\Control\source\application\driver
                -IC:\local\Workspace\DC_V04.01.00_int\cu3x1App_SRC\Control\source\application\webif
                -IC:\local\Workspace\DC_V04.01.00_int\cu3x1App_SRC\Control\source\application\relay
                -IC:\local\Workspace\DC_V04.01.00_int\cu3x1App_SRC\Control\source\application\GENIApp
                -IC:\local\Workspace\DC_V04.01.00_int\cu3x1App_SRC\Control\source\application\alarm
                -IC:\local\Workspace\DC_V04.01.00_int\cu3x1App_SRC\Control\source\application\config
                -IC:\local\Workspace\DC_V04.01.00_int\cu3x1App_SRC\Control\source\application\AnaInConfigCtrl
                -IC:\local\Workspace\DC_V04.01.00_int\cu3x1App_SRC\Control\source\application\Sms
                -IC:\local\Workspace\DC_V04.01.00_int\cu3x1App_SRC\Control\source\application\display
                -IC:\local\Workspace\DC_V04.01.00_int\cu3x1App_SRC\Control\source\application\display\display_task
                -IC:\local\Workspace\DC_V04.01.00_int\cu3x1App_SRC\Control\source\application\display\gui_utility
                -IC:\local\Workspace\DC_V04.01.00_int\cu3x1App_SRC\Control\source\application\display\mpcunit
                -IC:\local\Workspace\DC_V04.01.00_int\cu3x1App_SRC\Control\source\GeniPro
                -IC:\local\Workspace\DC_V04.01.00_int\cu3x1App_SRC\Control\source\GeniPro\GENI_sys
                -IC:\local\Workspace\DC_V04.01.00_int\cu3x1App_SRC\Control\source\GeniPro\GENIbus
                -IC:\local\Workspace\DC_V04.01.00_int\cu3x1App_SRC\Control\source\GeniPro\GENIcom
                -IC:\local\Workspace\DC_V04.01.00_int\cu3x1App_SRC\Control\source\GeniPro\GENIrs232
                -IC:\local\Workspace\DC_V04.01.00_int\cu3x1App_SRC\Control\source\GeniPro\Virtual
                -IC:\local\Workspace\DC_V04.01.00_int\cu3x1Platform_SRC\Platform\common
                -IC:\local\Workspace\DC_V04.01.00_int\cu3x1Platform_SRC\Platform\hardware
                -IC:\local\Workspace\DC_V04.01.00_int\cu3x1Platform_SRC\Platform\hardware\D3018X
                -IC:\local\Workspace\DC_V04.01.00_int\cu3x1App_SRC\Control\source\application\display\imagesTFT
                -IC:\GHS\V35\mips35\mipsl_sf -r4121 -source=GUIDEV_16.c -o
                objs\gh_2i0a7.o -list=objs\GUIDEV_16.lst
                C:\Users\55602\AppData\Local\Temp\gh_2i0a7.s
Source File:    C:\Users\55602\AppData\Local\Temp\gh_2i0a7.s
Directory:      C:\local\Workspace\DC_V04.01.00_int\cu3x1App_SRC\Control\source
Host OS:        GHS_WIN32
Version:        AS-MIPS 3.5#11 
Release:        MULTI 2000, MIPS v3.5
Revision Date:  Wed Feb 27 12:19:03 2002
Release Date:   Sat Mar 02 02:57:59 2002
                             1	 #Source File:   C:\local\Workspace\DC_V04.01.00_int\cu3x1Platform_SRC\emWinColour\GUI\MemDev\GUIDEV_16.c

                                   Tue Apr 07 08:57:46 2015           Page 2
                                   Tue Apr 07 08:57:45 2015       gh_2i0a7.s
                             2	 #Directory:     
                             3	 #		C:\local\Workspace\DC_V04.01.00_int\cu3x1App_SRC\Control\source
                             4	 #Compile Date:  Tue Apr 07 08:57:45 2015
                             5	 #Host OS:       Win32
                             6	 #Version:       C-MIPS 3.5#11 RELEASE VERSION
                             7	 #Release:       MULTI 2000, MIPS v3.5
                             8	 #Revision Date: Fri Mar 01 11:32:40 2002
                             9	 #Release Date:  Sat Mar 02 02:58:48 2002
                            10		.set	noat
                            11		.set	noreorder
                            12		.set	nomacro
                            13		.text
                            14		.align	4
                            15	_XY2PTR:
        27bdfff0 00000000   16		addiu	$sp, $sp, -16
                            17	 #	    .bf
        afbf000c 00000004   18		sw	$ra, 12($sp)
        afb00000 00000008   19		sw	$16, 0($sp)
        00808025 0000000c   20		move	$16, $4
        afb10004 00000010   21		sw	$17, 4($sp)
        00a08825 00000014   22		move	$17, $5
        3c010000 00000018   23		lui	$1, %hi(GUI_Context+80)
        0c000000 0000001c   24		jal	GUI_ALLOC_h2p
        84240000 00000020   25		lh	$4, %lo(GUI_Context+80)($1)
        84580002 00000024   26		lh	$24, 2($2)
        8c4e000c 00000028   27		lw	$14, 12($2)
        2443002c 0000002c   28		addiu	$3, $2, 44
        00600013 00000030   29		mtlo	$3
        0238c823 00000034   30		subu	$25, $17, $24
        032e1828 00000038   31		macc	$3, $25, $14
                            32	 #	    .ef
        8fb10004 0000003c   33		lw	$17, 4($sp)
        00106840 00000040   34		sll	$13, $16, 1
        8fb00000 00000044   35		lw	$16, 0($sp)
        84580000 00000048   36		lh	$24, 0($2)
        8fbf000c 0000004c   37		lw	$ra, 12($sp)
        27bd0010 00000050   38		addiu	$sp, $sp, 16
        0018c040 00000054   39		sll	$24, $24, 1
        006dc821 00000058   40		addu	$25, $3, $13
        03e00008 0000005c   41		jr	$ra
        03381023 00000060   42		subu	$2, $25, $24
                            43		.type	_XY2PTR,@function
                            44		.size	_XY2PTR,.-_XY2PTR
                            45		.align	4
                            46	 #pData	$3	local
                            47	
                            48	 #x	$16	param
                            49	 #y	$17	param
                            50	
                            51		.data
                            52	.L455:
                            53		.section ".rodata","a"
                            54	.L456:
            0000 00000000   55	aID:	.space	2
        00020001 00000002   56		.byte	1,0,2,0
        00040003 00000006   57		.byte	3,0,4,0

                                   Tue Apr 07 08:57:46 2015           Page 3
                                   Tue Apr 07 08:57:45 2015       gh_2i0a7.s
        00060005 0000000a   58		.byte	5,0,6,0
        00080007 0000000e   59		.byte	7,0,8,0
        000a0009 00000012   60		.byte	9,0,10,0
        000c000b 00000016   61		.byte	11,0,12,0
        000e000d 0000001a   62		.byte	13,0,14,0
                            63		.type	aID,@object
                            64		.size	aID,32
            000f 0000001e   65		.byte	15,0
                            66		.data
                            67		.text
                            68		.align	4
                            69		.align	4
                            70	_DrawBitmap:
        27bdfe90 00000064   71		addiu	$sp, $sp, -368
                            72	 #	    .bf
        afbf016c 00000068   73		sw	$ra, 364($sp)
        afb00000 0000006c   74		sw	$16, 0($sp)
        00808025 00000070   75		move	$16, $4
        afb10004 00000074   76		sw	$17, 4($sp)
        00a08825 00000078   77		move	$17, $5
        afb20008 0000007c   78		sw	$18, 8($sp)
        00c09025 00000080   79		move	$18, $6
        afb3000c 00000084   80		sw	$19, 12($sp)
        00e09825 00000088   81		move	$19, $7
        afb40010 0000008c   82		sw	$20, 16($sp)
        0100a025 00000090   83		move	$20, $8
        afb50014 00000094   84		sw	$21, 20($sp)
        0120a825 00000098   85		move	$21, $9
        afb60018 0000009c   86		sw	$22, 24($sp)
        0140b025 000000a0   87		move	$22, $10
        afb7001c 000000a4   88		sw	$23, 28($sp)
        0160b825 000000a8   89		move	$23, $11
        afbe0020 000000ac   90		sw	$fp, 32($sp)
        8fbe0170 000000b0   91		lw	$fp, 368($sp)
        3c0c0000 000000b4   92		lui	$12, %hi(GUI_Context)
        258c0000 000000b8   93		addiu	$12, $12, %lo(GUI_Context)
        afac0110 000000bc   94		sw	$12, 272($sp)
        0c000000 000000c0   95		jal	GUI_ALLOC_h2p
        85840050 000000c4   96		lh	$4, 80($12)
        afa200f8 000000c8   97		sw	$2, 248($sp)
        84420018 000000cc   98		lh	$2, 24($2)
        34030000 000000d0   99		ori	$3, $0, 0
        50400005 000000d4  100		beql	$2, $0, .L1000463
        8fac00f8 000000d8  101		lw	$12, 248($sp)
        0c000000 000000dc  102		jal	GUI_ALLOC_h2p
        00402025 000000e0  103		move	$4, $2
        00401825 000000e4  104		move	$3, $2
        8fac00f8 000000e8  105		lw	$12, 248($sp)
                           106	.L1000463:
        02178021 000000ec  107		addu	$16, $16, $23
        8d8c000c 000000f0  108		lw	$12, 12($12)
        afa30164 000000f4  109		sw	$3, 356($sp)
        1060000b 000000f8  110		beq	$3, $0, .L465
        afac0070 000000fc  111		sw	$12, 112($sp)
        8fae0110 00000100  112		lw	$14, 272($sp)
        91ce0010 00000104  113		lbu	$14, 16($14)

                                   Tue Apr 07 08:57:46 2015           Page 4
                                   Tue Apr 07 08:57:45 2015       gh_2i0a7.s
        31cf0002 00000108  114		andi	$15, $14, 2
        15e00006 0000010c  115		bne	$15, $0, .L465
        00602025 00000110  116		move	$4, $3
        02002825 00000114  117		move	$5, $16
        02203025 00000118  118		move	$6, $17
        02403825 0000011c  119		move	$7, $18
        0c000000 00000120  120		jal	GUI_USAGE_AddRect
        02604025 00000124  121		move	$8, $19
                           122	.L465:
        02002025 00000128  123		move	$4, $16
        0c000000 0000012c  124		jal	_XY2PTR
        02202825 00000130  125		move	$5, $17
        34190010 00000134  126		ori	$25, $0, 16
        16990175 00000138  127		bne	$20, $25, .L469
        afa20054 0000013c  128		sw	$2, 84($sp)
        34010000 00000140  129		ori	$1, $0, 0
        afa000fc 00000144  130		sw	$0, 252($sp)
        0033c02a 00000148  131		slt	$24, $1, $19
        13000002 0000014c  132		beq	$24, $0, .L2140
        afa00074 00000150  133		sw	$0, 116($sp)
        afb300fc 00000154  134		sw	$19, 252($sp)
                           135	.L2140:
        8fa100fc 00000158  136		lw	$1, 252($sp)
        00016082 0000015c  137		srl	$12, $1, 2
        11800114 00000160  138		beq	$12, $0, .L1480
        afac0078 00000164  139		sw	$12, 120($sp)
        8fac0110 00000168  140		lw	$12, 272($sp)
        afac00c8 0000016c  141		sw	$12, 200($sp)
        8fac0164 00000170  142		lw	$12, 356($sp)
        000c602b 00000174  143		sltu	$12, $0, $12
        afac00cc 00000178  144		sw	$12, 204($sp)
        262c0003 0000017c  145		addiu	$12, $17, 3
        afac0080 00000180  146		sw	$12, 128($sp)
                           147	.L1481:
        8fac00cc 00000184  148		lw	$12, 204($sp)
        8fa10080 00000188  149		lw	$1, 128($sp)
        8fae00c8 0000018c  150		lw	$14, 200($sp)
        afac0098 00000190  151		sw	$12, 152($sp)
        242cfffd 00000194  152		addiu	$12, $1, -3
        afac0130 00000198  153		sw	$12, 304($sp)
        02c09825 0000019c  154		move	$19, $22
        91ce0010 000001a0  155		lbu	$14, 16($14)
        0240a025 000001a4  156		move	$20, $18
        8fb70054 000001a8  157		lw	$23, 84($sp)
        31c30003 000001ac  158		andi	$3, $14, 3
        10600006 000001b0  159		beq	$3, $0, .L1482
        0200f025 000001b4  160		move	$fp, $16
        2463fffe 000001b8  161		addiu	$3, $3, -2
        5060001e 000001bc  162		beql	$3, $0, .L1001483
        96630000 000001c0  163		lhu	$3, 0($19)
        08000000 000001c4  164		j	.L1001490
        8fac0070 000001c8  165		lw	$12, 112($sp)
                           166	.L1482:
        02e02025 000001cc  167		move	$4, $23
        02602825 000001d0  168		move	$5, $19
        0c000000 000001d4  169		jal	memcpy

                                   Tue Apr 07 08:57:46 2015           Page 5
                                   Tue Apr 07 08:57:45 2015       gh_2i0a7.s
        00143040 000001d8  170		sll	$6, $20, 1
        8fac0070 000001dc  171		lw	$12, 112($sp)
        8fa10054 000001e0  172		lw	$1, 84($sp)
        8fb900c8 000001e4  173		lw	$25, 200($sp)
        0200f025 000001e8  174		move	$fp, $16
        002cb821 000001ec  175		addu	$23, $1, $12
        8fac00cc 000001f0  176		lw	$12, 204($sp)
        8fa10080 000001f4  177		lw	$1, 128($sp)
        02d5b021 000001f8  178		addu	$22, $22, $21
        afac0094 000001fc  179		sw	$12, 148($sp)
        242cfffe 00000200  180		addiu	$12, $1, -2
        afac0134 00000204  181		sw	$12, 308($sp)
        93390010 00000208  182		lbu	$25, 16($25)
        02c09825 0000020c  183		move	$19, $22
        0240a025 00000210  184		move	$20, $18
        33230003 00000214  185		andi	$3, $25, 3
        1060002e 00000218  186		beq	$3, $0, .L1491
        afb70054 0000021c  187		sw	$23, 84($sp)
        2463fffe 00000220  188		addiu	$3, $3, -2
        50600046 00000224  189		beql	$3, $0, .L1001492
        96630000 00000228  190		lhu	$3, 0($19)
        08000000 0000022c  191		j	.L1001499
        8fac0070 00000230  192		lw	$12, 112($sp)
                           193	.L1483:
        96630000 00000234  194		lhu	$3, 0($19)
                           195	.L1001483:
        5060000c 00000238  196		beql	$3, $0, .L1001486
        26730002 0000023c  197		addiu	$19, $19, 2
        8fa10098 00000240  198		lw	$1, 152($sp)
        a6e30000 00000244  199		sh	$3, 0($23)
        50200008 00000248  200		beql	$1, $0, .L1001486
        26730002 0000024c  201		addiu	$19, $19, 2
        8fa40164 00000250  202		lw	$4, 356($sp)
        8c8e0008 00000254  203		lw	$14, 8($4)
        8dce0000 00000258  204		lw	$14, 0($14)
        03c02825 0000025c  205		move	$5, $fp
        01c0f809 00000260  206		jalr	$14
        8fa60130 00000264  207		lw	$6, 304($sp)
        26730002 00000268  208		addiu	$19, $19, 2
                           209	.L1001486:
        26f70002 0000026c  210		addiu	$23, $23, 2
        2694ffff 00000270  211		addiu	$20, $20, -1
        1680ffef 00000274  212		bne	$20, $0, .L1483
        27de0001 00000278  213		addiu	$fp, $fp, 1
        8fac0070 0000027c  214		lw	$12, 112($sp)
                           215	.L1001490:
        8fa10054 00000280  216		lw	$1, 84($sp)
        8fb900c8 00000284  217		lw	$25, 200($sp)
        0200f025 00000288  218		move	$fp, $16
        002cb821 0000028c  219		addu	$23, $1, $12
        8fac00cc 00000290  220		lw	$12, 204($sp)
        8fa10080 00000294  221		lw	$1, 128($sp)
        02d5b021 00000298  222		addu	$22, $22, $21
        afac0094 0000029c  223		sw	$12, 148($sp)
        242cfffe 000002a0  224		addiu	$12, $1, -2
        afac0134 000002a4  225		sw	$12, 308($sp)

                                   Tue Apr 07 08:57:46 2015           Page 6
                                   Tue Apr 07 08:57:45 2015       gh_2i0a7.s
        93390010 000002a8  226		lbu	$25, 16($25)
        02c09825 000002ac  227		move	$19, $22
        0240a025 000002b0  228		move	$20, $18
        33230003 000002b4  229		andi	$3, $25, 3
        10600006 000002b8  230		beq	$3, $0, .L1491
        afb70054 000002bc  231		sw	$23, 84($sp)
        2463fffe 000002c0  232		addiu	$3, $3, -2
        5060001e 000002c4  233		beql	$3, $0, .L1001492
        96630000 000002c8  234		lhu	$3, 0($19)
        08000000 000002cc  235		j	.L1001499
        8fac0070 000002d0  236		lw	$12, 112($sp)
                           237	.L1491:
        02e02025 000002d4  238		move	$4, $23
        02602825 000002d8  239		move	$5, $19
        0c000000 000002dc  240		jal	memcpy
        00143040 000002e0  241		sll	$6, $20, 1
        8fac0070 000002e4  242		lw	$12, 112($sp)
        8fa10054 000002e8  243		lw	$1, 84($sp)
        8faf00c8 000002ec  244		lw	$15, 200($sp)
        0200f025 000002f0  245		move	$fp, $16
        002cb821 000002f4  246		addu	$23, $1, $12
        8fac00cc 000002f8  247		lw	$12, 204($sp)
        8fa10080 000002fc  248		lw	$1, 128($sp)
        02d5b021 00000300  249		addu	$22, $22, $21
        afac0090 00000304  250		sw	$12, 144($sp)
        242cffff 00000308  251		addiu	$12, $1, -1
        afac0138 0000030c  252		sw	$12, 312($sp)
        91ef0010 00000310  253		lbu	$15, 16($15)
        02c09825 00000314  254		move	$19, $22
        0240a025 00000318  255		move	$20, $18
        31e30003 0000031c  256		andi	$3, $15, 3
        1060002e 00000320  257		beq	$3, $0, .L1500
        afb70054 00000324  258		sw	$23, 84($sp)
        2463fffe 00000328  259		addiu	$3, $3, -2
        50600045 0000032c  260		beql	$3, $0, .L1001501
        96630000 00000330  261		lhu	$3, 0($19)
        08000000 00000334  262		j	.L1001508
        8fa10054 00000338  263		lw	$1, 84($sp)
                           264	.L1492:
        96630000 0000033c  265		lhu	$3, 0($19)
                           266	.L1001492:
        5060000c 00000340  267		beql	$3, $0, .L1001495
        26730002 00000344  268		addiu	$19, $19, 2
        8fa10094 00000348  269		lw	$1, 148($sp)
        a6e30000 0000034c  270		sh	$3, 0($23)
        50200008 00000350  271		beql	$1, $0, .L1001495
        26730002 00000354  272		addiu	$19, $19, 2
        8fa40164 00000358  273		lw	$4, 356($sp)
        8c990008 0000035c  274		lw	$25, 8($4)
        8f390000 00000360  275		lw	$25, 0($25)
        03c02825 00000364  276		move	$5, $fp
        0320f809 00000368  277		jalr	$25
        8fa60134 0000036c  278		lw	$6, 308($sp)
        26730002 00000370  279		addiu	$19, $19, 2
                           280	.L1001495:
        26f70002 00000374  281		addiu	$23, $23, 2

                                   Tue Apr 07 08:57:46 2015           Page 7
                                   Tue Apr 07 08:57:45 2015       gh_2i0a7.s
        2694ffff 00000378  282		addiu	$20, $20, -1
        1680ffef 0000037c  283		bne	$20, $0, .L1492
        27de0001 00000380  284		addiu	$fp, $fp, 1
        8fac0070 00000384  285		lw	$12, 112($sp)
                           286	.L1001499:
        8fa10054 00000388  287		lw	$1, 84($sp)
        8faf00c8 0000038c  288		lw	$15, 200($sp)
        0200f025 00000390  289		move	$fp, $16
        002cb821 00000394  290		addu	$23, $1, $12
        8fac00cc 00000398  291		lw	$12, 204($sp)
        8fa10080 0000039c  292		lw	$1, 128($sp)
        02d5b021 000003a0  293		addu	$22, $22, $21
        afac0090 000003a4  294		sw	$12, 144($sp)
        242cffff 000003a8  295		addiu	$12, $1, -1
        afac0138 000003ac  296		sw	$12, 312($sp)
        91ef0010 000003b0  297		lbu	$15, 16($15)
        02c09825 000003b4  298		move	$19, $22
        0240a025 000003b8  299		move	$20, $18
        31e30003 000003bc  300		andi	$3, $15, 3
        10600006 000003c0  301		beq	$3, $0, .L1500
        afb70054 000003c4  302		sw	$23, 84($sp)
        2463fffe 000003c8  303		addiu	$3, $3, -2
        5060001d 000003cc  304		beql	$3, $0, .L1001501
        96630000 000003d0  305		lhu	$3, 0($19)
        08000000 000003d4  306		j	.L1001508
        8fa10054 000003d8  307		lw	$1, 84($sp)
                           308	.L1500:
        02e02025 000003dc  309		move	$4, $23
        02602825 000003e0  310		move	$5, $19
        0c000000 000003e4  311		jal	memcpy
        00143040 000003e8  312		sll	$6, $20, 1
        8fa10054 000003ec  313		lw	$1, 84($sp)
        8fac0070 000003f0  314		lw	$12, 112($sp)
        8fad00c8 000003f4  315		lw	$13, 200($sp)
        0200f025 000003f8  316		move	$fp, $16
        002cb821 000003fc  317		addu	$23, $1, $12
        8fac00cc 00000400  318		lw	$12, 204($sp)
        02d5b021 00000404  319		addu	$22, $22, $21
        91ad0010 00000408  320		lbu	$13, 16($13)
        afac008c 0000040c  321		sw	$12, 140($sp)
        8fac0080 00000410  322		lw	$12, 128($sp)
        02c09825 00000414  323		move	$19, $22
        0240a025 00000418  324		move	$20, $18
        afac013c 0000041c  325		sw	$12, 316($sp)
        31a30003 00000420  326		andi	$3, $13, 3
        1060002d 00000424  327		beq	$3, $0, .L1509
        afb70054 00000428  328		sw	$23, 84($sp)
        2463fffe 0000042c  329		addiu	$3, $3, -2
        50600040 00000430  330		beql	$3, $0, .L1001510
        96630000 00000434  331		lhu	$3, 0($19)
        08000000 00000438  332		j	.L1001516
        8fa10054 0000043c  333		lw	$1, 84($sp)
                           334	.L1501:
        96630000 00000440  335		lhu	$3, 0($19)
                           336	.L1001501:
        5060000c 00000444  337		beql	$3, $0, .L1001504

                                   Tue Apr 07 08:57:46 2015           Page 8
                                   Tue Apr 07 08:57:45 2015       gh_2i0a7.s
        26730002 00000448  338		addiu	$19, $19, 2
        8fa10090 0000044c  339		lw	$1, 144($sp)
        a6e30000 00000450  340		sh	$3, 0($23)
        50200008 00000454  341		beql	$1, $0, .L1001504
        26730002 00000458  342		addiu	$19, $19, 2
        8fa40164 0000045c  343		lw	$4, 356($sp)
        8c8f0008 00000460  344		lw	$15, 8($4)
        8def0000 00000464  345		lw	$15, 0($15)
        03c02825 00000468  346		move	$5, $fp
        01e0f809 0000046c  347		jalr	$15
        8fa60138 00000470  348		lw	$6, 312($sp)
        26730002 00000474  349		addiu	$19, $19, 2
                           350	.L1001504:
        26f70002 00000478  351		addiu	$23, $23, 2
        2694ffff 0000047c  352		addiu	$20, $20, -1
        1680ffef 00000480  353		bne	$20, $0, .L1501
        27de0001 00000484  354		addiu	$fp, $fp, 1
        8fa10054 00000488  355		lw	$1, 84($sp)
                           356	.L1001508:
        8fac0070 0000048c  357		lw	$12, 112($sp)
        8fad00c8 00000490  358		lw	$13, 200($sp)
        0200f025 00000494  359		move	$fp, $16
        002cb821 00000498  360		addu	$23, $1, $12
        8fac00cc 0000049c  361		lw	$12, 204($sp)
        02d5b021 000004a0  362		addu	$22, $22, $21
        91ad0010 000004a4  363		lbu	$13, 16($13)
        afac008c 000004a8  364		sw	$12, 140($sp)
        8fac0080 000004ac  365		lw	$12, 128($sp)
        02c09825 000004b0  366		move	$19, $22
        0240a025 000004b4  367		move	$20, $18
        afac013c 000004b8  368		sw	$12, 316($sp)
        31a30003 000004bc  369		andi	$3, $13, 3
        10600006 000004c0  370		beq	$3, $0, .L1509
        afb70054 000004c4  371		sw	$23, 84($sp)
        2463fffe 000004c8  372		addiu	$3, $3, -2
        50600019 000004cc  373		beql	$3, $0, .L1001510
        96630000 000004d0  374		lhu	$3, 0($19)
        08000000 000004d4  375		j	.L1001516
        8fa10054 000004d8  376		lw	$1, 84($sp)
                           377	.L1509:
        02e02025 000004dc  378		move	$4, $23
        02602825 000004e0  379		move	$5, $19
        0c000000 000004e4  380		jal	memcpy
        00143040 000004e8  381		sll	$6, $20, 1
        8fa10054 000004ec  382		lw	$1, 84($sp)
        8fac0070 000004f0  383		lw	$12, 112($sp)
        002c6021 000004f4  384		addu	$12, $1, $12
        8fa10080 000004f8  385		lw	$1, 128($sp)
        afac0054 000004fc  386		sw	$12, 84($sp)
        242c0004 00000500  387		addiu	$12, $1, 4
        8fa10074 00000504  388		lw	$1, 116($sp)
        afac0080 00000508  389		sw	$12, 128($sp)
        242c0004 0000050c  390		addiu	$12, $1, 4
        8fa10078 00000510  391		lw	$1, 120($sp)
        afac0074 00000514  392		sw	$12, 116($sp)
        02d5b021 00000518  393		addu	$22, $22, $21

                                   Tue Apr 07 08:57:46 2015           Page 9
                                   Tue Apr 07 08:57:45 2015       gh_2i0a7.s
        242cffff 0000051c  394		addiu	$12, $1, -1
        1580ff18 00000520  395		bne	$12, $0, .L1481
        afac0078 00000524  396		sw	$12, 120($sp)
        08000000 00000528  397		j	.L1001480
        8fa100fc 0000052c  398		lw	$1, 252($sp)
                           399	.L1510:
        96630000 00000530  400		lhu	$3, 0($19)
                           401	.L1001510:
        5060000c 00000534  402		beql	$3, $0, .L1001513
        26730002 00000538  403		addiu	$19, $19, 2
        8fa1008c 0000053c  404		lw	$1, 140($sp)
        a6e30000 00000540  405		sh	$3, 0($23)
        50200008 00000544  406		beql	$1, $0, .L1001513
        26730002 00000548  407		addiu	$19, $19, 2
        8fa40164 0000054c  408		lw	$4, 356($sp)
        8c8d0008 00000550  409		lw	$13, 8($4)
        8dad0000 00000554  410		lw	$13, 0($13)
        03c02825 00000558  411		move	$5, $fp
        01a0f809 0000055c  412		jalr	$13
        8fa6013c 00000560  413		lw	$6, 316($sp)
        26730002 00000564  414		addiu	$19, $19, 2
                           415	.L1001513:
        26f70002 00000568  416		addiu	$23, $23, 2
        2694ffff 0000056c  417		addiu	$20, $20, -1
        1680ffef 00000570  418		bne	$20, $0, .L1510
        27de0001 00000574  419		addiu	$fp, $fp, 1
        8fa10054 00000578  420		lw	$1, 84($sp)
                           421	.L1001516:
        8fac0070 0000057c  422		lw	$12, 112($sp)
        002c6021 00000580  423		addu	$12, $1, $12
        8fa10080 00000584  424		lw	$1, 128($sp)
        afac0054 00000588  425		sw	$12, 84($sp)
        242c0004 0000058c  426		addiu	$12, $1, 4
        8fa10074 00000590  427		lw	$1, 116($sp)
        afac0080 00000594  428		sw	$12, 128($sp)
        242c0004 00000598  429		addiu	$12, $1, 4
        8fa10078 0000059c  430		lw	$1, 120($sp)
        afac0074 000005a0  431		sw	$12, 116($sp)
        02d5b021 000005a4  432		addu	$22, $22, $21
        242cffff 000005a8  433		addiu	$12, $1, -1
        1580fef5 000005ac  434		bne	$12, $0, .L1481
        afac0078 000005b0  435		sw	$12, 120($sp)
                           436	.L1480:
        8fa100fc 000005b4  437		lw	$1, 252($sp)
                           438	.L1001480:
        302c0003 000005b8  439		andi	$12, $1, 3
        118005c4 000005bc  440		beq	$12, $0, .L461
        afac0078 000005c0  441		sw	$12, 120($sp)
        3c0c0000 000005c4  442		lui	$12, %hi(GUI_Context)
        258c0000 000005c8  443		addiu	$12, $12, %lo(GUI_Context)
        afac0104 000005cc  444		sw	$12, 260($sp)
        8fac0164 000005d0  445		lw	$12, 356($sp)
        8fa10074 000005d4  446		lw	$1, 116($sp)
        000c602b 000005d8  447		sltu	$12, $0, $12
        afac0108 000005dc  448		sw	$12, 264($sp)
        00316021 000005e0  449		addu	$12, $1, $17

                                   Tue Apr 07 08:57:46 2015           Page 10
                                   Tue Apr 07 08:57:45 2015       gh_2i0a7.s
        afac00e0 000005e4  450		sw	$12, 224($sp)
                           451	.L1519:
        8fac00e0 000005e8  452		lw	$12, 224($sp)
        8fae0104 000005ec  453		lw	$14, 260($sp)
        02c09825 000005f0  454		move	$19, $22
        afac0140 000005f4  455		sw	$12, 320($sp)
        0240a025 000005f8  456		move	$20, $18
        91ce0010 000005fc  457		lbu	$14, 16($14)
        8fb70054 00000600  458		lw	$23, 84($sp)
        8fb10108 00000604  459		lw	$17, 264($sp)
        31c30003 00000608  460		andi	$3, $14, 3
        10600006 0000060c  461		beq	$3, $0, .L1520
        0200f025 00000610  462		move	$fp, $16
        2463fffe 00000614  463		addiu	$3, $3, -2
        50600016 00000618  464		beql	$3, $0, .L1001521
        96630000 0000061c  465		lhu	$3, 0($19)
        08000000 00000620  466		j	.L1001527
        8fa10054 00000624  467		lw	$1, 84($sp)
                           468	.L1520:
        02e02025 00000628  469		move	$4, $23
        02602825 0000062c  470		move	$5, $19
        0c000000 00000630  471		jal	memcpy
        00143040 00000634  472		sll	$6, $20, 1
        8fa10054 00000638  473		lw	$1, 84($sp)
        8fac0070 0000063c  474		lw	$12, 112($sp)
        002c6021 00000640  475		addu	$12, $1, $12
        8fa100e0 00000644  476		lw	$1, 224($sp)
        afac0054 00000648  477		sw	$12, 84($sp)
        242c0001 0000064c  478		addiu	$12, $1, 1
        8fa10078 00000650  479		lw	$1, 120($sp)
        afac00e0 00000654  480		sw	$12, 224($sp)
        02d5b021 00000658  481		addu	$22, $22, $21
        242cffff 0000065c  482		addiu	$12, $1, -1
        1580ffe1 00000660  483		bne	$12, $0, .L1519
        afac0078 00000664  484		sw	$12, 120($sp)
        08000000 00000668  485		j	.L1001529
        8fb60018 0000066c  486		lw	$22, 24($sp)
                           487	.L1521:
        96630000 00000670  488		lhu	$3, 0($19)
                           489	.L1001521:
        5060000a 00000674  490		beql	$3, $0, .L1001524
        26730002 00000678  491		addiu	$19, $19, 2
        12200007 0000067c  492		beq	$17, $0, .L1524
        a6e30000 00000680  493		sh	$3, 0($23)
        8fa40164 00000684  494		lw	$4, 356($sp)
        8c8e0008 00000688  495		lw	$14, 8($4)
        8dce0000 0000068c  496		lw	$14, 0($14)
        03c02825 00000690  497		move	$5, $fp
        01c0f809 00000694  498		jalr	$14
        8fa60140 00000698  499		lw	$6, 320($sp)
                           500	.L1524:
        26730002 0000069c  501		addiu	$19, $19, 2
                           502	.L1001524:
        26f70002 000006a0  503		addiu	$23, $23, 2
        2694ffff 000006a4  504		addiu	$20, $20, -1
        1680fff1 000006a8  505		bne	$20, $0, .L1521

                                   Tue Apr 07 08:57:46 2015           Page 11
                                   Tue Apr 07 08:57:45 2015       gh_2i0a7.s
        27de0001 000006ac  506		addiu	$fp, $fp, 1
        8fa10054 000006b0  507		lw	$1, 84($sp)
                           508	.L1001527:
        8fac0070 000006b4  509		lw	$12, 112($sp)
        002c6021 000006b8  510		addu	$12, $1, $12
        8fa100e0 000006bc  511		lw	$1, 224($sp)
        afac0054 000006c0  512		sw	$12, 84($sp)
        242c0001 000006c4  513		addiu	$12, $1, 1
        8fa10078 000006c8  514		lw	$1, 120($sp)
        afac00e0 000006cc  515		sw	$12, 224($sp)
        02d5b021 000006d0  516		addu	$22, $22, $21
        242cffff 000006d4  517		addiu	$12, $1, -1
        1580ffc3 000006d8  518		bne	$12, $0, .L1519
        afac0078 000006dc  519		sw	$12, 120($sp)
        8fb60018 000006e0  520		lw	$22, 24($sp)
                           521	.L1001529:
        8fb50014 000006e4  522		lw	$21, 20($sp)
        8fb40010 000006e8  523		lw	$20, 16($sp)
        8fb3000c 000006ec  524		lw	$19, 12($sp)
        8fb20008 000006f0  525		lw	$18, 8($sp)
        8fb10004 000006f4  526		lw	$17, 4($sp)
        8fb00000 000006f8  527		lw	$16, 0($sp)
        8fbf016c 000006fc  528		lw	$ra, 364($sp)
        8fb7001c 00000700  529		lw	$23, 28($sp)
        8fbe0020 00000704  530		lw	$fp, 32($sp)
        03e00008 00000708  531		jr	$ra
        27bd0170 0000070c  532		addiu	$sp, $sp, 368
                           533	.L469:
        34180008 00000710  534		ori	$24, $0, 8
        16980199 00000714  535		bne	$20, $24, .L486
        34010000 00000718  536		ori	$1, $0, 0
        afa00100 0000071c  537		sw	$0, 256($sp)
        0033782a 00000720  538		slt	$15, $1, $19
        11e00002 00000724  539		beq	$15, $0, .L2141
        afa00074 00000728  540		sw	$0, 116($sp)
        afb30100 0000072c  541		sw	$19, 256($sp)
                           542	.L2141:
        8fa10100 00000730  543		lw	$1, 256($sp)
        00016042 00000734  544		srl	$12, $1, 1
        118000ff 00000738  545		beq	$12, $0, .L1530
        afac007c 0000073c  546		sw	$12, 124($sp)
        8fac0110 00000740  547		lw	$12, 272($sp)
        afac00d4 00000744  548		sw	$12, 212($sp)
        8fac0164 00000748  549		lw	$12, 356($sp)
        000c602b 0000074c  550		sltu	$12, $0, $12
        afac00d8 00000750  551		sw	$12, 216($sp)
        262c0001 00000754  552		addiu	$12, $17, 1
        afac0084 00000758  553		sw	$12, 132($sp)
        2fcc0001 0000075c  554		sltiu	$12, $fp, 1
        afac00f4 00000760  555		sw	$12, 244($sp)
                           556	.L1531:
        8fa100f4 00000764  557		lw	$1, 244($sp)
        14200039 00000768  558		bne	$1, $0, .L1001540
        8fac00d8 0000076c  559		lw	$12, 216($sp)
        8fa10084 00000770  560		lw	$1, 132($sp)
        8fb900d4 00000774  561		lw	$25, 212($sp)

                                   Tue Apr 07 08:57:46 2015           Page 12
                                   Tue Apr 07 08:57:45 2015       gh_2i0a7.s
        afac00a8 00000778  562		sw	$12, 168($sp)
        242cffff 0000077c  563		addiu	$12, $1, -1
        afac0118 00000780  564		sw	$12, 280($sp)
        02c09825 00000784  565		move	$19, $22
        0240a025 00000788  566		move	$20, $18
        93390010 0000078c  567		lbu	$25, 16($25)
        afbe0064 00000790  568		sw	$fp, 100($sp)
        8fb70054 00000794  569		lw	$23, 84($sp)
        33230003 00000798  570		andi	$3, $25, 3
        10600006 0000079c  571		beq	$3, $0, .L1533
        afb00158 000007a0  572		sw	$16, 344($sp)
        2463fffe 000007a4  573		addiu	$3, $3, -2
        50600010 000007a8  574		beql	$3, $0, .L1001535
        92630000 000007ac  575		lbu	$3, 0($19)
        08000000 000007b0  576		j	.L1001549
        8fa10054 000007b4  577		lw	$1, 84($sp)
                           578	.L1533:
        26730001 000007b8  579		addiu	$19, $19, 1
        926effff 000007bc  580		lbu	$14, -1($19)
        8fa10064 000007c0  581		lw	$1, 100($sp)
        26f70002 000007c4  582		addiu	$23, $23, 2
        000e7040 000007c8  583		sll	$14, $14, 1
        002e6821 000007cc  584		addu	$13, $1, $14
        95b90000 000007d0  585		lhu	$25, 0($13)
        2694ffff 000007d4  586		addiu	$20, $20, -1
        1680fff7 000007d8  587		bne	$20, $0, .L1533
        a6f9fffe 000007dc  588		sh	$25, -2($23)
        08000000 000007e0  589		j	.L1001549
        8fa10054 000007e4  590		lw	$1, 84($sp)
                           591	.L1535:
        92630000 000007e8  592		lbu	$3, 0($19)
                           593	.L1001535:
        50600010 000007ec  594		beql	$3, $0, .L1001538
        8fa10158 000007f0  595		lw	$1, 344($sp)
        8fa10064 000007f4  596		lw	$1, 100($sp)
        00037040 000007f8  597		sll	$14, $3, 1
        002e6821 000007fc  598		addu	$13, $1, $14
        95b90000 00000800  599		lhu	$25, 0($13)
        8fa100a8 00000804  600		lw	$1, 168($sp)
        a6f90000 00000808  601		sh	$25, 0($23)
        50200008 0000080c  602		beql	$1, $0, .L1001538
        8fa10158 00000810  603		lw	$1, 344($sp)
        8fa40164 00000814  604		lw	$4, 356($sp)
        8c8f0008 00000818  605		lw	$15, 8($4)
        8def0000 0000081c  606		lw	$15, 0($15)
        8fa50158 00000820  607		lw	$5, 344($sp)
        01e0f809 00000824  608		jalr	$15
        8fa60118 00000828  609		lw	$6, 280($sp)
        8fa10158 0000082c  610		lw	$1, 344($sp)
                           611	.L1001538:
        26730001 00000830  612		addiu	$19, $19, 1
        26f70002 00000834  613		addiu	$23, $23, 2
        242c0001 00000838  614		addiu	$12, $1, 1
        2694ffff 0000083c  615		addiu	$20, $20, -1
        1680ffe9 00000840  616		bne	$20, $0, .L1535
        afac0158 00000844  617		sw	$12, 344($sp)

                                   Tue Apr 07 08:57:46 2015           Page 13
                                   Tue Apr 07 08:57:45 2015       gh_2i0a7.s
        08000000 00000848  618		j	.L1001549
        8fa10054 0000084c  619		lw	$1, 84($sp)
                           620	.L1001540:
        8fa10084 00000850  621		lw	$1, 132($sp)
        8fad00d4 00000854  622		lw	$13, 212($sp)
        afac00a4 00000858  623		sw	$12, 164($sp)
        242cffff 0000085c  624		addiu	$12, $1, -1
        afac011c 00000860  625		sw	$12, 284($sp)
        02c09825 00000864  626		move	$19, $22
        91ad0010 00000868  627		lbu	$13, 16($13)
        0240a025 0000086c  628		move	$20, $18
        8fb70054 00000870  629		lw	$23, 84($sp)
        31a30003 00000874  630		andi	$3, $13, 3
        10600006 00000878  631		beq	$3, $0, .L1541
        afb00154 0000087c  632		sw	$16, 340($sp)
        2463fffe 00000880  633		addiu	$3, $3, -2
        50600012 00000884  634		beql	$3, $0, .L1001542
        92630000 00000888  635		lbu	$3, 0($19)
        08000000 0000088c  636		j	.L1001549
        8fa10054 00000890  637		lw	$1, 84($sp)
                           638	.L1541:
        02e02025 00000894  639		move	$4, $23
        02602825 00000898  640		move	$5, $19
        0c000000 0000089c  641		jal	memcpy
        02803025 000008a0  642		move	$6, $20
        8fa10054 000008a4  643		lw	$1, 84($sp)
        8fac0070 000008a8  644		lw	$12, 112($sp)
        002c6021 000008ac  645		addu	$12, $1, $12
        8fa100f4 000008b0  646		lw	$1, 244($sp)
        afac0054 000008b4  647		sw	$12, 84($sp)
        02d5b021 000008b8  648		addu	$22, $22, $21
        54200056 000008bc  649		bnel	$1, $0, .L1001558
        8fac00d8 000008c0  650		lw	$12, 216($sp)
        08000000 000008c4  651		j	.L1001550
        8fac00d8 000008c8  652		lw	$12, 216($sp)
                           653	.L1542:
        92630000 000008cc  654		lbu	$3, 0($19)
                           655	.L1001542:
        5060000c 000008d0  656		beql	$3, $0, .L1001545
        8fa10154 000008d4  657		lw	$1, 340($sp)
        8fa100a4 000008d8  658		lw	$1, 164($sp)
        a6e30000 000008dc  659		sh	$3, 0($23)
        50200008 000008e0  660		beql	$1, $0, .L1001545
        8fa10154 000008e4  661		lw	$1, 340($sp)
        8fa40164 000008e8  662		lw	$4, 356($sp)
        8c8d0008 000008ec  663		lw	$13, 8($4)
        8dad0000 000008f0  664		lw	$13, 0($13)
        8fa50154 000008f4  665		lw	$5, 340($sp)
        01a0f809 000008f8  666		jalr	$13
        8fa6011c 000008fc  667		lw	$6, 284($sp)
        8fa10154 00000900  668		lw	$1, 340($sp)
                           669	.L1001545:
        26730001 00000904  670		addiu	$19, $19, 1
        26f70002 00000908  671		addiu	$23, $23, 2
        242c0001 0000090c  672		addiu	$12, $1, 1
        2694ffff 00000910  673		addiu	$20, $20, -1

                                   Tue Apr 07 08:57:46 2015           Page 14
                                   Tue Apr 07 08:57:45 2015       gh_2i0a7.s
        1680ffed 00000914  674		bne	$20, $0, .L1542
        afac0154 00000918  675		sw	$12, 340($sp)
        8fa10054 0000091c  676		lw	$1, 84($sp)
                           677	.L1001549:
        8fac0070 00000920  678		lw	$12, 112($sp)
        002c6021 00000924  679		addu	$12, $1, $12
        8fa100f4 00000928  680		lw	$1, 244($sp)
        afac0054 0000092c  681		sw	$12, 84($sp)
        02d5b021 00000930  682		addu	$22, $22, $21
        14200038 00000934  683		bne	$1, $0, .L1001558
        8fac00d8 00000938  684		lw	$12, 216($sp)
                           685	.L1001550:
        8faf00d4 0000093c  686		lw	$15, 212($sp)
        02c09825 00000940  687		move	$19, $22
        afac00a0 00000944  688		sw	$12, 160($sp)
        8fac0084 00000948  689		lw	$12, 132($sp)
        0240a025 0000094c  690		move	$20, $18
        91ef0010 00000950  691		lbu	$15, 16($15)
        afac0120 00000954  692		sw	$12, 288($sp)
        afbe0064 00000958  693		sw	$fp, 100($sp)
        8fb70054 0000095c  694		lw	$23, 84($sp)
        31e30003 00000960  695		andi	$3, $15, 3
        10600006 00000964  696		beq	$3, $0, .L1551
        afb00158 00000968  697		sw	$16, 344($sp)
        2463fffe 0000096c  698		addiu	$3, $3, -2
        50600010 00000970  699		beql	$3, $0, .L1001553
        92630000 00000974  700		lbu	$3, 0($19)
        08000000 00000978  701		j	.L1001566
        8fa10054 0000097c  702		lw	$1, 84($sp)
                           703	.L1551:
        26730001 00000980  704		addiu	$19, $19, 1
        9279ffff 00000984  705		lbu	$25, -1($19)
        8fa10064 00000988  706		lw	$1, 100($sp)
        26f70002 0000098c  707		addiu	$23, $23, 2
        0019c840 00000990  708		sll	$25, $25, 1
        0039c021 00000994  709		addu	$24, $1, $25
        970f0000 00000998  710		lhu	$15, 0($24)
        2694ffff 0000099c  711		addiu	$20, $20, -1
        1680fff7 000009a0  712		bne	$20, $0, .L1551
        a6effffe 000009a4  713		sh	$15, -2($23)
        08000000 000009a8  714		j	.L1001566
        8fa10054 000009ac  715		lw	$1, 84($sp)
                           716	.L1553:
        92630000 000009b0  717		lbu	$3, 0($19)
                           718	.L1001553:
        50600010 000009b4  719		beql	$3, $0, .L1001556
        8fa10158 000009b8  720		lw	$1, 344($sp)
        8fa10064 000009bc  721		lw	$1, 100($sp)
        0003c840 000009c0  722		sll	$25, $3, 1
        0039c021 000009c4  723		addu	$24, $1, $25
        970f0000 000009c8  724		lhu	$15, 0($24)
        8fa100a0 000009cc  725		lw	$1, 160($sp)
        a6ef0000 000009d0  726		sh	$15, 0($23)
        50200008 000009d4  727		beql	$1, $0, .L1001556
        8fa10158 000009d8  728		lw	$1, 344($sp)
        8fa40164 000009dc  729		lw	$4, 356($sp)

                                   Tue Apr 07 08:57:46 2015           Page 15
                                   Tue Apr 07 08:57:45 2015       gh_2i0a7.s
        8c8d0008 000009e0  730		lw	$13, 8($4)
        8dad0000 000009e4  731		lw	$13, 0($13)
        8fa50158 000009e8  732		lw	$5, 344($sp)
        01a0f809 000009ec  733		jalr	$13
        8fa60120 000009f0  734		lw	$6, 288($sp)
        8fa10158 000009f4  735		lw	$1, 344($sp)
                           736	.L1001556:
        26730001 000009f8  737		addiu	$19, $19, 1
        26f70002 000009fc  738		addiu	$23, $23, 2
        242c0001 00000a00  739		addiu	$12, $1, 1
        2694ffff 00000a04  740		addiu	$20, $20, -1
        1680ffe9 00000a08  741		bne	$20, $0, .L1553
        afac0158 00000a0c  742		sw	$12, 344($sp)
        08000000 00000a10  743		j	.L1001566
        8fa10054 00000a14  744		lw	$1, 84($sp)
                           745	.L1001558:
        8fb800d4 00000a18  746		lw	$24, 212($sp)
        02c09825 00000a1c  747		move	$19, $22
        afac009c 00000a20  748		sw	$12, 156($sp)
        8fac0084 00000a24  749		lw	$12, 132($sp)
        93180010 00000a28  750		lbu	$24, 16($24)
        0240a025 00000a2c  751		move	$20, $18
        afac0124 00000a30  752		sw	$12, 292($sp)
        8fb70054 00000a34  753		lw	$23, 84($sp)
        33030003 00000a38  754		andi	$3, $24, 3
        10600006 00000a3c  755		beq	$3, $0, .L1559
        afb00154 00000a40  756		sw	$16, 340($sp)
        2463fffe 00000a44  757		addiu	$3, $3, -2
        50600019 00000a48  758		beql	$3, $0, .L1001560
        92630000 00000a4c  759		lbu	$3, 0($19)
        08000000 00000a50  760		j	.L1001566
        8fa10054 00000a54  761		lw	$1, 84($sp)
                           762	.L1559:
        02e02025 00000a58  763		move	$4, $23
        02602825 00000a5c  764		move	$5, $19
        0c000000 00000a60  765		jal	memcpy
        02803025 00000a64  766		move	$6, $20
        8fa10054 00000a68  767		lw	$1, 84($sp)
        8fac0070 00000a6c  768		lw	$12, 112($sp)
        002c6021 00000a70  769		addu	$12, $1, $12
        8fa10084 00000a74  770		lw	$1, 132($sp)
        afac0054 00000a78  771		sw	$12, 84($sp)
        242c0002 00000a7c  772		addiu	$12, $1, 2
        8fa10074 00000a80  773		lw	$1, 116($sp)
        afac0084 00000a84  774		sw	$12, 132($sp)
        242c0002 00000a88  775		addiu	$12, $1, 2
        8fa1007c 00000a8c  776		lw	$1, 124($sp)
        afac0074 00000a90  777		sw	$12, 116($sp)
        02d5b021 00000a94  778		addu	$22, $22, $21
        242cffff 00000a98  779		addiu	$12, $1, -1
        1580ff31 00000a9c  780		bne	$12, $0, .L1531
        afac007c 00000aa0  781		sw	$12, 124($sp)
        08000000 00000aa4  782		j	.L1001530
        8fa10100 00000aa8  783		lw	$1, 256($sp)
                           784	.L1560:
        92630000 00000aac  785		lbu	$3, 0($19)

                                   Tue Apr 07 08:57:46 2015           Page 16
                                   Tue Apr 07 08:57:45 2015       gh_2i0a7.s
                           786	.L1001560:
        5060000c 00000ab0  787		beql	$3, $0, .L1001563
        8fa10154 00000ab4  788		lw	$1, 340($sp)
        8fa1009c 00000ab8  789		lw	$1, 156($sp)
        a6e30000 00000abc  790		sh	$3, 0($23)
        50200008 00000ac0  791		beql	$1, $0, .L1001563
        8fa10154 00000ac4  792		lw	$1, 340($sp)
        8fa40164 00000ac8  793		lw	$4, 356($sp)
        8c980008 00000acc  794		lw	$24, 8($4)
        8f180000 00000ad0  795		lw	$24, 0($24)
        8fa50154 00000ad4  796		lw	$5, 340($sp)
        0300f809 00000ad8  797		jalr	$24
        8fa60124 00000adc  798		lw	$6, 292($sp)
        8fa10154 00000ae0  799		lw	$1, 340($sp)
                           800	.L1001563:
        26730001 00000ae4  801		addiu	$19, $19, 1
        26f70002 00000ae8  802		addiu	$23, $23, 2
        242c0001 00000aec  803		addiu	$12, $1, 1
        2694ffff 00000af0  804		addiu	$20, $20, -1
        1680ffed 00000af4  805		bne	$20, $0, .L1560
        afac0154 00000af8  806		sw	$12, 340($sp)
        8fa10054 00000afc  807		lw	$1, 84($sp)
                           808	.L1001566:
        8fac0070 00000b00  809		lw	$12, 112($sp)
        002c6021 00000b04  810		addu	$12, $1, $12
        8fa10084 00000b08  811		lw	$1, 132($sp)
        afac0054 00000b0c  812		sw	$12, 84($sp)
        242c0002 00000b10  813		addiu	$12, $1, 2
        8fa10074 00000b14  814		lw	$1, 116($sp)
        afac0084 00000b18  815		sw	$12, 132($sp)
        242c0002 00000b1c  816		addiu	$12, $1, 2
        8fa1007c 00000b20  817		lw	$1, 124($sp)
        afac0074 00000b24  818		sw	$12, 116($sp)
        02d5b021 00000b28  819		addu	$22, $22, $21
        242cffff 00000b2c  820		addiu	$12, $1, -1
        1580ff0c 00000b30  821		bne	$12, $0, .L1531
        afac007c 00000b34  822		sw	$12, 124($sp)
                           823	.L1530:
        8fa10100 00000b38  824		lw	$1, 256($sp)
                           825	.L1001530:
        302c0001 00000b3c  826		andi	$12, $1, 1
        11800463 00000b40  827		beq	$12, $0, .L461
        afac007c 00000b44  828		sw	$12, 124($sp)
        3c0c0000 00000b48  829		lui	$12, %hi(GUI_Context)
        258c0000 00000b4c  830		addiu	$12, $12, %lo(GUI_Context)
        afac00ec 00000b50  831		sw	$12, 236($sp)
        8fac0164 00000b54  832		lw	$12, 356($sp)
        8fa10074 00000b58  833		lw	$1, 116($sp)
        000c602b 00000b5c  834		sltu	$12, $0, $12
        afac00f0 00000b60  835		sw	$12, 240($sp)
        2fcc0001 00000b64  836		sltiu	$12, $fp, 1
        afac010c 00000b68  837		sw	$12, 268($sp)
        00316021 00000b6c  838		addu	$12, $1, $17
        afac00d0 00000b70  839		sw	$12, 208($sp)
                           840	.L1569:
        8fa1010c 00000b74  841		lw	$1, 268($sp)

                                   Tue Apr 07 08:57:46 2015           Page 17
                                   Tue Apr 07 08:57:45 2015       gh_2i0a7.s
        14200035 00000b78  842		bne	$1, $0, .L1001578
        8fac00d0 00000b7c  843		lw	$12, 208($sp)
        02c09825 00000b80  844		move	$19, $22
        8fb800ec 00000b84  845		lw	$24, 236($sp)
        afac0128 00000b88  846		sw	$12, 296($sp)
        0240a025 00000b8c  847		move	$20, $18
        afbe0064 00000b90  848		sw	$fp, 100($sp)
        93180010 00000b94  849		lbu	$24, 16($24)
        8fb70054 00000b98  850		lw	$23, 84($sp)
        8fb100f0 00000b9c  851		lw	$17, 240($sp)
        33030003 00000ba0  852		andi	$3, $24, 3
        10600006 00000ba4  853		beq	$3, $0, .L1571
        afb00158 00000ba8  854		sw	$16, 344($sp)
        2463fffe 00000bac  855		addiu	$3, $3, -2
        50600010 00000bb0  856		beql	$3, $0, .L1001573
        92630000 00000bb4  857		lbu	$3, 0($19)
        08000000 00000bb8  858		j	.L1001586
        8fa10054 00000bbc  859		lw	$1, 84($sp)
                           860	.L1571:
        26730001 00000bc0  861		addiu	$19, $19, 1
        926dffff 00000bc4  862		lbu	$13, -1($19)
        8fa10064 00000bc8  863		lw	$1, 100($sp)
        26f70002 00000bcc  864		addiu	$23, $23, 2
        000d6840 00000bd0  865		sll	$13, $13, 1
        002dc821 00000bd4  866		addu	$25, $1, $13
        97380000 00000bd8  867		lhu	$24, 0($25)
        2694ffff 00000bdc  868		addiu	$20, $20, -1
        1680fff7 00000be0  869		bne	$20, $0, .L1571
        a6f8fffe 00000be4  870		sh	$24, -2($23)
        08000000 00000be8  871		j	.L1001586
        8fa10054 00000bec  872		lw	$1, 84($sp)
                           873	.L1573:
        92630000 00000bf0  874		lbu	$3, 0($19)
                           875	.L1001573:
        5060000e 00000bf4  876		beql	$3, $0, .L1001576
        8fa10158 00000bf8  877		lw	$1, 344($sp)
        8fa10064 00000bfc  878		lw	$1, 100($sp)
        00036840 00000c00  879		sll	$13, $3, 1
        002dc821 00000c04  880		addu	$25, $1, $13
        97380000 00000c08  881		lhu	$24, 0($25)
        12200007 00000c0c  882		beq	$17, $0, .L1576
        a6f80000 00000c10  883		sh	$24, 0($23)
        8fa40164 00000c14  884		lw	$4, 356($sp)
        8c8e0008 00000c18  885		lw	$14, 8($4)
        8dce0000 00000c1c  886		lw	$14, 0($14)
        8fa50158 00000c20  887		lw	$5, 344($sp)
        01c0f809 00000c24  888		jalr	$14
        8fa60128 00000c28  889		lw	$6, 296($sp)
                           890	.L1576:
        8fa10158 00000c2c  891		lw	$1, 344($sp)
                           892	.L1001576:
        26730001 00000c30  893		addiu	$19, $19, 1
        26f70002 00000c34  894		addiu	$23, $23, 2
        242c0001 00000c38  895		addiu	$12, $1, 1
        2694ffff 00000c3c  896		addiu	$20, $20, -1
        1680ffeb 00000c40  897		bne	$20, $0, .L1573

                                   Tue Apr 07 08:57:46 2015           Page 18
                                   Tue Apr 07 08:57:45 2015       gh_2i0a7.s
        afac0158 00000c44  898		sw	$12, 344($sp)
        08000000 00000c48  899		j	.L1001586
        8fa10054 00000c4c  900		lw	$1, 84($sp)
                           901	.L1001578:
        8fb900ec 00000c50  902		lw	$25, 236($sp)
        02c09825 00000c54  903		move	$19, $22
        afac012c 00000c58  904		sw	$12, 300($sp)
        0240a025 00000c5c  905		move	$20, $18
        93390010 00000c60  906		lbu	$25, 16($25)
        8fb70054 00000c64  907		lw	$23, 84($sp)
        8fb100f0 00000c68  908		lw	$17, 240($sp)
        33230003 00000c6c  909		andi	$3, $25, 3
        10600006 00000c70  910		beq	$3, $0, .L1579
        afb00154 00000c74  911		sw	$16, 340($sp)
        2463fffe 00000c78  912		addiu	$3, $3, -2
        50600016 00000c7c  913		beql	$3, $0, .L1001580
        92630000 00000c80  914		lbu	$3, 0($19)
        08000000 00000c84  915		j	.L1001586
        8fa10054 00000c88  916		lw	$1, 84($sp)
                           917	.L1579:
        02e02025 00000c8c  918		move	$4, $23
        02602825 00000c90  919		move	$5, $19
        0c000000 00000c94  920		jal	memcpy
        02803025 00000c98  921		move	$6, $20
        8fa10054 00000c9c  922		lw	$1, 84($sp)
        8fac0070 00000ca0  923		lw	$12, 112($sp)
        002c6021 00000ca4  924		addu	$12, $1, $12
        8fa100d0 00000ca8  925		lw	$1, 208($sp)
        afac0054 00000cac  926		sw	$12, 84($sp)
        242c0001 00000cb0  927		addiu	$12, $1, 1
        8fa1007c 00000cb4  928		lw	$1, 124($sp)
        afac00d0 00000cb8  929		sw	$12, 208($sp)
        02d5b021 00000cbc  930		addu	$22, $22, $21
        242cffff 00000cc0  931		addiu	$12, $1, -1
        1580ffab 00000cc4  932		bne	$12, $0, .L1569
        afac007c 00000cc8  933		sw	$12, 124($sp)
        08000000 00000ccc  934		j	.L1001588
        8fb60018 00000cd0  935		lw	$22, 24($sp)
                           936	.L1580:
        92630000 00000cd4  937		lbu	$3, 0($19)
                           938	.L1001580:
        5060000a 00000cd8  939		beql	$3, $0, .L1001583
        8fa10154 00000cdc  940		lw	$1, 340($sp)
        12200007 00000ce0  941		beq	$17, $0, .L1583
        a6e30000 00000ce4  942		sh	$3, 0($23)
        8fa40164 00000ce8  943		lw	$4, 356($sp)
        8c990008 00000cec  944		lw	$25, 8($4)
        8f390000 00000cf0  945		lw	$25, 0($25)
        8fa50154 00000cf4  946		lw	$5, 340($sp)
        0320f809 00000cf8  947		jalr	$25
        8fa6012c 00000cfc  948		lw	$6, 300($sp)
                           949	.L1583:
        8fa10154 00000d00  950		lw	$1, 340($sp)
                           951	.L1001583:
        26730001 00000d04  952		addiu	$19, $19, 1
        26f70002 00000d08  953		addiu	$23, $23, 2

                                   Tue Apr 07 08:57:46 2015           Page 19
                                   Tue Apr 07 08:57:45 2015       gh_2i0a7.s
        242c0001 00000d0c  954		addiu	$12, $1, 1
        2694ffff 00000d10  955		addiu	$20, $20, -1
        1680ffef 00000d14  956		bne	$20, $0, .L1580
        afac0154 00000d18  957		sw	$12, 340($sp)
        8fa10054 00000d1c  958		lw	$1, 84($sp)
                           959	.L1001586:
        8fac0070 00000d20  960		lw	$12, 112($sp)
        002c6021 00000d24  961		addu	$12, $1, $12
        8fa100d0 00000d28  962		lw	$1, 208($sp)
        afac0054 00000d2c  963		sw	$12, 84($sp)
        242c0001 00000d30  964		addiu	$12, $1, 1
        8fa1007c 00000d34  965		lw	$1, 124($sp)
        afac00d0 00000d38  966		sw	$12, 208($sp)
        02d5b021 00000d3c  967		addu	$22, $22, $21
        242cffff 00000d40  968		addiu	$12, $1, -1
        1580ff8b 00000d44  969		bne	$12, $0, .L1569
        afac007c 00000d48  970		sw	$12, 124($sp)
        8fb60018 00000d4c  971		lw	$22, 24($sp)
                           972	.L1001588:
        8fb50014 00000d50  973		lw	$21, 20($sp)
        8fb40010 00000d54  974		lw	$20, 16($sp)
        8fb3000c 00000d58  975		lw	$19, 12($sp)
        8fb20008 00000d5c  976		lw	$18, 8($sp)
        8fb10004 00000d60  977		lw	$17, 4($sp)
        8fb00000 00000d64  978		lw	$16, 0($sp)
        8fbf016c 00000d68  979		lw	$ra, 364($sp)
        8fb7001c 00000d6c  980		lw	$23, 28($sp)
        8fbe0020 00000d70  981		lw	$fp, 32($sp)
        03e00008 00000d74  982		jr	$ra
        27bd0170 00000d78  983		addiu	$sp, $sp, 368
                           984	.L486:
        57c00004 00000d7c  985		bnel	$fp, $0, .L1000517
        8fac0164 00000d80  986		lw	$12, 356($sp)
        3c1e0000 00000d84  987		lui	$fp, %hi(.L456)
        27de0000 00000d88  988		addiu	$fp, $fp, %lo(.L456)
        8fac0164 00000d8c  989		lw	$12, 356($sp)
                           990	.L1000517:
        afb10144 00000d90  991		sw	$17, 324($sp)
        0013682a 00000d94  992		slt	$13, $0, $19
        000c602b 00000d98  993		sltu	$12, $0, $12
        afac0088 00000d9c  994		sw	$12, 136($sp)
        3c0c0000 00000da0  995		lui	$12, %hi(LCD_aMirror)
        258c0000 00000da4  996		addiu	$12, $12, %lo(LCD_aMirror)
        afac00dc 00000da8  997		sw	$12, 220($sp)
        8fac0110 00000dac  998		lw	$12, 272($sp)
        afa00074 00000db0  999		sw	$0, 116($sp)
        11a003c6 00000db4 1000		beq	$13, $0, .L461
        afac00e4 00000db8 1001		sw	$12, 228($sp)
                          1002	.L521:
        2683ffff 00000dbc 1003		addiu	$3, $20, -1
        10600007 00000dc0 1004		beq	$3, $0, .L525
        2463ffff 00000dc4 1005		addiu	$3, $3, -1
        1060017e 00000dc8 1006		beq	$3, $0, .L565
        2463fffe 00000dcc 1007		addiu	$3, $3, -2
        5060021f 00000dd0 1008		beql	$3, $0, .L1000593
        92cd0000 00000dd4 1009		lbu	$13, 0($22)

                                   Tue Apr 07 08:57:46 2015           Page 20
                                   Tue Apr 07 08:57:45 2015       gh_2i0a7.s
        08000000 00000dd8 1010		j	.L1000523
        8fa10054 00000ddc 1011		lw	$1, 84($sp)
                          1012	.L525:
        8fa100dc 00000de0 1013		lw	$1, 220($sp)
        afb6004c 00000de4 1014		sw	$22, 76($sp)
        8fac0054 00000de8 1015		lw	$12, 84($sp)
        afa100b4 00000dec 1016		sw	$1, 180($sp)
        afb20040 00000df0 1017		sw	$18, 64($sp)
        afac0028 00000df4 1018		sw	$12, 40($sp)
        92cd0000 00000df8 1019		lbu	$13, 0($22)
        340f0008 00000dfc 1020		ori	$15, $0, 8
        01f76023 00000e00 1021		subu	$12, $15, $23
        002d7021 00000e04 1022		addu	$14, $1, $13
        8fb800e4 00000e08 1023		lw	$24, 228($sp)
        91d90000 00000e0c 1024		lbu	$25, 0($14)
        afac002c 00000e10 1025		sw	$12, 44($sp)
        93180010 00000e14 1026		lbu	$24, 16($24)
        02f98807 00000e18 1027		srav	$17, $25, $23
        33020003 00000e1c 1028		andi	$2, $24, 3
        03c01825 00000e20 1029		move	$3, $fp
        1040000a 00000e24 1030		beq	$2, $0, .L529
        afb00160 00000e28 1031		sw	$16, 352($sp)
        340e0001 00000e2c 1032		ori	$14, $0, 1
        104e00e1 00000e30 1033		beq	$2, $14, .L555
        2c4d0003 00000e34 1034		sltiu	$13, $2, 3
        15a00068 00000e38 1035		bne	$13, $0, .L535
        34190003 00000e3c 1036		ori	$25, $0, 3
        505900de 00000e40 1037		beql	$2, $25, .L1000555
        8fa300f8 00000e44 1038		lw	$3, 248($sp)
        08000000 00000e48 1039		j	.L1000523
        8fa10054 00000e4c 1040		lw	$1, 84($sp)
                          1041	.L529:
        8fac002c 00000e50 1042		lw	$12, 44($sp)
        8fa10040 00000e54 1043		lw	$1, 64($sp)
        002cc02b 00000e58 1044		sltu	$24, $1, $12
        53000004 00000e5c 1045		beql	$24, $0, .L1000531
        8fad002c 00000e60 1046		lw	$13, 44($sp)
        8fac0040 00000e64 1047		lw	$12, 64($sp)
                          1048	.L1000530:
        afac002c 00000e68 1049		sw	$12, 44($sp)
        8fad002c 00000e6c 1050		lw	$13, 44($sp)
                          1051	.L1000531:
        8fa10040 00000e70 1052		lw	$1, 64($sp)
        000d10c2 00000e74 1053		srl	$2, $13, 3
        002d6023 00000e78 1054		subu	$12, $1, $13
        10400036 00000e7c 1055		beq	$2, $0, .L1047
        afac0040 00000e80 1056		sw	$12, 64($sp)
                          1057	.L1055:
        32390001 00000e84 1058		andi	$25, $17, 1
        0019c040 00000e88 1059		sll	$24, $25, 1
        00787821 00000e8c 1060		addu	$15, $3, $24
        95ee0000 00000e90 1061		lhu	$14, 0($15)
        8fa10028 00000e94 1062		lw	$1, 40($sp)
        00118842 00000e98 1063		srl	$17, $17, 1
        32390001 00000e9c 1064		andi	$25, $17, 1
        a42e0000 00000ea0 1065		sh	$14, 0($1)

                                   Tue Apr 07 08:57:46 2015           Page 21
                                   Tue Apr 07 08:57:45 2015       gh_2i0a7.s
        0019c040 00000ea4 1066		sll	$24, $25, 1
        00787821 00000ea8 1067		addu	$15, $3, $24
        95ee0000 00000eac 1068		lhu	$14, 0($15)
        00118842 00000eb0 1069		srl	$17, $17, 1
        32390001 00000eb4 1070		andi	$25, $17, 1
        a42e0002 00000eb8 1071		sh	$14, 2($1)
        0019c040 00000ebc 1072		sll	$24, $25, 1
        00787821 00000ec0 1073		addu	$15, $3, $24
        95ee0000 00000ec4 1074		lhu	$14, 0($15)
        00118842 00000ec8 1075		srl	$17, $17, 1
        32390001 00000ecc 1076		andi	$25, $17, 1
        a42e0004 00000ed0 1077		sh	$14, 4($1)
        0019c040 00000ed4 1078		sll	$24, $25, 1
        00787821 00000ed8 1079		addu	$15, $3, $24
        95ee0000 00000edc 1080		lhu	$14, 0($15)
        00118842 00000ee0 1081		srl	$17, $17, 1
        32390001 00000ee4 1082		andi	$25, $17, 1
        a42e0006 00000ee8 1083		sh	$14, 6($1)
        0019c040 00000eec 1084		sll	$24, $25, 1
        00787821 00000ef0 1085		addu	$15, $3, $24
        95ee0000 00000ef4 1086		lhu	$14, 0($15)
        00118842 00000ef8 1087		srl	$17, $17, 1
        32390001 00000efc 1088		andi	$25, $17, 1
        a42e0008 00000f00 1089		sh	$14, 8($1)
        0019c040 00000f04 1090		sll	$24, $25, 1
        00787821 00000f08 1091		addu	$15, $3, $24
        95ee0000 00000f0c 1092		lhu	$14, 0($15)
        00118842 00000f10 1093		srl	$17, $17, 1
        32390001 00000f14 1094		andi	$25, $17, 1
        a42e000a 00000f18 1095		sh	$14, 10($1)
        0019c040 00000f1c 1096		sll	$24, $25, 1
        00787821 00000f20 1097		addu	$15, $3, $24
        95ee0000 00000f24 1098		lhu	$14, 0($15)
        00118842 00000f28 1099		srl	$17, $17, 1
        32390001 00000f2c 1100		andi	$25, $17, 1
        00118842 00000f30 1101		srl	$17, $17, 1
        242c0010 00000f34 1102		addiu	$12, $1, 16
        a42e000c 00000f38 1103		sh	$14, 12($1)
        0019c040 00000f3c 1104		sll	$24, $25, 1
        00787821 00000f40 1105		addu	$15, $3, $24
        95ee0000 00000f44 1106		lhu	$14, 0($15)
        afac0028 00000f48 1107		sw	$12, 40($sp)
        2442ffff 00000f4c 1108		addiu	$2, $2, -1
        1440ffcc 00000f50 1109		bne	$2, $0, .L1055
        a42e000e 00000f54 1110		sh	$14, 14($1)
                          1111	.L1047:
        31a20007 00000f58 1112		andi	$2, $13, 7
        5040000d 00000f5c 1113		beql	$2, $0, .L1000533
        8fa10040 00000f60 1114		lw	$1, 64($sp)
                          1115	.L1058:
        8fa10028 00000f64 1116		lw	$1, 40($sp)
        322f0001 00000f68 1117		andi	$15, $17, 1
        00118842 00000f6c 1118		srl	$17, $17, 1
        242c0002 00000f70 1119		addiu	$12, $1, 2
        000f7040 00000f74 1120		sll	$14, $15, 1
        006e6821 00000f78 1121		addu	$13, $3, $14

                                   Tue Apr 07 08:57:46 2015           Page 22
                                   Tue Apr 07 08:57:45 2015       gh_2i0a7.s
        95b90000 00000f7c 1122		lhu	$25, 0($13)
        afac0028 00000f80 1123		sw	$12, 40($sp)
        2442ffff 00000f84 1124		addiu	$2, $2, -1
        1440fff6 00000f88 1125		bne	$2, $0, .L1058
        a4390000 00000f8c 1126		sh	$25, 0($1)
        8fa10040 00000f90 1127		lw	$1, 64($sp)
                          1128	.L1000533:
        50200341 00000f94 1129		beql	$1, $0, .L1000523
        8fa10054 00000f98 1130		lw	$1, 84($sp)
        8fa1004c 00000f9c 1131		lw	$1, 76($sp)
        340c0008 00000fa0 1132		ori	$12, $0, 8
        afac002c 00000fa4 1133		sw	$12, 44($sp)
        902d0001 00000fa8 1134		lbu	$13, 1($1)
        242c0001 00000fac 1135		addiu	$12, $1, 1
        8fa100b4 00000fb0 1136		lw	$1, 180($sp)
        afac004c 00000fb4 1137		sw	$12, 76($sp)
        8fac002c 00000fb8 1138		lw	$12, 44($sp)
        002d7021 00000fbc 1139		addu	$14, $1, $13
        8fa10040 00000fc0 1140		lw	$1, 64($sp)
        91d10000 00000fc4 1141		lbu	$17, 0($14)
        002cc02b 00000fc8 1142		sltu	$24, $1, $12
        5700ffa6 00000fcc 1143		bnel	$24, $0, .L1000530
        8fac0040 00000fd0 1144		lw	$12, 64($sp)
        08000000 00000fd4 1145		j	.L1000531
        8fad002c 00000fd8 1146		lw	$13, 44($sp)
                          1147	.L535:
        946c0002 00000fdc 1148		lhu	$12, 2($3)
        a7ac005e 00000fe0 1149		sh	$12, 94($sp)
        8fac00dc 00000fe4 1150		lw	$12, 220($sp)
        afac00b8 00000fe8 1151		sw	$12, 184($sp)
        8fac0088 00000fec 1152		lw	$12, 136($sp)
        afac00bc 00000ff0 1153		sw	$12, 188($sp)
        8fac0144 00000ff4 1154		lw	$12, 324($sp)
        8fa10040 00000ff8 1155		lw	$1, 64($sp)
        afac00c0 00000ffc 1156		sw	$12, 192($sp)
        8fac002c 00001000 1157		lw	$12, 44($sp)
        002cc82b 00001004 1158		sltu	$25, $1, $12
        53200004 00001008 1159		beql	$25, $0, .L1000538
        8fac002c 0000100c 1160		lw	$12, 44($sp)
        8fac0040 00001010 1161		lw	$12, 64($sp)
                          1162	.L1000537:
        afac002c 00001014 1163		sw	$12, 44($sp)
        8fac002c 00001018 1164		lw	$12, 44($sp)
                          1165	.L1000538:
        8fa10040 0000101c 1166		lw	$1, 64($sp)
        002c6023 00001020 1167		subu	$12, $1, $12
        8fa100bc 00001024 1168		lw	$1, 188($sp)
        afac0040 00001028 1169		sw	$12, 64($sp)
        14200005 0000102c 1170		bne	$1, $0, .L1000769
        8fa1002c 00001030 1171		lw	$1, 44($sp)
        12200033 00001034 1172		beq	$17, $0, .L548
        00011840 00001038 1173		sll	$3, $1, 1
        08000000 0000103c 1174		j	.L1000549
        322e0001 00001040 1175		andi	$14, $17, 1
                          1176	.L1000769:
        00016040 00001044 1177		sll	$12, $1, 1

                                   Tue Apr 07 08:57:46 2015           Page 23
                                   Tue Apr 07 08:57:45 2015       gh_2i0a7.s
        afac0048 00001048 1178		sw	$12, 72($sp)
        8fac00c0 0000104c 1179		lw	$12, 192($sp)
        1620000e 00001050 1180		bne	$17, $0, .L543
        afac014c 00001054 1181		sw	$12, 332($sp)
        8fac0048 00001058 1182		lw	$12, 72($sp)
                          1183	.L1000542:
        8fa10028 0000105c 1184		lw	$1, 40($sp)
        002c6021 00001060 1185		addu	$12, $1, $12
        afac0028 00001064 1186		sw	$12, 40($sp)
        8fac002c 00001068 1187		lw	$12, 44($sp)
        8fa10160 0000106c 1188		lw	$1, 352($sp)
        002c6021 00001070 1189		addu	$12, $1, $12
        8fa10040 00001074 1190		lw	$1, 64($sp)
        afac0160 00001078 1191		sw	$12, 352($sp)
        50200307 0000107c 1192		beql	$1, $0, .L1000523
        8fa10054 00001080 1193		lw	$1, 84($sp)
        08000000 00001084 1194		j	.L1000554
        8fa1004c 00001088 1195		lw	$1, 76($sp)
                          1196	.L543:
        322e0001 0000108c 1197		andi	$14, $17, 1
                          1198	.L1000543:
        51c0000b 00001090 1199		beql	$14, $0, .L1000545
        8fa10160 00001094 1200		lw	$1, 352($sp)
        8fa40164 00001098 1201		lw	$4, 356($sp)
        8c990008 0000109c 1202		lw	$25, 8($4)
        8f390000 000010a0 1203		lw	$25, 0($25)
        8fa50160 000010a4 1204		lw	$5, 352($sp)
        0320f809 000010a8 1205		jalr	$25
        8fa6014c 000010ac 1206		lw	$6, 332($sp)
        97ac005e 000010b0 1207		lhu	$12, 94($sp)
        8fa10028 000010b4 1208		lw	$1, 40($sp)
        a42c0000 000010b8 1209		sh	$12, 0($1)
        8fa10160 000010bc 1210		lw	$1, 352($sp)
                          1211	.L1000545:
        242c0001 000010c0 1212		addiu	$12, $1, 1
        8fa10028 000010c4 1213		lw	$1, 40($sp)
        afac0160 000010c8 1214		sw	$12, 352($sp)
        242c0002 000010cc 1215		addiu	$12, $1, 2
        8fa10048 000010d0 1216		lw	$1, 72($sp)
        afac0028 000010d4 1217		sw	$12, 40($sp)
        242cfffe 000010d8 1218		addiu	$12, $1, -2
        8fa1002c 000010dc 1219		lw	$1, 44($sp)
        afac0048 000010e0 1220		sw	$12, 72($sp)
        242cffff 000010e4 1221		addiu	$12, $1, -1
        11800020 000010e8 1222		beq	$12, $0, .L553
        afac002c 000010ec 1223		sw	$12, 44($sp)
        00118842 000010f0 1224		srl	$17, $17, 1
        5220ffd9 000010f4 1225		beql	$17, $0, .L1000542
        8fac0048 000010f8 1226		lw	$12, 72($sp)
        08000000 000010fc 1227		j	.L1000543
        322e0001 00001100 1228		andi	$14, $17, 1
                          1229	.L548:
        8fa10028 00001104 1230		lw	$1, 40($sp)
                          1231	.L1000548:
        00236021 00001108 1232		addu	$12, $1, $3
        8fa10040 0000110c 1233		lw	$1, 64($sp)

                                   Tue Apr 07 08:57:46 2015           Page 24
                                   Tue Apr 07 08:57:45 2015       gh_2i0a7.s
        afac0028 00001110 1234		sw	$12, 40($sp)
        502002e1 00001114 1235		beql	$1, $0, .L1000523
        8fa10054 00001118 1236		lw	$1, 84($sp)
        08000000 0000111c 1237		j	.L1000554
        8fa1004c 00001120 1238		lw	$1, 76($sp)
                          1239	.L1000549:
        51c00005 00001124 1240		beql	$14, $0, .L1000551
        8fa10028 00001128 1241		lw	$1, 40($sp)
        97ac005e 0000112c 1242		lhu	$12, 94($sp)
        8fa10028 00001130 1243		lw	$1, 40($sp)
        a42c0000 00001134 1244		sh	$12, 0($1)
        8fa10028 00001138 1245		lw	$1, 40($sp)
                          1246	.L1000551:
        242c0002 0000113c 1247		addiu	$12, $1, 2
        8fa1002c 00001140 1248		lw	$1, 44($sp)
        afac0028 00001144 1249		sw	$12, 40($sp)
        2463fffe 00001148 1250		addiu	$3, $3, -2
        242cffff 0000114c 1251		addiu	$12, $1, -1
        11800006 00001150 1252		beq	$12, $0, .L553
        afac002c 00001154 1253		sw	$12, 44($sp)
        00118842 00001158 1254		srl	$17, $17, 1
        5220ffea 0000115c 1255		beql	$17, $0, .L1000548
        8fa10028 00001160 1256		lw	$1, 40($sp)
        08000000 00001164 1257		j	.L1000549
        322e0001 00001168 1258		andi	$14, $17, 1
                          1259	.L553:
        8fa10040 0000116c 1260		lw	$1, 64($sp)
        502002ca 00001170 1261		beql	$1, $0, .L1000523
        8fa10054 00001174 1262		lw	$1, 84($sp)
        8fa1004c 00001178 1263		lw	$1, 76($sp)
                          1264	.L1000554:
        340c0008 0000117c 1265		ori	$12, $0, 8
        afac002c 00001180 1266		sw	$12, 44($sp)
        902e0001 00001184 1267		lbu	$14, 1($1)
        242c0001 00001188 1268		addiu	$12, $1, 1
        8fa100b8 0000118c 1269		lw	$1, 184($sp)
        afac004c 00001190 1270		sw	$12, 76($sp)
        8fac002c 00001194 1271		lw	$12, 44($sp)
        002e7821 00001198 1272		addu	$15, $1, $14
        8fa10040 0000119c 1273		lw	$1, 64($sp)
        91f10000 000011a0 1274		lbu	$17, 0($15)
        002cc82b 000011a4 1275		sltu	$25, $1, $12
        5720ff9a 000011a8 1276		bnel	$25, $0, .L1000537
        8fac0040 000011ac 1277		lw	$12, 64($sp)
        08000000 000011b0 1278		j	.L1000538
        8fac002c 000011b4 1279		lw	$12, 44($sp)
                          1280	.L555:
        8fa300f8 000011b8 1281		lw	$3, 248($sp)
                          1282	.L1000555:
        8c630024 000011bc 1283		lw	$3, 36($3)
        0060f809 000011c0 1284		jalr	$3
        00000000 000011c4 1285		nop
        8fac00dc 000011c8 1286		lw	$12, 220($sp)
        8fa10040 000011cc 1287		lw	$1, 64($sp)
        afac00c4 000011d0 1288		sw	$12, 196($sp)
        8fac002c 000011d4 1289		lw	$12, 44($sp)

                                   Tue Apr 07 08:57:46 2015           Page 25
                                   Tue Apr 07 08:57:45 2015       gh_2i0a7.s
        3043ffff 000011d8 1290		andi	$3, $2, 65535
        002c682b 000011dc 1291		sltu	$13, $1, $12
        51a00004 000011e0 1292		beql	$13, $0, .L1000558
        8fa10040 000011e4 1293		lw	$1, 64($sp)
        8fac0040 000011e8 1294		lw	$12, 64($sp)
                          1295	.L1000557:
        afac002c 000011ec 1296		sw	$12, 44($sp)
        8fa10040 000011f0 1297		lw	$1, 64($sp)
                          1298	.L1000558:
        8fac002c 000011f4 1299		lw	$12, 44($sp)
        002c6023 000011f8 1300		subu	$12, $1, $12
        afac0040 000011fc 1301		sw	$12, 64($sp)
        8fac002c 00001200 1302		lw	$12, 44($sp)
        000c10c2 00001204 1303		srl	$2, $12, 3
        1040004c 00001208 1304		beq	$2, $0, .L1061
        afac006c 0000120c 1305		sw	$12, 108($sp)
                          1306	.L1062:
        322f0001 00001210 1307		andi	$15, $17, 1
        11e00005 00001214 1308		beq	$15, $0, .L1001065
        8fa10028 00001218 1309		lw	$1, 40($sp)
        942d0000 0000121c 1310		lhu	$13, 0($1)
        01a36826 00001220 1311		xor	$13, $13, $3
        a42d0000 00001224 1312		sh	$13, 0($1)
        8fa10028 00001228 1313		lw	$1, 40($sp)
                          1314	.L1001065:
        00118842 0000122c 1315		srl	$17, $17, 1
        32390001 00001230 1316		andi	$25, $17, 1
        242c0002 00001234 1317		addiu	$12, $1, 2
        13200004 00001238 1318		beq	$25, $0, .L1068
        afac0028 0000123c 1319		sw	$12, 40($sp)
        958f0000 00001240 1320		lhu	$15, 0($12)
        01e37826 00001244 1321		xor	$15, $15, $3
        a58f0000 00001248 1322		sh	$15, 0($12)
                          1323	.L1068:
        8fa10028 0000124c 1324		lw	$1, 40($sp)
        00118842 00001250 1325		srl	$17, $17, 1
        322e0001 00001254 1326		andi	$14, $17, 1
        242c0002 00001258 1327		addiu	$12, $1, 2
        11c00004 0000125c 1328		beq	$14, $0, .L1071
        afac0028 00001260 1329		sw	$12, 40($sp)
        95990000 00001264 1330		lhu	$25, 0($12)
        0323c826 00001268 1331		xor	$25, $25, $3
        a5990000 0000126c 1332		sh	$25, 0($12)
                          1333	.L1071:
        8fa10028 00001270 1334		lw	$1, 40($sp)
        00118842 00001274 1335		srl	$17, $17, 1
        32380001 00001278 1336		andi	$24, $17, 1
        242c0002 0000127c 1337		addiu	$12, $1, 2
        13000004 00001280 1338		beq	$24, $0, .L1074
        afac0028 00001284 1339		sw	$12, 40($sp)
        958e0000 00001288 1340		lhu	$14, 0($12)
        01c37026 0000128c 1341		xor	$14, $14, $3
        a58e0000 00001290 1342		sh	$14, 0($12)
                          1343	.L1074:
        8fa10028 00001294 1344		lw	$1, 40($sp)
        00118842 00001298 1345		srl	$17, $17, 1

                                   Tue Apr 07 08:57:46 2015           Page 26
                                   Tue Apr 07 08:57:45 2015       gh_2i0a7.s
        322d0001 0000129c 1346		andi	$13, $17, 1
        242c0002 000012a0 1347		addiu	$12, $1, 2
        11a00004 000012a4 1348		beq	$13, $0, .L1077
        afac0028 000012a8 1349		sw	$12, 40($sp)
        95980000 000012ac 1350		lhu	$24, 0($12)
        0303c026 000012b0 1351		xor	$24, $24, $3
        a5980000 000012b4 1352		sh	$24, 0($12)
                          1353	.L1077:
        8fa10028 000012b8 1354		lw	$1, 40($sp)
        00118842 000012bc 1355		srl	$17, $17, 1
        322f0001 000012c0 1356		andi	$15, $17, 1
        242c0002 000012c4 1357		addiu	$12, $1, 2
        11e00004 000012c8 1358		beq	$15, $0, .L1080
        afac0028 000012cc 1359		sw	$12, 40($sp)
        958d0000 000012d0 1360		lhu	$13, 0($12)
        01a36826 000012d4 1361		xor	$13, $13, $3
        a58d0000 000012d8 1362		sh	$13, 0($12)
                          1363	.L1080:
        8fa10028 000012dc 1364		lw	$1, 40($sp)
        00118842 000012e0 1365		srl	$17, $17, 1
        32390001 000012e4 1366		andi	$25, $17, 1
        242c0002 000012e8 1367		addiu	$12, $1, 2
        13200004 000012ec 1368		beq	$25, $0, .L1083
        afac0028 000012f0 1369		sw	$12, 40($sp)
        958f0000 000012f4 1370		lhu	$15, 0($12)
        01e37826 000012f8 1371		xor	$15, $15, $3
        a58f0000 000012fc 1372		sh	$15, 0($12)
                          1373	.L1083:
        8fa10028 00001300 1374		lw	$1, 40($sp)
        00118842 00001304 1375		srl	$17, $17, 1
        322e0001 00001308 1376		andi	$14, $17, 1
        242c0002 0000130c 1377		addiu	$12, $1, 2
        11c00004 00001310 1378		beq	$14, $0, .L1085
        afac0028 00001314 1379		sw	$12, 40($sp)
        95990000 00001318 1380		lhu	$25, 0($12)
        0323c826 0000131c 1381		xor	$25, $25, $3
        a5990000 00001320 1382		sh	$25, 0($12)
                          1383	.L1085:
        8fa10028 00001324 1384		lw	$1, 40($sp)
        00118842 00001328 1385		srl	$17, $17, 1
        2442ffff 0000132c 1386		addiu	$2, $2, -1
        242c0002 00001330 1387		addiu	$12, $1, 2
        1440ffb6 00001334 1388		bne	$2, $0, .L1062
        afac0028 00001338 1389		sw	$12, 40($sp)
                          1390	.L1061:
        8fa1006c 0000133c 1391		lw	$1, 108($sp)
        30220007 00001340 1392		andi	$2, $1, 7
        1040000c 00001344 1393		beq	$2, $0, .L562
                          1394	.L1088:
        322e0001 00001348 1395		andi	$14, $17, 1
        11c00005 0000134c 1396		beq	$14, $0, .L1001090
        8fa10028 00001350 1397		lw	$1, 40($sp)
        94390000 00001354 1398		lhu	$25, 0($1)
        0323c826 00001358 1399		xor	$25, $25, $3
        a4390000 0000135c 1400		sh	$25, 0($1)
        8fa10028 00001360 1401		lw	$1, 40($sp)

                                   Tue Apr 07 08:57:46 2015           Page 27
                                   Tue Apr 07 08:57:45 2015       gh_2i0a7.s
                          1402	.L1001090:
        00118842 00001364 1403		srl	$17, $17, 1
        2442ffff 00001368 1404		addiu	$2, $2, -1
        242c0002 0000136c 1405		addiu	$12, $1, 2
        1440fff5 00001370 1406		bne	$2, $0, .L1088
        afac0028 00001374 1407		sw	$12, 40($sp)
                          1408	.L562:
        8fa10040 00001378 1409		lw	$1, 64($sp)
        50200247 0000137c 1410		beql	$1, $0, .L1000523
        8fa10054 00001380 1411		lw	$1, 84($sp)
        8fa1004c 00001384 1412		lw	$1, 76($sp)
        340c0008 00001388 1413		ori	$12, $0, 8
        afac002c 0000138c 1414		sw	$12, 44($sp)
        902d0001 00001390 1415		lbu	$13, 1($1)
        242c0001 00001394 1416		addiu	$12, $1, 1
        8fa100c4 00001398 1417		lw	$1, 196($sp)
        afac004c 0000139c 1418		sw	$12, 76($sp)
        8fac002c 000013a0 1419		lw	$12, 44($sp)
        002d7021 000013a4 1420		addu	$14, $1, $13
        8fa10040 000013a8 1421		lw	$1, 64($sp)
        91d10000 000013ac 1422		lbu	$17, 0($14)
        002c682b 000013b0 1423		sltu	$13, $1, $12
        55a0ff8d 000013b4 1424		bnel	$13, $0, .L1000557
        8fac0040 000013b8 1425		lw	$12, 64($sp)
        08000000 000013bc 1426		j	.L1000558
        8fa10040 000013c0 1427		lw	$1, 64($sp)
                          1428	.L565:
        8fac0054 000013c4 1429		lw	$12, 84($sp)
        92cf0000 000013c8 1430		lbu	$15, 0($22)
        0017c040 000013cc 1431		sll	$24, $23, 1
        afac0034 000013d0 1432		sw	$12, 52($sp)
        030f6004 000013d4 1433		sllv	$12, $15, $24
        a3ac0027 000013d8 1434		sb	$12, 39($sp)
        afb60050 000013dc 1435		sw	$22, 80($sp)
        afb20044 000013e0 1436		sw	$18, 68($sp)
        8fae00e4 000013e4 1437		lw	$14, 228($sp)
        afbe0060 000013e8 1438		sw	$fp, 96($sp)
        34190004 000013ec 1439		ori	$25, $0, 4
        8fac0088 000013f0 1440		lw	$12, 136($sp)
        91ce0010 000013f4 1441		lbu	$14, 16($14)
        03378823 000013f8 1442		subu	$17, $25, $23
        afac00ac 000013fc 1443		sw	$12, 172($sp)
        8fac0144 00001400 1444		lw	$12, 324($sp)
        323100ff 00001404 1445		andi	$17, $17, 255
        31c30003 00001408 1446		andi	$3, $14, 3
        afac00b0 0000140c 1447		sw	$12, 176($sp)
        10600008 00001410 1448		beq	$3, $0, .L569
        afb0015c 00001414 1449		sw	$16, 348($sp)
        34190001 00001418 1450		ori	$25, $0, 1
        10790065 0000141c 1451		beq	$3, $25, .L584
        2463fffe 00001420 1452		addiu	$3, $3, -2
        5060002a 00001424 1453		beql	$3, $0, .L1000575
        8fa10044 00001428 1454		lw	$1, 68($sp)
        08000000 0000142c 1455		j	.L1000523
        8fa10054 00001430 1456		lw	$1, 84($sp)
                          1457	.L569:

                                   Tue Apr 07 08:57:46 2015           Page 28
                                   Tue Apr 07 08:57:45 2015       gh_2i0a7.s
        8fa10044 00001434 1458		lw	$1, 68($sp)
        0031782a 00001438 1459		slt	$15, $1, $17
        11e00003 0000143c 1460		beq	$15, $0, .L1000571
        8fa10044 00001440 1461		lw	$1, 68($sp)
                          1462	.L1000570:
        303100ff 00001444 1463		andi	$17, $1, 255
        8fa10044 00001448 1464		lw	$1, 68($sp)
                          1465	.L1000571:
        00316023 0000144c 1466		subu	$12, $1, $17
        afac0044 00001450 1467		sw	$12, 68($sp)
                          1468	.L572:
        93a10027 00001454 1469		lbu	$1, 39($sp)
        00016983 00001458 1470		sra	$13, $1, 6
        8fa10060 0000145c 1471		lw	$1, 96($sp)
        000dc840 00001460 1472		sll	$25, $13, 1
        0039c021 00001464 1473		addu	$24, $1, $25
        8fa10034 00001468 1474		lw	$1, 52($sp)
        970f0000 0000146c 1475		lhu	$15, 0($24)
        2631ffff 00001470 1476		addiu	$17, $17, -1
        242c0002 00001474 1477		addiu	$12, $1, 2
        a42f0000 00001478 1478		sh	$15, 0($1)
        93a10027 0000147c 1479		lbu	$1, 39($sp)
        afac0034 00001480 1480		sw	$12, 52($sp)
        323100ff 00001484 1481		andi	$17, $17, 255
        00016080 00001488 1482		sll	$12, $1, 2
        1620fff1 0000148c 1483		bne	$17, $0, .L572
        a3ac0027 00001490 1484		sb	$12, 39($sp)
        8fa10044 00001494 1485		lw	$1, 68($sp)
        50200200 00001498 1486		beql	$1, $0, .L1000523
        8fa10054 0000149c 1487		lw	$1, 84($sp)
        8fa10050 000014a0 1488		lw	$1, 80($sp)
        902c0001 000014a4 1489		lbu	$12, 1($1)
        a3ac0027 000014a8 1490		sb	$12, 39($sp)
        242c0001 000014ac 1491		addiu	$12, $1, 1
        8fa10044 000014b0 1492		lw	$1, 68($sp)
        afac0050 000014b4 1493		sw	$12, 80($sp)
        34110004 000014b8 1494		ori	$17, $0, 4
        0031782a 000014bc 1495		slt	$15, $1, $17
        55e0ffe0 000014c0 1496		bnel	$15, $0, .L1000570
        8fa10044 000014c4 1497		lw	$1, 68($sp)
        08000000 000014c8 1498		j	.L1000571
        8fa10044 000014cc 1499		lw	$1, 68($sp)
                          1500	.L1000575:
        0031c82a 000014d0 1501		slt	$25, $1, $17
        13200003 000014d4 1502		beq	$25, $0, .L1000577
        8fa10044 000014d8 1503		lw	$1, 68($sp)
                          1504	.L1000576:
        303100ff 000014dc 1505		andi	$17, $1, 255
        8fa10044 000014e0 1506		lw	$1, 68($sp)
                          1507	.L1000577:
        00316023 000014e4 1508		subu	$12, $1, $17
        afac0044 000014e8 1509		sw	$12, 68($sp)
        8fac00ac 000014ec 1510		lw	$12, 172($sp)
        afac0068 000014f0 1511		sw	$12, 104($sp)
        8fac00b0 000014f4 1512		lw	$12, 176($sp)
        afac0150 000014f8 1513		sw	$12, 336($sp)

                                   Tue Apr 07 08:57:46 2015           Page 29
                                   Tue Apr 07 08:57:45 2015       gh_2i0a7.s
                          1514	.L578:
        93a10027 000014fc 1515		lbu	$1, 39($sp)
        303800c0 00001500 1516		andi	$24, $1, 192
        13000010 00001504 1517		beq	$24, $0, .L581
        00017183 00001508 1518		sra	$14, $1, 6
        8fa10060 0000150c 1519		lw	$1, 96($sp)
        000e6840 00001510 1520		sll	$13, $14, 1
        002dc821 00001514 1521		addu	$25, $1, $13
        8fa10034 00001518 1522		lw	$1, 52($sp)
        97380000 0000151c 1523		lhu	$24, 0($25)
        a4380000 00001520 1524		sh	$24, 0($1)
        8fa10068 00001524 1525		lw	$1, 104($sp)
        50200008 00001528 1526		beql	$1, $0, .L1000581
        8fa10034 0000152c 1527		lw	$1, 52($sp)
        8fa40164 00001530 1528		lw	$4, 356($sp)
        8c8e0008 00001534 1529		lw	$14, 8($4)
        8dce0000 00001538 1530		lw	$14, 0($14)
        8fa5015c 0000153c 1531		lw	$5, 348($sp)
        01c0f809 00001540 1532		jalr	$14
        8fa60150 00001544 1533		lw	$6, 336($sp)
                          1534	.L581:
        8fa10034 00001548 1535		lw	$1, 52($sp)
                          1536	.L1000581:
        242c0002 0000154c 1537		addiu	$12, $1, 2
        8fa1015c 00001550 1538		lw	$1, 348($sp)
        afac0034 00001554 1539		sw	$12, 52($sp)
        2631ffff 00001558 1540		addiu	$17, $17, -1
        242c0001 0000155c 1541		addiu	$12, $1, 1
        93a10027 00001560 1542		lbu	$1, 39($sp)
        afac015c 00001564 1543		sw	$12, 348($sp)
        323100ff 00001568 1544		andi	$17, $17, 255
        00016080 0000156c 1545		sll	$12, $1, 2
        1620ffe2 00001570 1546		bne	$17, $0, .L578
        a3ac0027 00001574 1547		sb	$12, 39($sp)
        8fa10044 00001578 1548		lw	$1, 68($sp)
        502001c7 0000157c 1549		beql	$1, $0, .L1000523
        8fa10054 00001580 1550		lw	$1, 84($sp)
        8fa10050 00001584 1551		lw	$1, 80($sp)
        902c0001 00001588 1552		lbu	$12, 1($1)
        a3ac0027 0000158c 1553		sb	$12, 39($sp)
        242c0001 00001590 1554		addiu	$12, $1, 1
        8fa10044 00001594 1555		lw	$1, 68($sp)
        afac0050 00001598 1556		sw	$12, 80($sp)
        34110004 0000159c 1557		ori	$17, $0, 4
        0031c82a 000015a0 1558		slt	$25, $1, $17
        5720ffcd 000015a4 1559		bnel	$25, $0, .L1000576
        8fa10044 000015a8 1560		lw	$1, 68($sp)
        08000000 000015ac 1561		j	.L1000577
        8fa10044 000015b0 1562		lw	$1, 68($sp)
                          1563	.L584:
        8fa10044 000015b4 1564		lw	$1, 68($sp)
        0031c02a 000015b8 1565		slt	$24, $1, $17
        13000003 000015bc 1566		beq	$24, $0, .L1000586
        8fa10044 000015c0 1567		lw	$1, 68($sp)
                          1568	.L1000585:
        303100ff 000015c4 1569		andi	$17, $1, 255

                                   Tue Apr 07 08:57:46 2015           Page 30
                                   Tue Apr 07 08:57:45 2015       gh_2i0a7.s
        8fa10044 000015c8 1570		lw	$1, 68($sp)
                          1571	.L1000586:
        00316023 000015cc 1572		subu	$12, $1, $17
        afac0044 000015d0 1573		sw	$12, 68($sp)
                          1574	.L587:
        93a10027 000015d4 1575		lbu	$1, 39($sp)
        302f00c0 000015d8 1576		andi	$15, $1, 192
        11e00005 000015dc 1577		beq	$15, $0, .L1000589
        8fa10034 000015e0 1578		lw	$1, 52($sp)
        942d0000 000015e4 1579		lhu	$13, 0($1)
        39ad00ff 000015e8 1580		xori	$13, $13, 255
        a42d0000 000015ec 1581		sh	$13, 0($1)
        8fa10034 000015f0 1582		lw	$1, 52($sp)
                          1583	.L1000589:
        2631ffff 000015f4 1584		addiu	$17, $17, -1
        242c0002 000015f8 1585		addiu	$12, $1, 2
        93a10027 000015fc 1586		lbu	$1, 39($sp)
        afac0034 00001600 1587		sw	$12, 52($sp)
        323100ff 00001604 1588		andi	$17, $17, 255
        00016080 00001608 1589		sll	$12, $1, 2
        1620fff1 0000160c 1590		bne	$17, $0, .L587
        a3ac0027 00001610 1591		sb	$12, 39($sp)
        8fa10044 00001614 1592		lw	$1, 68($sp)
        502001a0 00001618 1593		beql	$1, $0, .L1000523
        8fa10054 0000161c 1594		lw	$1, 84($sp)
        8fa10050 00001620 1595		lw	$1, 80($sp)
        902c0001 00001624 1596		lbu	$12, 1($1)
        a3ac0027 00001628 1597		sb	$12, 39($sp)
        242c0001 0000162c 1598		addiu	$12, $1, 1
        8fa10044 00001630 1599		lw	$1, 68($sp)
        afac0050 00001634 1600		sw	$12, 80($sp)
        34110004 00001638 1601		ori	$17, $0, 4
        0031c02a 0000163c 1602		slt	$24, $1, $17
        5700ffe0 00001640 1603		bnel	$24, $0, .L1000585
        8fa10044 00001644 1604		lw	$1, 68($sp)
        08000000 00001648 1605		j	.L1000586
        8fa10044 0000164c 1606		lw	$1, 68($sp)
                          1607	.L1000593:
        02e0c025 00001650 1608		move	$24, $23
        00187080 00001654 1609		sll	$14, $24, 2
        01cd8804 00001658 1610		sllv	$17, $13, $14
        340f0002 0000165c 1611		ori	$15, $0, 2
        8fb900e4 00001660 1612		lw	$25, 228($sp)
        afbe0038 00001664 1613		sw	$fp, 56($sp)
        afb20058 00001668 1614		sw	$18, 88($sp)
        8fac0054 0000166c 1615		lw	$12, 84($sp)
        afb6003c 00001670 1616		sw	$22, 60($sp)
        323100ff 00001674 1617		andi	$17, $17, 255
        afac0030 00001678 1618		sw	$12, 48($sp)
        93390010 0000167c 1619		lbu	$25, 16($25)
        01f81823 00001680 1620		subu	$3, $15, $24
        306300ff 00001684 1621		andi	$3, $3, 255
        33220003 00001688 1622		andi	$2, $25, 3
        10400008 0000168c 1623		beq	$2, $0, .L597
        afb00148 00001690 1624		sw	$16, 328($sp)
        340f0001 00001694 1625		ori	$15, $0, 1

                                   Tue Apr 07 08:57:46 2015           Page 31
                                   Tue Apr 07 08:57:45 2015       gh_2i0a7.s
        104f015b 00001698 1626		beq	$2, $15, .L622
        2442fffe 0000169c 1627		addiu	$2, $2, -2
        104000d8 000016a0 1628		beq	$2, $0, .L605
        00000000 000016a4 1629		nop
        08000000 000016a8 1630		j	.L1000523
        8fa10054 000016ac 1631		lw	$1, 84($sp)
                          1632	.L597:
        53000012 000016b0 1633		beql	$24, $0, .L1000599
        8fa10058 000016b4 1634		lw	$1, 88($sp)
        8fa10038 000016b8 1635		lw	$1, 56($sp)
        0011c903 000016bc 1636		sra	$25, $17, 4
        0019c040 000016c0 1637		sll	$24, $25, 1
        00387821 000016c4 1638		addu	$15, $1, $24
        8fa10030 000016c8 1639		lw	$1, 48($sp)
        95ee0000 000016cc 1640		lhu	$14, 0($15)
        242c0002 000016d0 1641		addiu	$12, $1, 2
        a42e0000 000016d4 1642		sh	$14, 0($1)
        8fa10058 000016d8 1643		lw	$1, 88($sp)
        afac0030 000016dc 1644		sw	$12, 48($sp)
        242cffff 000016e0 1645		addiu	$12, $1, -1
        8fa1003c 000016e4 1646		lw	$1, 60($sp)
        afac0058 000016e8 1647		sw	$12, 88($sp)
        90310001 000016ec 1648		lbu	$17, 1($1)
        242c0001 000016f0 1649		addiu	$12, $1, 1
        afac003c 000016f4 1650		sw	$12, 60($sp)
        8fa10058 000016f8 1651		lw	$1, 88($sp)
                          1652	.L1000599:
        282d0002 000016fc 1653		slti	$13, $1, 2
        15a000a6 00001700 1654		bne	$13, $0, .L603
        00011043 00001704 1655		sra	$2, $1, 1
        afa200e8 00001708 1656		sw	$2, 232($sp)
        302c0001 0000170c 1657		andi	$12, $1, 1
        000218c2 00001710 1658		srl	$3, $2, 3
        10600087 00001714 1659		beq	$3, $0, .L1273
        afac0058 00001718 1660		sw	$12, 88($sp)
                          1661	.L1281:
        8fa10038 0000171c 1662		lw	$1, 56($sp)
        00117903 00001720 1663		sra	$15, $17, 4
        000f7040 00001724 1664		sll	$14, $15, 1
        002e6821 00001728 1665		addu	$13, $1, $14
        95b90000 0000172c 1666		lhu	$25, 0($13)
        8fa10030 00001730 1667		lw	$1, 48($sp)
        3238000f 00001734 1668		andi	$24, $17, 15
        a4390000 00001738 1669		sh	$25, 0($1)
        8fa10038 0000173c 1670		lw	$1, 56($sp)
        00187840 00001740 1671		sll	$15, $24, 1
        002f7021 00001744 1672		addu	$14, $1, $15
        95cd0000 00001748 1673		lhu	$13, 0($14)
        8fa10030 0000174c 1674		lw	$1, 48($sp)
        8fb1003c 00001750 1675		lw	$17, 60($sp)
        a42d0002 00001754 1676		sh	$13, 2($1)
        92310001 00001758 1677		lbu	$17, 1($17)
        8fa10038 0000175c 1678		lw	$1, 56($sp)
        0011c903 00001760 1679		sra	$25, $17, 4
        0019c040 00001764 1680		sll	$24, $25, 1
        00387821 00001768 1681		addu	$15, $1, $24

                                   Tue Apr 07 08:57:46 2015           Page 32
                                   Tue Apr 07 08:57:45 2015       gh_2i0a7.s
        95ee0000 0000176c 1682		lhu	$14, 0($15)
        8fa10030 00001770 1683		lw	$1, 48($sp)
        322d000f 00001774 1684		andi	$13, $17, 15
        a42e0004 00001778 1685		sh	$14, 4($1)
        8fa10038 0000177c 1686		lw	$1, 56($sp)
        000dc840 00001780 1687		sll	$25, $13, 1
        0039c021 00001784 1688		addu	$24, $1, $25
        970f0000 00001788 1689		lhu	$15, 0($24)
        8fa10030 0000178c 1690		lw	$1, 48($sp)
        8fb1003c 00001790 1691		lw	$17, 60($sp)
        a42f0006 00001794 1692		sh	$15, 6($1)
        92310002 00001798 1693		lbu	$17, 2($17)
        8fa10038 0000179c 1694		lw	$1, 56($sp)
        00117103 000017a0 1695		sra	$14, $17, 4
        000e6840 000017a4 1696		sll	$13, $14, 1
        002dc821 000017a8 1697		addu	$25, $1, $13
        97380000 000017ac 1698		lhu	$24, 0($25)
        8fa10030 000017b0 1699		lw	$1, 48($sp)
        322f000f 000017b4 1700		andi	$15, $17, 15
        a4380008 000017b8 1701		sh	$24, 8($1)
        8fa10038 000017bc 1702		lw	$1, 56($sp)
        000f7040 000017c0 1703		sll	$14, $15, 1
        002e6821 000017c4 1704		addu	$13, $1, $14
        95b90000 000017c8 1705		lhu	$25, 0($13)
        8fa10030 000017cc 1706		lw	$1, 48($sp)
        8fb1003c 000017d0 1707		lw	$17, 60($sp)
        a439000a 000017d4 1708		sh	$25, 10($1)
        92310003 000017d8 1709		lbu	$17, 3($17)
        8fa10038 000017dc 1710		lw	$1, 56($sp)
        0011c103 000017e0 1711		sra	$24, $17, 4
        00187840 000017e4 1712		sll	$15, $24, 1
        002f7021 000017e8 1713		addu	$14, $1, $15
        95cd0000 000017ec 1714		lhu	$13, 0($14)
        8fa10030 000017f0 1715		lw	$1, 48($sp)
        3239000f 000017f4 1716		andi	$25, $17, 15
        a42d000c 000017f8 1717		sh	$13, 12($1)
        8fa10038 000017fc 1718		lw	$1, 56($sp)
        0019c040 00001800 1719		sll	$24, $25, 1
        00387821 00001804 1720		addu	$15, $1, $24
        95ee0000 00001808 1721		lhu	$14, 0($15)
        8fa10030 0000180c 1722		lw	$1, 48($sp)
        8fb1003c 00001810 1723		lw	$17, 60($sp)
        a42e000e 00001814 1724		sh	$14, 14($1)
        92310004 00001818 1725		lbu	$17, 4($17)
        8fa10038 0000181c 1726		lw	$1, 56($sp)
        00116903 00001820 1727		sra	$13, $17, 4
        000dc840 00001824 1728		sll	$25, $13, 1
        0039c021 00001828 1729		addu	$24, $1, $25
        970f0000 0000182c 1730		lhu	$15, 0($24)
        8fa10030 00001830 1731		lw	$1, 48($sp)
        322e000f 00001834 1732		andi	$14, $17, 15
        a42f0010 00001838 1733		sh	$15, 16($1)
        8fa10038 0000183c 1734		lw	$1, 56($sp)
        000e6840 00001840 1735		sll	$13, $14, 1
        002dc821 00001844 1736		addu	$25, $1, $13
        97380000 00001848 1737		lhu	$24, 0($25)

                                   Tue Apr 07 08:57:46 2015           Page 33
                                   Tue Apr 07 08:57:45 2015       gh_2i0a7.s
        8fa10030 0000184c 1738		lw	$1, 48($sp)
        8fb1003c 00001850 1739		lw	$17, 60($sp)
        a4380012 00001854 1740		sh	$24, 18($1)
        92310005 00001858 1741		lbu	$17, 5($17)
        8fa10038 0000185c 1742		lw	$1, 56($sp)
        00117903 00001860 1743		sra	$15, $17, 4
        000f7040 00001864 1744		sll	$14, $15, 1
        002e6821 00001868 1745		addu	$13, $1, $14
        95b90000 0000186c 1746		lhu	$25, 0($13)
        8fa10030 00001870 1747		lw	$1, 48($sp)
        3238000f 00001874 1748		andi	$24, $17, 15
        a4390014 00001878 1749		sh	$25, 20($1)
        8fa10038 0000187c 1750		lw	$1, 56($sp)
        00187840 00001880 1751		sll	$15, $24, 1
        002f7021 00001884 1752		addu	$14, $1, $15
        95cd0000 00001888 1753		lhu	$13, 0($14)
        8fa10030 0000188c 1754		lw	$1, 48($sp)
        8fb1003c 00001890 1755		lw	$17, 60($sp)
        a42d0016 00001894 1756		sh	$13, 22($1)
        92310006 00001898 1757		lbu	$17, 6($17)
        8fa10038 0000189c 1758		lw	$1, 56($sp)
        0011c903 000018a0 1759		sra	$25, $17, 4
        0019c040 000018a4 1760		sll	$24, $25, 1
        00387821 000018a8 1761		addu	$15, $1, $24
        95ee0000 000018ac 1762		lhu	$14, 0($15)
        8fa10030 000018b0 1763		lw	$1, 48($sp)
        322d000f 000018b4 1764		andi	$13, $17, 15
        a42e0018 000018b8 1765		sh	$14, 24($1)
        8fa10038 000018bc 1766		lw	$1, 56($sp)
        000dc840 000018c0 1767		sll	$25, $13, 1
        0039c021 000018c4 1768		addu	$24, $1, $25
        970f0000 000018c8 1769		lhu	$15, 0($24)
        8fa10030 000018cc 1770		lw	$1, 48($sp)
        8fb1003c 000018d0 1771		lw	$17, 60($sp)
        a42f001a 000018d4 1772		sh	$15, 26($1)
        92310007 000018d8 1773		lbu	$17, 7($17)
        8fa10038 000018dc 1774		lw	$1, 56($sp)
        00117103 000018e0 1775		sra	$14, $17, 4
        000e6840 000018e4 1776		sll	$13, $14, 1
        002dc821 000018e8 1777		addu	$25, $1, $13
        97380000 000018ec 1778		lhu	$24, 0($25)
        8fa10030 000018f0 1779		lw	$1, 48($sp)
        322f000f 000018f4 1780		andi	$15, $17, 15
        a438001c 000018f8 1781		sh	$24, 28($1)
        8fa10038 000018fc 1782		lw	$1, 56($sp)
        000f7040 00001900 1783		sll	$14, $15, 1
        002e6821 00001904 1784		addu	$13, $1, $14
        8fa10030 00001908 1785		lw	$1, 48($sp)
        95b90000 0000190c 1786		lhu	$25, 0($13)
        242c0020 00001910 1787		addiu	$12, $1, 32
        a439001e 00001914 1788		sh	$25, 30($1)
        8fa1003c 00001918 1789		lw	$1, 60($sp)
        afac0030 0000191c 1790		sw	$12, 48($sp)
        2463ffff 00001920 1791		addiu	$3, $3, -1
        242c0008 00001924 1792		addiu	$12, $1, 8
        afac003c 00001928 1793		sw	$12, 60($sp)

                                   Tue Apr 07 08:57:46 2015           Page 34
                                   Tue Apr 07 08:57:45 2015       gh_2i0a7.s
        1460ff7b 0000192c 1794		bne	$3, $0, .L1281
        90310008 00001930 1795		lbu	$17, 8($1)
                          1796	.L1273:
        8fa100e8 00001934 1797		lw	$1, 232($sp)
        30230007 00001938 1798		andi	$3, $1, 7
        50600018 0000193c 1799		beql	$3, $0, .L1000603
        8fa10058 00001940 1800		lw	$1, 88($sp)
                          1801	.L1284:
        8fa10038 00001944 1802		lw	$1, 56($sp)
        00117103 00001948 1803		sra	$14, $17, 4
        000e6840 0000194c 1804		sll	$13, $14, 1
        002dc821 00001950 1805		addu	$25, $1, $13
        97380000 00001954 1806		lhu	$24, 0($25)
        8fa10030 00001958 1807		lw	$1, 48($sp)
        322f000f 0000195c 1808		andi	$15, $17, 15
        a4380000 00001960 1809		sh	$24, 0($1)
        8fa10038 00001964 1810		lw	$1, 56($sp)
        000f7040 00001968 1811		sll	$14, $15, 1
        002e6821 0000196c 1812		addu	$13, $1, $14
        8fa10030 00001970 1813		lw	$1, 48($sp)
        95b90000 00001974 1814		lhu	$25, 0($13)
        242c0004 00001978 1815		addiu	$12, $1, 4
        a4390002 0000197c 1816		sh	$25, 2($1)
        8fa1003c 00001980 1817		lw	$1, 60($sp)
        afac0030 00001984 1818		sw	$12, 48($sp)
        2463ffff 00001988 1819		addiu	$3, $3, -1
        242c0001 0000198c 1820		addiu	$12, $1, 1
        afac003c 00001990 1821		sw	$12, 60($sp)
        1460ffeb 00001994 1822		bne	$3, $0, .L1284
        90310001 00001998 1823		lbu	$17, 1($1)
                          1824	.L603:
        8fa10058 0000199c 1825		lw	$1, 88($sp)
                          1826	.L1000603:
        502000be 000019a0 1827		beql	$1, $0, .L1000523
        8fa10054 000019a4 1828		lw	$1, 84($sp)
        8fa10038 000019a8 1829		lw	$1, 56($sp)
        00117103 000019ac 1830		sra	$14, $17, 4
        000e6840 000019b0 1831		sll	$13, $14, 1
        002dc821 000019b4 1832		addu	$25, $1, $13
        97380000 000019b8 1833		lhu	$24, 0($25)
        8fa10030 000019bc 1834		lw	$1, 48($sp)
        8fac0070 000019c0 1835		lw	$12, 112($sp)
        a4380000 000019c4 1836		sh	$24, 0($1)
        8fa10054 000019c8 1837		lw	$1, 84($sp)
        002c6021 000019cc 1838		addu	$12, $1, $12
        8fa10144 000019d0 1839		lw	$1, 324($sp)
        afac0054 000019d4 1840		sw	$12, 84($sp)
        242c0001 000019d8 1841		addiu	$12, $1, 1
        8fa10074 000019dc 1842		lw	$1, 116($sp)
        afac0144 000019e0 1843		sw	$12, 324($sp)
        02d5b021 000019e4 1844		addu	$22, $22, $21
        242c0001 000019e8 1845		addiu	$12, $1, 1
        01800825 000019ec 1846		move	$1, $12
        0033682a 000019f0 1847		slt	$13, $1, $19
        15a0fcf1 000019f4 1848		bne	$13, $0, .L521
        afac0074 000019f8 1849		sw	$12, 116($sp)

                                   Tue Apr 07 08:57:46 2015           Page 35
                                   Tue Apr 07 08:57:45 2015       gh_2i0a7.s
        08000000 000019fc 1850		j	.L1000461
        8fbe0020 00001a00 1851		lw	$fp, 32($sp)
                          1852	.L605:
        13000057 00001a04 1853		beq	$24, $0, .L617
        322e00f0 00001a08 1854		andi	$14, $17, 240
        51c00012 00001a0c 1855		beql	$14, $0, .L1000609
        8fa10030 00001a10 1856		lw	$1, 48($sp)
        8fa10038 00001a14 1857		lw	$1, 56($sp)
        0011c903 00001a18 1858		sra	$25, $17, 4
        0019c040 00001a1c 1859		sll	$24, $25, 1
        00387821 00001a20 1860		addu	$15, $1, $24
        8fa10030 00001a24 1861		lw	$1, 48($sp)
        95ee0000 00001a28 1862		lhu	$14, 0($15)
        a42e0000 00001a2c 1863		sh	$14, 0($1)
        8fa10088 00001a30 1864		lw	$1, 136($sp)
        50200008 00001a34 1865		beql	$1, $0, .L1000609
        8fa10030 00001a38 1866		lw	$1, 48($sp)
        8fa40164 00001a3c 1867		lw	$4, 356($sp)
        8c990008 00001a40 1868		lw	$25, 8($4)
        8f390000 00001a44 1869		lw	$25, 0($25)
        8fa50148 00001a48 1870		lw	$5, 328($sp)
        0320f809 00001a4c 1871		jalr	$25
        8fa60144 00001a50 1872		lw	$6, 324($sp)
        8fa10030 00001a54 1873		lw	$1, 48($sp)
                          1874	.L1000609:
        242c0002 00001a58 1875		addiu	$12, $1, 2
        8fa10148 00001a5c 1876		lw	$1, 328($sp)
        afac0030 00001a60 1877		sw	$12, 48($sp)
        242c0001 00001a64 1878		addiu	$12, $1, 1
        8fa10058 00001a68 1879		lw	$1, 88($sp)
        afac0148 00001a6c 1880		sw	$12, 328($sp)
        242cffff 00001a70 1881		addiu	$12, $1, -1
        8fa1003c 00001a74 1882		lw	$1, 60($sp)
        afac0058 00001a78 1883		sw	$12, 88($sp)
        90310001 00001a7c 1884		lbu	$17, 1($1)
        242c0001 00001a80 1885		addiu	$12, $1, 1
        8fa10058 00001a84 1886		lw	$1, 88($sp)
        afac003c 00001a88 1887		sw	$12, 60($sp)
        28390002 00001a8c 1888		slti	$25, $1, 2
        57200039 00001a90 1889		bnel	$25, $0, .L1000618
        8fa10058 00001a94 1890		lw	$1, 88($sp)
        323800f0 00001a98 1891		andi	$24, $17, 240
                          1892	.L1000610:
        53000012 00001a9c 1893		beql	$24, $0, .L1000613
        3231000f 00001aa0 1894		andi	$17, $17, 15
        8fa10038 00001aa4 1895		lw	$1, 56($sp)
        00117103 00001aa8 1896		sra	$14, $17, 4
        000e6840 00001aac 1897		sll	$13, $14, 1
        002dc821 00001ab0 1898		addu	$25, $1, $13
        8fa10030 00001ab4 1899		lw	$1, 48($sp)
        97380000 00001ab8 1900		lhu	$24, 0($25)
        a4380000 00001abc 1901		sh	$24, 0($1)
        8fa10088 00001ac0 1902		lw	$1, 136($sp)
        50200008 00001ac4 1903		beql	$1, $0, .L1000613
        3231000f 00001ac8 1904		andi	$17, $17, 15
        8fa40164 00001acc 1905		lw	$4, 356($sp)

                                   Tue Apr 07 08:57:46 2015           Page 36
                                   Tue Apr 07 08:57:45 2015       gh_2i0a7.s
        8c8e0008 00001ad0 1906		lw	$14, 8($4)
        8dce0000 00001ad4 1907		lw	$14, 0($14)
        8fa50148 00001ad8 1908		lw	$5, 328($sp)
        01c0f809 00001adc 1909		jalr	$14
        8fa60144 00001ae0 1910		lw	$6, 324($sp)
        3231000f 00001ae4 1911		andi	$17, $17, 15
                          1912	.L1000613:
        52200012 00001ae8 1913		beql	$17, $0, .L1000616
        8fa10030 00001aec 1914		lw	$1, 48($sp)
        8fa10038 00001af0 1915		lw	$1, 56($sp)
        0011c840 00001af4 1916		sll	$25, $17, 1
        0039c021 00001af8 1917		addu	$24, $1, $25
        8fa10030 00001afc 1918		lw	$1, 48($sp)
        970f0000 00001b00 1919		lhu	$15, 0($24)
        a42f0002 00001b04 1920		sh	$15, 2($1)
        8fa10088 00001b08 1921		lw	$1, 136($sp)
        50200009 00001b0c 1922		beql	$1, $0, .L1000616
        8fa10030 00001b10 1923		lw	$1, 48($sp)
        8fa40164 00001b14 1924		lw	$4, 356($sp)
        8c8d0008 00001b18 1925		lw	$13, 8($4)
        8fa10148 00001b1c 1926		lw	$1, 328($sp)
        8dad0000 00001b20 1927		lw	$13, 0($13)
        8fa60144 00001b24 1928		lw	$6, 324($sp)
        01a0f809 00001b28 1929		jalr	$13
        24250001 00001b2c 1930		addiu	$5, $1, 1
        8fa10030 00001b30 1931		lw	$1, 48($sp)
                          1932	.L1000616:
        242c0004 00001b34 1933		addiu	$12, $1, 4
        8fa10148 00001b38 1934		lw	$1, 328($sp)
        afac0030 00001b3c 1935		sw	$12, 48($sp)
        242c0002 00001b40 1936		addiu	$12, $1, 2
        8fa10058 00001b44 1937		lw	$1, 88($sp)
        afac0148 00001b48 1938		sw	$12, 328($sp)
        242cfffe 00001b4c 1939		addiu	$12, $1, -2
        8fa1003c 00001b50 1940		lw	$1, 60($sp)
        afac0058 00001b54 1941		sw	$12, 88($sp)
        90310001 00001b58 1942		lbu	$17, 1($1)
        242c0001 00001b5c 1943		addiu	$12, $1, 1
        afac003c 00001b60 1944		sw	$12, 60($sp)
                          1945	.L617:
        8fa10058 00001b64 1946		lw	$1, 88($sp)
        28390002 00001b68 1947		slti	$25, $1, 2
        5320ffcb 00001b6c 1948		beql	$25, $0, .L1000610
        323800f0 00001b70 1949		andi	$24, $17, 240
        8fa10058 00001b74 1950		lw	$1, 88($sp)
                          1951	.L1000618:
        10200047 00001b78 1952		beq	$1, $0, .L523
        00118902 00001b7c 1953		srl	$17, $17, 4
        323100ff 00001b80 1954		andi	$17, $17, 255
        52200045 00001b84 1955		beql	$17, $0, .L1000523
        8fa10054 00001b88 1956		lw	$1, 84($sp)
        8fa10038 00001b8c 1957		lw	$1, 56($sp)
        00117040 00001b90 1958		sll	$14, $17, 1
        002e6821 00001b94 1959		addu	$13, $1, $14
        8fa10030 00001b98 1960		lw	$1, 48($sp)
        95b90000 00001b9c 1961		lhu	$25, 0($13)

                                   Tue Apr 07 08:57:46 2015           Page 37
                                   Tue Apr 07 08:57:45 2015       gh_2i0a7.s
        a4390000 00001ba0 1962		sh	$25, 0($1)
        8fa10088 00001ba4 1963		lw	$1, 136($sp)
        5020003c 00001ba8 1964		beql	$1, $0, .L1000523
        8fa10054 00001bac 1965		lw	$1, 84($sp)
        8fa40164 00001bb0 1966		lw	$4, 356($sp)
        8c8f0008 00001bb4 1967		lw	$15, 8($4)
        8def0000 00001bb8 1968		lw	$15, 0($15)
        8fa50148 00001bbc 1969		lw	$5, 328($sp)
        01e0f809 00001bc0 1970		jalr	$15
        8fa60144 00001bc4 1971		lw	$6, 324($sp)
        8fa10054 00001bc8 1972		lw	$1, 84($sp)
        8fac0070 00001bcc 1973		lw	$12, 112($sp)
        002c6021 00001bd0 1974		addu	$12, $1, $12
        8fa10144 00001bd4 1975		lw	$1, 324($sp)
        afac0054 00001bd8 1976		sw	$12, 84($sp)
        242c0001 00001bdc 1977		addiu	$12, $1, 1
        8fa10074 00001be0 1978		lw	$1, 116($sp)
        afac0144 00001be4 1979		sw	$12, 324($sp)
        02d5b021 00001be8 1980		addu	$22, $22, $21
        242c0001 00001bec 1981		addiu	$12, $1, 1
        01800825 00001bf0 1982		move	$1, $12
        0033682a 00001bf4 1983		slt	$13, $1, $19
        15a0fc70 00001bf8 1984		bne	$13, $0, .L521
        afac0074 00001bfc 1985		sw	$12, 116($sp)
        08000000 00001c00 1986		j	.L1000461
        8fbe0020 00001c04 1987		lw	$fp, 32($sp)
                          1988	.L622:
        8fa10058 00001c08 1989		lw	$1, 88($sp)
        0023702a 00001c0c 1990		slt	$14, $1, $3
        11c00003 00001c10 1991		beq	$14, $0, .L1000624
        8fa10058 00001c14 1992		lw	$1, 88($sp)
                          1993	.L1000623:
        302300ff 00001c18 1994		andi	$3, $1, 255
        8fa10058 00001c1c 1995		lw	$1, 88($sp)
                          1996	.L1000624:
        00236023 00001c20 1997		subu	$12, $1, $3
        afac0058 00001c24 1998		sw	$12, 88($sp)
                          1999	.L625:
        322d00c0 00001c28 2000		andi	$13, $17, 192
        11a00005 00001c2c 2001		beq	$13, $0, .L1000627
        8fa10030 00001c30 2002		lw	$1, 48($sp)
        94380000 00001c34 2003		lhu	$24, 0($1)
        3b1800ff 00001c38 2004		xori	$24, $24, 255
        a4380000 00001c3c 2005		sh	$24, 0($1)
        8fa10030 00001c40 2006		lw	$1, 48($sp)
                          2007	.L1000627:
        00118900 00001c44 2008		sll	$17, $17, 4
        323100ff 00001c48 2009		andi	$17, $17, 255
        242c0002 00001c4c 2010		addiu	$12, $1, 2
        2463ffff 00001c50 2011		addiu	$3, $3, -1
        306300ff 00001c54 2012		andi	$3, $3, 255
        1460fff3 00001c58 2013		bne	$3, $0, .L625
        afac0030 00001c5c 2014		sw	$12, 48($sp)
        8fa10058 00001c60 2015		lw	$1, 88($sp)
        5020000d 00001c64 2016		beql	$1, $0, .L1000523
        8fa10054 00001c68 2017		lw	$1, 84($sp)

                                   Tue Apr 07 08:57:46 2015           Page 38
                                   Tue Apr 07 08:57:45 2015       gh_2i0a7.s
        8fa1003c 00001c6c 2018		lw	$1, 60($sp)
        90310001 00001c70 2019		lbu	$17, 1($1)
        242c0001 00001c74 2020		addiu	$12, $1, 1
        8fa10058 00001c78 2021		lw	$1, 88($sp)
        afac003c 00001c7c 2022		sw	$12, 60($sp)
        34030002 00001c80 2023		ori	$3, $0, 2
        0023702a 00001c84 2024		slt	$14, $1, $3
        55c0ffe3 00001c88 2025		bnel	$14, $0, .L1000623
        8fa10058 00001c8c 2026		lw	$1, 88($sp)
        08000000 00001c90 2027		j	.L1000624
        8fa10058 00001c94 2028		lw	$1, 88($sp)
                          2029	.L523:
        8fa10054 00001c98 2030		lw	$1, 84($sp)
                          2031	.L1000523:
        8fac0070 00001c9c 2032		lw	$12, 112($sp)
        002c6021 00001ca0 2033		addu	$12, $1, $12
        8fa10144 00001ca4 2034		lw	$1, 324($sp)
        afac0054 00001ca8 2035		sw	$12, 84($sp)
        242c0001 00001cac 2036		addiu	$12, $1, 1
        8fa10074 00001cb0 2037		lw	$1, 116($sp)
        afac0144 00001cb4 2038		sw	$12, 324($sp)
        02d5b021 00001cb8 2039		addu	$22, $22, $21
        242c0001 00001cbc 2040		addiu	$12, $1, 1
        01800825 00001cc0 2041		move	$1, $12
        0033682a 00001cc4 2042		slt	$13, $1, $19
        15a0fc3c 00001cc8 2043		bne	$13, $0, .L521
        afac0074 00001ccc 2044		sw	$12, 116($sp)
                          2045	.L461:
        8fbe0020 00001cd0 2046		lw	$fp, 32($sp)
                          2047	.L1000461:
                          2048	 #	    .ef
        8fb7001c 00001cd4 2049		lw	$23, 28($sp)
        8fbf016c 00001cd8 2050		lw	$ra, 364($sp)
        8fb00000 00001cdc 2051		lw	$16, 0($sp)
        8fb10004 00001ce0 2052		lw	$17, 4($sp)
        8fb20008 00001ce4 2053		lw	$18, 8($sp)
        8fb3000c 00001ce8 2054		lw	$19, 12($sp)
        8fb40010 00001cec 2055		lw	$20, 16($sp)
        8fb50014 00001cf0 2056		lw	$21, 20($sp)
        8fb60018 00001cf4 2057		lw	$22, 24($sp)
        03e00008 00001cf8 2058		jr	$ra
        27bd0170 00001cfc 2059		addiu	$sp, $sp, 368
                          2060		.type	_DrawBitmap,@function
                          2061		.size	_DrawBitmap,.-_DrawBitmap
                          2062		.align	4
                          2063	 #i	116($sp)	local
                          2064	 #pDev	248($sp)	local
                          2065	 #pUsage	356($sp)	local
                          2066	 #BytesPerLineDest	112($sp)	local
                          2067	 #pDest	84($sp)	local
                          2068	 #x	$fp	local
                          2069	 #pSrc	$19	local
                          2070	 #xsize	$20	local
                          2071	 #pDest	$23	local
                          2072	 #x	344($sp)	local
                          2073	 #pSrc	$19	local

                                   Tue Apr 07 08:57:46 2015           Page 39
                                   Tue Apr 07 08:57:45 2015       gh_2i0a7.s
                          2074	 #xsize	$20	local
                          2075	 #pTrans	100($sp)	local
                          2076	 #pDest	$23	local
                          2077	 #x	340($sp)	local
                          2078	 #pSrc	$19	local
                          2079	 #xsize	$20	local
                          2080	 #pDest	$23	local
                          2081	 #x	352($sp)	local
                          2082	 #p	76($sp)	local
                          2083	 #xsize	64($sp)	local
                          2084	 #pTrans	$3	local
                          2085	 #pDest	40($sp)	local
                          2086	 #Index1	94($sp)	local
                          2087	 #IndexMask	$3	local
                          2088	 #pixels	$17	local
                          2089	 #PixelCnt	44($sp)	local
                          2090	 #x	348($sp)	local
                          2091	 #p	80($sp)	local
                          2092	 #xsize	68($sp)	local
                          2093	 #pTrans	96($sp)	local
                          2094	 #pDest	52($sp)	local
                          2095	 #pixels	39($sp)	local
                          2096	 #PixelCnt	$17	local
                          2097	 #x	328($sp)	local
                          2098	 #p	60($sp)	local
                          2099	 #Diff	$24	local
                          2100	 #xsize	88($sp)	local
                          2101	 #pTrans	56($sp)	local
                          2102	 #pDest	48($sp)	local
                          2103	 #pixels	$17	local
                          2104	 #PixelCnt	$3	local
                          2105	 #i	$2	local
                          2106	
                          2107	 #x0	$16	param
                          2108	 #y0	$17	param
                          2109	 #xsize	$18	param
                          2110	 #ysize	$19	param
                          2111	 #BitsPerPixel	$20	param
                          2112	 #BytesPerLine	$21	param
                          2113	 #pData	$22	param
                          2114	 #Diff	$23	param
                          2115	 #pTrans	$fp	param
                          2116	
                          2117		.data
                          2118	.L2139:
                          2119		.text
                          2120		.align	4
                          2121		.align	4
                          2122	_FillRect:
        27bdffd8 00001d00 2123		addiu	$sp, $sp, -40
                          2124	 #	    .bf
        afbf0024 00001d04 2125		sw	$ra, 36($sp)
        afb7001c 00001d08 2126		sw	$23, 28($sp)
        afb60018 00001d0c 2127		sw	$22, 24($sp)
        afb50014 00001d10 2128		sw	$21, 20($sp)
        afb40010 00001d14 2129		sw	$20, 16($sp)

                                   Tue Apr 07 08:57:46 2015           Page 40
                                   Tue Apr 07 08:57:45 2015       gh_2i0a7.s
        afb00000 00001d18 2130		sw	$16, 0($sp)
        00808025 00001d1c 2131		move	$16, $4
        afb10004 00001d20 2132		sw	$17, 4($sp)
        00a08825 00001d24 2133		move	$17, $5
        afb20008 00001d28 2134		sw	$18, 8($sp)
        00c09025 00001d2c 2135		move	$18, $6
        afb3000c 00001d30 2136		sw	$19, 12($sp)
        00e09825 00001d34 2137		move	$19, $7
        3c010000 00001d38 2138		lui	$1, %hi(GUI_Context+80)
        0c000000 00001d3c 2139		jal	GUI_ALLOC_h2p
        84240000 00001d40 2140		lh	$4, %lo(GUI_Context+80)($1)
        0040a825 00001d44 2141		move	$21, $2
        02002025 00001d48 2142		move	$4, $16
        0c000000 00001d4c 2143		jal	_XY2PTR
        02202825 00001d50 2144		move	$5, $17
        0250c823 00001d54 2145		subu	$25, $18, $16
        86a30018 00001d58 2146		lh	$3, 24($21)
        27320001 00001d5c 2147		addiu	$18, $25, 1
        8eb7000c 00001d60 2148		lw	$23, 12($21)
        10600045 00001d64 2149		beq	$3, $0, .L2661
        0040a025 00001d68 2150		move	$20, $2
        0c000000 00001d6c 2151		jal	GUI_ALLOC_h2p
        00602025 00001d70 2152		move	$4, $3
        00402025 00001d74 2153		move	$4, $2
        02002825 00001d78 2154		move	$5, $16
        02203025 00001d7c 2155		move	$6, $17
        02403825 00001d80 2156		move	$7, $18
        02717823 00001d84 2157		subu	$15, $19, $17
        0c000000 00001d88 2158		jal	GUI_USAGE_AddRect
        25e80001 00001d8c 2159		addiu	$8, $15, 1
        0271702a 00001d90 2160		slt	$14, $19, $17
        15c0003c 00001d94 2161		bne	$14, $0, .L2654
        3c030000 00001d98 2162		lui	$3, %hi(GUI_Context)
                          2163	.L1002660:
        24630000 00001d9c 2164		addiu	$3, $3, %lo(GUI_Context)
        906d0010 00001da0 2165		lbu	$13, 16($3)
        31ae0001 00001da4 2166		andi	$14, $13, 1
        51c0002f 00001da8 2167		beql	$14, $0, .L1002662
        02802025 00001dac 2168		move	$4, $20
        8ea30024 00001db0 2169		lw	$3, 36($21)
        0240b025 00001db4 2170		move	$22, $18
        0060f809 00001db8 2171		jalr	$3
        02808025 00001dbc 2172		move	$16, $20
        3043ffff 00001dc0 2173		andi	$3, $2, 65535
        001610c2 00001dc4 2174		srl	$2, $22, 3
        5040001d 00001dc8 2175		beql	$2, $0, .L1002703
        32c20007 00001dcc 2176		andi	$2, $22, 7
                          2177	.L2711:
        960e0000 00001dd0 2178		lhu	$14, 0($16)
        96190002 00001dd4 2179		lhu	$25, 2($16)
        01c37826 00001dd8 2180		xor	$15, $14, $3
        a60f0000 00001ddc 2181		sh	$15, 0($16)
        960f0004 00001de0 2182		lhu	$15, 4($16)
        03236826 00001de4 2183		xor	$13, $25, $3
        a60d0002 00001de8 2184		sh	$13, 2($16)
        01e3c026 00001dec 2185		xor	$24, $15, $3

                                   Tue Apr 07 08:57:46 2015           Page 41
                                   Tue Apr 07 08:57:45 2015       gh_2i0a7.s
        a6180004 00001df0 2186		sh	$24, 4($16)
        96180008 00001df4 2187		lhu	$24, 8($16)
        960d0006 00001df8 2188		lhu	$13, 6($16)
        26100010 00001dfc 2189		addiu	$16, $16, 16
        0303c826 00001e00 2190		xor	$25, $24, $3
        a619fff8 00001e04 2191		sh	$25, -8($16)
        01a37026 00001e08 2192		xor	$14, $13, $3
        a60efff6 00001e0c 2193		sh	$14, -10($16)
        960efffa 00001e10 2194		lhu	$14, -6($16)
        9619fffc 00001e14 2195		lhu	$25, -4($16)
        2442ffff 00001e18 2196		addiu	$2, $2, -1
        01c37826 00001e1c 2197		xor	$15, $14, $3
        a60ffffa 00001e20 2198		sh	$15, -6($16)
        960ffffe 00001e24 2199		lhu	$15, -2($16)
        03236826 00001e28 2200		xor	$13, $25, $3
        a60dfffc 00001e2c 2201		sh	$13, -4($16)
        01e3c026 00001e30 2202		xor	$24, $15, $3
        1440ffe6 00001e34 2203		bne	$2, $0, .L2711
        a618fffe 00001e38 2204		sh	$24, -2($16)
        32c20007 00001e3c 2205		andi	$2, $22, 7
                          2206	.L1002703:
        5040000d 00001e40 2207		beql	$2, $0, .L1002667
        0297a021 00001e44 2208		addu	$20, $20, $23
                          2209	.L2714:
        96180000 00001e48 2210		lhu	$24, 0($16)
        26100002 00001e4c 2211		addiu	$16, $16, 2
        2442ffff 00001e50 2212		addiu	$2, $2, -1
        0303c826 00001e54 2213		xor	$25, $24, $3
        1440fffb 00001e58 2214		bne	$2, $0, .L2714
        a619fffe 00001e5c 2215		sh	$25, -2($16)
        08000000 00001e60 2216		j	.L1002667
        0297a021 00001e64 2217		addu	$20, $20, $23
                          2218	.L1002662:
        94650002 00001e68 2219		lhu	$5, 2($3)
        0c000000 00001e6c 2220		jal	GUI__memset16
        02403025 00001e70 2221		move	$6, $18
        0297a021 00001e74 2222		addu	$20, $20, $23
                          2223	.L1002667:
        26310001 00001e78 2224		addiu	$17, $17, 1
                          2225	.L2661:
        0271702a 00001e7c 2226		slt	$14, $19, $17
        51c0ffc6 00001e80 2227		beql	$14, $0, .L1002660
        3c030000 00001e84 2228		lui	$3, %hi(GUI_Context)
                          2229	.L2654:
        8fb7001c 00001e88 2230		lw	$23, 28($sp)
                          2231	 #	    .ef
        8fb60018 00001e8c 2232		lw	$22, 24($sp)
        8fbf0024 00001e90 2233		lw	$ra, 36($sp)
        8fb00000 00001e94 2234		lw	$16, 0($sp)
        8fb10004 00001e98 2235		lw	$17, 4($sp)
        8fb20008 00001e9c 2236		lw	$18, 8($sp)
        8fb3000c 00001ea0 2237		lw	$19, 12($sp)
        8fb40010 00001ea4 2238		lw	$20, 16($sp)
        8fb50014 00001ea8 2239		lw	$21, 20($sp)
        03e00008 00001eac 2240		jr	$ra
        27bd0028 00001eb0 2241		addiu	$sp, $sp, 40

                                   Tue Apr 07 08:57:46 2015           Page 42
                                   Tue Apr 07 08:57:45 2015       gh_2i0a7.s
                          2242		.type	_FillRect,@function
                          2243		.size	_FillRect,.-_FillRect
                          2244		.align	4
                          2245	 #BytesPerLine	$23	local
                          2246	 #Len	$18	local
                          2247	 #pDev	$21	local
                          2248	 #pData	$20	local
                          2249	 #RemPixels	$2	local
                          2250	 #pDest	$16	local
                          2251	 #IndexMask	$3	local
                          2252	
                          2253	 #x0	$16	param
                          2254	 #y0	$17	param
                          2255	 #x1	$18	param
                          2256	 #y1	$19	param
                          2257	
                          2258		.data
                          2259	.L2765:
                          2260		.text
                          2261		.align	4
                          2262		.align	4
                          2263	_DrawHLine:
                          2264	 #	    .bf
        08000000 00001eb4 2265		j	_FillRect
        00a03825 00001eb8 2266		move	$7, $5
                          2267	 #	    .ef
                          2268		.type	_DrawHLine,@function
                          2269		.size	_DrawHLine,.-_DrawHLine
                          2270		.align	4
                          2271	
                          2272	 #x0	none	param
                          2273	 #y	none	param
                          2274	 #x1	none	param
                          2275	
                          2276		.data
                          2277	.L2807:
                          2278		.text
                          2279		.align	4
                          2280		.align	4
                          2281	_DrawVLine:
        27bdffc8 00001ebc 2282		addiu	$sp, $sp, -56
                          2283	 #	    .bf
        afbf0034 00001ec0 2284		sw	$ra, 52($sp)
        afbe0020 00001ec4 2285		sw	$fp, 32($sp)
        afb60018 00001ec8 2286		sw	$22, 24($sp)
        afb50014 00001ecc 2287		sw	$21, 20($sp)
        afb40010 00001ed0 2288		sw	$20, 16($sp)
        afb3000c 00001ed4 2289		sw	$19, 12($sp)
        afb00000 00001ed8 2290		sw	$16, 0($sp)
        00808025 00001edc 2291		move	$16, $4
        afb10004 00001ee0 2292		sw	$17, 4($sp)
        00a08825 00001ee4 2293		move	$17, $5
        afb20008 00001ee8 2294		sw	$18, 8($sp)
        00c09025 00001eec 2295		move	$18, $6
        afb7001c 00001ef0 2296		sw	$23, 28($sp)
        3c170000 00001ef4 2297		lui	$23, %hi(GUI_Context)

                                   Tue Apr 07 08:57:46 2015           Page 43
                                   Tue Apr 07 08:57:45 2015       gh_2i0a7.s
        26f70000 00001ef8 2298		addiu	$23, $23, %lo(GUI_Context)
        0c000000 00001efc 2299		jal	GUI_ALLOC_h2p
        86e40050 00001f00 2300		lh	$4, 80($23)
        0040b025 00001f04 2301		move	$22, $2
        86de0018 00001f08 2302		lh	$fp, 24($22)
        34030000 00001f0c 2303		ori	$3, $0, 0
        53c00005 00001f10 2304		beql	$fp, $0, .L1002814
        0060a025 00001f14 2305		move	$20, $3
        0c000000 00001f18 2306		jal	GUI_ALLOC_h2p
        03c02025 00001f1c 2307		move	$4, $fp
        00401825 00001f20 2308		move	$3, $2
        0060a025 00001f24 2309		move	$20, $3
                          2310	.L1002814:
        02002025 00001f28 2311		move	$4, $16
        0c000000 00001f2c 2312		jal	_XY2PTR
        02202825 00001f30 2313		move	$5, $17
        92ef0010 00001f34 2314		lbu	$15, 16($23)
        8ed5000c 00001f38 2315		lw	$21, 12($22)
        00409825 00001f3c 2316		move	$19, $2
        31f80001 00001f40 2317		andi	$24, $15, 1
        13000094 00001f44 2318		beq	$24, $0, .L2816
        00000000 00001f48 2319		nop
        8ec30024 00001f4c 2320		lw	$3, 36($22)
        0060f809 00001f50 2321		jalr	$3
        00000000 00001f54 2322		nop
        3042ffff 00001f58 2323		andi	$2, $2, 65535
        02516823 00001f5c 2324		subu	$13, $18, $17
        34190000 00001f60 2325		ori	$25, $0, 0
        032dc02a 00001f64 2326		slt	$24, $25, $13
        13000002 00001f68 2327		beq	$24, $0, .L3091
        0040a825 00001f6c 2328		move	$21, $2
        01a0c825 00001f70 2329		move	$25, $13
                          2330	.L3091:
        272c0001 00001f74 2331		addiu	$12, $25, 1
        000cb8c2 00001f78 2332		srl	$23, $12, 3
        12e00066 00001f7c 2333		beq	$23, $0, .L2886
        afac002c 00001f80 2334		sw	$12, 44($sp)
        2fd20001 00001f84 2335		sltiu	$18, $fp, 1
                          2336	.L2887:
        56400008 00001f88 2337		bnel	$18, $0, .L1002890
        96780000 00001f8c 2338		lhu	$24, 0($19)
        8e8d0008 00001f90 2339		lw	$13, 8($20)
        8dad0000 00001f94 2340		lw	$13, 0($13)
        02002825 00001f98 2341		move	$5, $16
        02802025 00001f9c 2342		move	$4, $20
        01a0f809 00001fa0 2343		jalr	$13
        02203025 00001fa4 2344		move	$6, $17
        96780000 00001fa8 2345		lhu	$24, 0($19)
                          2346	.L1002890:
        8ecf000c 00001fac 2347		lw	$15, 12($22)
        0315c826 00001fb0 2348		xor	$25, $24, $21
        a6790000 00001fb4 2349		sh	$25, 0($19)
        16400007 00001fb8 2350		bne	$18, $0, .L2893
        026f9821 00001fbc 2351		addu	$19, $19, $15
        8e8d0008 00001fc0 2352		lw	$13, 8($20)
        8dad0000 00001fc4 2353		lw	$13, 0($13)

                                   Tue Apr 07 08:57:46 2015           Page 44
                                   Tue Apr 07 08:57:45 2015       gh_2i0a7.s
        02002825 00001fc8 2354		move	$5, $16
        02802025 00001fcc 2355		move	$4, $20
        01a0f809 00001fd0 2356		jalr	$13
        26260001 00001fd4 2357		addiu	$6, $17, 1
                          2358	.L2893:
        96780000 00001fd8 2359		lhu	$24, 0($19)
        8ecf000c 00001fdc 2360		lw	$15, 12($22)
        0315c826 00001fe0 2361		xor	$25, $24, $21
        a6790000 00001fe4 2362		sh	$25, 0($19)
        16400007 00001fe8 2363		bne	$18, $0, .L2896
        026f9821 00001fec 2364		addu	$19, $19, $15
        8e8d0008 00001ff0 2365		lw	$13, 8($20)
        8dad0000 00001ff4 2366		lw	$13, 0($13)
        02002825 00001ff8 2367		move	$5, $16
        02802025 00001ffc 2368		move	$4, $20
        01a0f809 00002000 2369		jalr	$13
        26260002 00002004 2370		addiu	$6, $17, 2
                          2371	.L2896:
        96780000 00002008 2372		lhu	$24, 0($19)
        8ecf000c 0000200c 2373		lw	$15, 12($22)
        0315c826 00002010 2374		xor	$25, $24, $21
        a6790000 00002014 2375		sh	$25, 0($19)
        16400007 00002018 2376		bne	$18, $0, .L2899
        026f9821 0000201c 2377		addu	$19, $19, $15
        8e8d0008 00002020 2378		lw	$13, 8($20)
        8dad0000 00002024 2379		lw	$13, 0($13)
        02002825 00002028 2380		move	$5, $16
        02802025 0000202c 2381		move	$4, $20
        01a0f809 00002030 2382		jalr	$13
        26260003 00002034 2383		addiu	$6, $17, 3
                          2384	.L2899:
        96780000 00002038 2385		lhu	$24, 0($19)
        8ecf000c 0000203c 2386		lw	$15, 12($22)
        0315c826 00002040 2387		xor	$25, $24, $21
        a6790000 00002044 2388		sh	$25, 0($19)
        16400007 00002048 2389		bne	$18, $0, .L2902
        026f9821 0000204c 2390		addu	$19, $19, $15
        8e8d0008 00002050 2391		lw	$13, 8($20)
        8dad0000 00002054 2392		lw	$13, 0($13)
        02002825 00002058 2393		move	$5, $16
        02802025 0000205c 2394		move	$4, $20
        01a0f809 00002060 2395		jalr	$13
        26260004 00002064 2396		addiu	$6, $17, 4
                          2397	.L2902:
        96780000 00002068 2398		lhu	$24, 0($19)
        8ecf000c 0000206c 2399		lw	$15, 12($22)
        0315c826 00002070 2400		xor	$25, $24, $21
        a6790000 00002074 2401		sh	$25, 0($19)
        16400007 00002078 2402		bne	$18, $0, .L2905
        026f9821 0000207c 2403		addu	$19, $19, $15
        8e8d0008 00002080 2404		lw	$13, 8($20)
        8dad0000 00002084 2405		lw	$13, 0($13)
        02002825 00002088 2406		move	$5, $16
        02802025 0000208c 2407		move	$4, $20
        01a0f809 00002090 2408		jalr	$13
        26260005 00002094 2409		addiu	$6, $17, 5

                                   Tue Apr 07 08:57:46 2015           Page 45
                                   Tue Apr 07 08:57:45 2015       gh_2i0a7.s
                          2410	.L2905:
        96780000 00002098 2411		lhu	$24, 0($19)
        8ecf000c 0000209c 2412		lw	$15, 12($22)
        0315c826 000020a0 2413		xor	$25, $24, $21
        a6790000 000020a4 2414		sh	$25, 0($19)
        16400007 000020a8 2415		bne	$18, $0, .L2908
        026f9821 000020ac 2416		addu	$19, $19, $15
        8e8d0008 000020b0 2417		lw	$13, 8($20)
        8dad0000 000020b4 2418		lw	$13, 0($13)
        02002825 000020b8 2419		move	$5, $16
        02802025 000020bc 2420		move	$4, $20
        01a0f809 000020c0 2421		jalr	$13
        26260006 000020c4 2422		addiu	$6, $17, 6
                          2423	.L2908:
        96780000 000020c8 2424		lhu	$24, 0($19)
        8ecf000c 000020cc 2425		lw	$15, 12($22)
        0315c826 000020d0 2426		xor	$25, $24, $21
        a6790000 000020d4 2427		sh	$25, 0($19)
        16400007 000020d8 2428		bne	$18, $0, .L2910
        026f9821 000020dc 2429		addu	$19, $19, $15
        8e8d0008 000020e0 2430		lw	$13, 8($20)
        8dad0000 000020e4 2431		lw	$13, 0($13)
        02002825 000020e8 2432		move	$5, $16
        02802025 000020ec 2433		move	$4, $20
        01a0f809 000020f0 2434		jalr	$13
        26260007 000020f4 2435		addiu	$6, $17, 7
                          2436	.L2910:
        96780000 000020f8 2437		lhu	$24, 0($19)
        26310008 000020fc 2438		addiu	$17, $17, 8
        8ecf000c 00002100 2439		lw	$15, 12($22)
        0315c826 00002104 2440		xor	$25, $24, $21
        a6790000 00002108 2441		sh	$25, 0($19)
        26f7ffff 0000210c 2442		addiu	$23, $23, -1
        16e0ff9d 00002110 2443		bne	$23, $0, .L2887
        026f9821 00002114 2444		addu	$19, $19, $15
                          2445	.L2886:
        8fa1002c 00002118 2446		lw	$1, 44($sp)
        30370007 0000211c 2447		andi	$23, $1, 7
        12e00011 00002120 2448		beq	$23, $0, .L2848
        2fd20001 00002124 2449		sltiu	$18, $fp, 1
                          2450	.L2913:
        56400008 00002128 2451		bnel	$18, $0, .L1002915
        966e0000 0000212c 2452		lhu	$14, 0($19)
        8e980008 00002130 2453		lw	$24, 8($20)
        8f180000 00002134 2454		lw	$24, 0($24)
        02002825 00002138 2455		move	$5, $16
        02802025 0000213c 2456		move	$4, $20
        0300f809 00002140 2457		jalr	$24
        02203025 00002144 2458		move	$6, $17
        966e0000 00002148 2459		lhu	$14, 0($19)
                          2460	.L1002915:
        26310001 0000214c 2461		addiu	$17, $17, 1
        8ecd000c 00002150 2462		lw	$13, 12($22)
        01d57826 00002154 2463		xor	$15, $14, $21
        a66f0000 00002158 2464		sh	$15, 0($19)
        26f7ffff 0000215c 2465		addiu	$23, $23, -1

                                   Tue Apr 07 08:57:46 2015           Page 46
                                   Tue Apr 07 08:57:45 2015       gh_2i0a7.s
        16e0fff1 00002160 2466		bne	$23, $0, .L2913
        026d9821 00002164 2467		addu	$19, $19, $13
                          2468	.L2848:
        8fb60018 00002168 2469		lw	$22, 24($sp)
        8fb50014 0000216c 2470		lw	$21, 20($sp)
        8fb40010 00002170 2471		lw	$20, 16($sp)
        8fb3000c 00002174 2472		lw	$19, 12($sp)
        8fb20008 00002178 2473		lw	$18, 8($sp)
        8fb10004 0000217c 2474		lw	$17, 4($sp)
        8fb00000 00002180 2475		lw	$16, 0($sp)
        8fbf0034 00002184 2476		lw	$ra, 52($sp)
        8fb7001c 00002188 2477		lw	$23, 28($sp)
        8fbe0020 0000218c 2478		lw	$fp, 32($sp)
        03e00008 00002190 2479		jr	$ra
        27bd0038 00002194 2480		addiu	$sp, $sp, 56
                          2481	.L2816:
        13c00072 00002198 2482		beq	$fp, $0, .L1002824
        02517823 0000219c 2483		subu	$15, $18, $17
        340e0000 000021a0 2484		ori	$14, $0, 0
        01cf682a 000021a4 2485		slt	$13, $14, $15
        11a00002 000021a8 2486		beq	$13, $0, .L3092
        00000000 000021ac 2487		nop
        01e07025 000021b0 2488		move	$14, $15
                          2489	.L3092:
        25de0001 000021b4 2490		addiu	$fp, $14, 1
        001eb0c2 000021b8 2491		srl	$22, $fp, 3
        12c0004c 000021bc 2492		beq	$22, $0, .L2918
        26f20002 000021c0 2493		addiu	$18, $23, 2
                          2494	.L2926:
        8e980008 000021c4 2495		lw	$24, 8($20)
        8f180000 000021c8 2496		lw	$24, 0($24)
        02802025 000021cc 2497		move	$4, $20
        02002825 000021d0 2498		move	$5, $16
        0300f809 000021d4 2499		jalr	$24
        02203025 000021d8 2500		move	$6, $17
        964f0000 000021dc 2501		lhu	$15, 0($18)
        8e8e0008 000021e0 2502		lw	$14, 8($20)
        02802025 000021e4 2503		move	$4, $20
        a66f0000 000021e8 2504		sh	$15, 0($19)
        8dce0000 000021ec 2505		lw	$14, 0($14)
        02002825 000021f0 2506		move	$5, $16
        02759821 000021f4 2507		addu	$19, $19, $21
        01c0f809 000021f8 2508		jalr	$14
        26260001 000021fc 2509		addiu	$6, $17, 1
        8e990008 00002200 2510		lw	$25, 8($20)
        02802025 00002204 2511		move	$4, $20
        964d0000 00002208 2512		lhu	$13, 0($18)
        8f390000 0000220c 2513		lw	$25, 0($25)
        02002825 00002210 2514		move	$5, $16
        a66d0000 00002214 2515		sh	$13, 0($19)
        0320f809 00002218 2516		jalr	$25
        26260002 0000221c 2517		addiu	$6, $17, 2
        96580000 00002220 2518		lhu	$24, 0($18)
        02759821 00002224 2519		addu	$19, $19, $21
        8e8f0008 00002228 2520		lw	$15, 8($20)
        a6780000 0000222c 2521		sh	$24, 0($19)

                                   Tue Apr 07 08:57:46 2015           Page 47
                                   Tue Apr 07 08:57:45 2015       gh_2i0a7.s
        02759821 00002230 2522		addu	$19, $19, $21
        8def0000 00002234 2523		lw	$15, 0($15)
        02802025 00002238 2524		move	$4, $20
        02002825 0000223c 2525		move	$5, $16
        01e0f809 00002240 2526		jalr	$15
        26260003 00002244 2527		addiu	$6, $17, 3
        02802025 00002248 2528		move	$4, $20
        8e8d0008 0000224c 2529		lw	$13, 8($20)
        964e0000 00002250 2530		lhu	$14, 0($18)
        02002825 00002254 2531		move	$5, $16
        8dad0000 00002258 2532		lw	$13, 0($13)
        a66e0000 0000225c 2533		sh	$14, 0($19)
        02759821 00002260 2534		addu	$19, $19, $21
        01a0f809 00002264 2535		jalr	$13
        26260004 00002268 2536		addiu	$6, $17, 4
        02802025 0000226c 2537		move	$4, $20
        8e980008 00002270 2538		lw	$24, 8($20)
        96590000 00002274 2539		lhu	$25, 0($18)
        02002825 00002278 2540		move	$5, $16
        8f180000 0000227c 2541		lw	$24, 0($24)
        a6790000 00002280 2542		sh	$25, 0($19)
        02759821 00002284 2543		addu	$19, $19, $21
        0300f809 00002288 2544		jalr	$24
        26260005 0000228c 2545		addiu	$6, $17, 5
        964f0000 00002290 2546		lhu	$15, 0($18)
        8e8e0008 00002294 2547		lw	$14, 8($20)
        02802025 00002298 2548		move	$4, $20
        a66f0000 0000229c 2549		sh	$15, 0($19)
        8dce0000 000022a0 2550		lw	$14, 0($14)
        02002825 000022a4 2551		move	$5, $16
        02759821 000022a8 2552		addu	$19, $19, $21
        01c0f809 000022ac 2553		jalr	$14
        26260006 000022b0 2554		addiu	$6, $17, 6
        8e990008 000022b4 2555		lw	$25, 8($20)
        02802025 000022b8 2556		move	$4, $20
        964d0000 000022bc 2557		lhu	$13, 0($18)
        8f390000 000022c0 2558		lw	$25, 0($25)
        02002825 000022c4 2559		move	$5, $16
        a66d0000 000022c8 2560		sh	$13, 0($19)
        0320f809 000022cc 2561		jalr	$25
        26260007 000022d0 2562		addiu	$6, $17, 7
        96580000 000022d4 2563		lhu	$24, 0($18)
        26310008 000022d8 2564		addiu	$17, $17, 8
        02759821 000022dc 2565		addu	$19, $19, $21
        a6780000 000022e0 2566		sh	$24, 0($19)
        26d6ffff 000022e4 2567		addiu	$22, $22, -1
        16c0ffb6 000022e8 2568		bne	$22, $0, .L2926
        02759821 000022ec 2569		addu	$19, $19, $21
                          2570	.L2918:
        33d60007 000022f0 2571		andi	$22, $fp, 7
        12c0000f 000022f4 2572		beq	$22, $0, .L2850
        3c010000 000022f8 2573		lui	$1, %hi(GUI_Context)
        24210000 000022fc 2574		addiu	$1, $1, %lo(GUI_Context)
        24320002 00002300 2575		addiu	$18, $1, 2
                          2576	.L2929:
        8e8d0008 00002304 2577		lw	$13, 8($20)

                                   Tue Apr 07 08:57:46 2015           Page 48
                                   Tue Apr 07 08:57:45 2015       gh_2i0a7.s
        8dad0000 00002308 2578		lw	$13, 0($13)
        02802025 0000230c 2579		move	$4, $20
        02002825 00002310 2580		move	$5, $16
        01a0f809 00002314 2581		jalr	$13
        02203025 00002318 2582		move	$6, $17
        96590000 0000231c 2583		lhu	$25, 0($18)
        26310001 00002320 2584		addiu	$17, $17, 1
        26d6ffff 00002324 2585		addiu	$22, $22, -1
        a6790000 00002328 2586		sh	$25, 0($19)
        16c0fff5 0000232c 2587		bne	$22, $0, .L2929
        02759821 00002330 2588		addu	$19, $19, $21
                          2589	.L2850:
        8fb60018 00002334 2590		lw	$22, 24($sp)
        8fb50014 00002338 2591		lw	$21, 20($sp)
        8fb40010 0000233c 2592		lw	$20, 16($sp)
        8fb3000c 00002340 2593		lw	$19, 12($sp)
        8fb20008 00002344 2594		lw	$18, 8($sp)
        8fb10004 00002348 2595		lw	$17, 4($sp)
        8fb00000 0000234c 2596		lw	$16, 0($sp)
        8fbf0034 00002350 2597		lw	$ra, 52($sp)
        8fb7001c 00002354 2598		lw	$23, 28($sp)
        8fbe0020 00002358 2599		lw	$fp, 32($sp)
        03e00008 0000235c 2600		jr	$ra
        27bd0038 00002360 2601		addiu	$sp, $sp, 56
                          2602	.L1002824:
        25f90001 00002364 2603		addiu	$25, $15, 1
        03205825 00002368 2604		move	$11, $25
        000b10c2 0000236c 2605		srl	$2, $11, 3
        1040001b 00002370 2606		beq	$2, $0, .L2932
        26e30002 00002374 2607		addiu	$3, $23, 2
                          2608	.L2940:
        94790000 00002378 2609		lhu	$25, 0($3)
        a6790000 0000237c 2610		sh	$25, 0($19)
        94780000 00002380 2611		lhu	$24, 0($3)
        02759821 00002384 2612		addu	$19, $19, $21
        a6780000 00002388 2613		sh	$24, 0($19)
        946f0000 0000238c 2614		lhu	$15, 0($3)
        02759821 00002390 2615		addu	$19, $19, $21
        a66f0000 00002394 2616		sh	$15, 0($19)
        946e0000 00002398 2617		lhu	$14, 0($3)
        02759821 0000239c 2618		addu	$19, $19, $21
        a66e0000 000023a0 2619		sh	$14, 0($19)
        946d0000 000023a4 2620		lhu	$13, 0($3)
        02759821 000023a8 2621		addu	$19, $19, $21
        a66d0000 000023ac 2622		sh	$13, 0($19)
        94790000 000023b0 2623		lhu	$25, 0($3)
        02759821 000023b4 2624		addu	$19, $19, $21
        a6790000 000023b8 2625		sh	$25, 0($19)
        94780000 000023bc 2626		lhu	$24, 0($3)
        02759821 000023c0 2627		addu	$19, $19, $21
        a6780000 000023c4 2628		sh	$24, 0($19)
        946f0000 000023c8 2629		lhu	$15, 0($3)
        02759821 000023cc 2630		addu	$19, $19, $21
        2442ffff 000023d0 2631		addiu	$2, $2, -1
        a66f0000 000023d4 2632		sh	$15, 0($19)
        1440ffe7 000023d8 2633		bne	$2, $0, .L2940

                                   Tue Apr 07 08:57:46 2015           Page 49
                                   Tue Apr 07 08:57:45 2015       gh_2i0a7.s
        02759821 000023dc 2634		addu	$19, $19, $21
                          2635	.L2932:
        31620007 000023e0 2636		andi	$2, $11, 7
        10400008 000023e4 2637		beq	$2, $0, .L2851
        3c010000 000023e8 2638		lui	$1, %hi(GUI_Context)
        24210000 000023ec 2639		addiu	$1, $1, %lo(GUI_Context)
        24230002 000023f0 2640		addiu	$3, $1, 2
                          2641	.L2943:
        94790000 000023f4 2642		lhu	$25, 0($3)
        2442ffff 000023f8 2643		addiu	$2, $2, -1
        a6790000 000023fc 2644		sh	$25, 0($19)
        1440fffc 00002400 2645		bne	$2, $0, .L2943
        02759821 00002404 2646		addu	$19, $19, $21
                          2647	.L2851:
        8fbe0020 00002408 2648		lw	$fp, 32($sp)
                          2649	 #	    .ef
        8fb7001c 0000240c 2650		lw	$23, 28($sp)
        8fbf0034 00002410 2651		lw	$ra, 52($sp)
        8fb00000 00002414 2652		lw	$16, 0($sp)
        8fb10004 00002418 2653		lw	$17, 4($sp)
        8fb20008 0000241c 2654		lw	$18, 8($sp)
        8fb3000c 00002420 2655		lw	$19, 12($sp)
        8fb40010 00002424 2656		lw	$20, 16($sp)
        8fb50014 00002428 2657		lw	$21, 20($sp)
        8fb60018 0000242c 2658		lw	$22, 24($sp)
        03e00008 00002430 2659		jr	$ra
        27bd0038 00002434 2660		addiu	$sp, $sp, 56
                          2661		.type	_DrawVLine,@function
                          2662		.size	_DrawVLine,.-_DrawVLine
                          2663		.align	4
                          2664	 #pDev	$22	local
                          2665	 #hUsage	$fp	local
                          2666	 #pUsage	$20	local
                          2667	 #pData	$19	local
                          2668	 #BytesPerLine	$21	local
                          2669	 #IndexMask	$21	local
                          2670	 #NumPixels	$25	local
                          2671	
                          2672	 #x	$16	param
                          2673	 #y0	$17	param
                          2674	 #y1	$18	param
                          2675	
                          2676		.data
                          2677	.L3090:
                          2678		.text
                          2679		.align	4
                          2680		.align	4
                          2681	_SetPixelIndex:
        27bdffe8 00002438 2682		addiu	$sp, $sp, -24
                          2683	 #	    .bf
        afbf0014 0000243c 2684		sw	$ra, 20($sp)
        afb3000c 00002440 2685		sw	$19, 12($sp)
        afb00000 00002444 2686		sw	$16, 0($sp)
        00808025 00002448 2687		move	$16, $4
        afb10004 0000244c 2688		sw	$17, 4($sp)
        00a08825 00002450 2689		move	$17, $5

                                   Tue Apr 07 08:57:46 2015           Page 50
                                   Tue Apr 07 08:57:45 2015       gh_2i0a7.s
        afb20008 00002454 2690		sw	$18, 8($sp)
        00c09025 00002458 2691		move	$18, $6
        3c010000 0000245c 2692		lui	$1, %hi(GUI_Context+80)
        0c000000 00002460 2693		jal	GUI_ALLOC_h2p
        84240000 00002464 2694		lh	$4, %lo(GUI_Context+80)($1)
        84530018 00002468 2695		lh	$19, 24($2)
        02002025 0000246c 2696		move	$4, $16
        0c000000 00002470 2697		jal	_XY2PTR
        02202825 00002474 2698		move	$5, $17
        1260000b 00002478 2699		beq	$19, $0, .L3185
        a4520000 0000247c 2700		sh	$18, 0($2)
        0c000000 00002480 2701		jal	GUI_ALLOC_h2p
        02602025 00002484 2702		move	$4, $19
        8c520008 00002488 2703		lw	$18, 8($2)
        0c000000 0000248c 2704		jal	GUI_ALLOC_h2p
        02602025 00002490 2705		move	$4, $19
        8e580000 00002494 2706		lw	$24, 0($18)
        00402025 00002498 2707		move	$4, $2
        02002825 0000249c 2708		move	$5, $16
        0300f809 000024a0 2709		jalr	$24
        02203025 000024a4 2710		move	$6, $17
                          2711	.L3185:
        8fb3000c 000024a8 2712		lw	$19, 12($sp)
                          2713	 #	    .ef
        8fb20008 000024ac 2714		lw	$18, 8($sp)
        8fbf0014 000024b0 2715		lw	$ra, 20($sp)
        8fb00000 000024b4 2716		lw	$16, 0($sp)
        8fb10004 000024b8 2717		lw	$17, 4($sp)
        03e00008 000024bc 2718		jr	$ra
        27bd0018 000024c0 2719		addiu	$sp, $sp, 24
                          2720		.type	_SetPixelIndex,@function
                          2721		.size	_SetPixelIndex,.-_SetPixelIndex
                          2722		.align	4
                          2723	 #hUsage	$19	local
                          2724	
                          2725	 #x	$16	param
                          2726	 #y	$17	param
                          2727	 #Index	$18	param
                          2728	
                          2729		.data
                          2730	.L3203:
                          2731		.text
                          2732		.align	4
                          2733		.align	4
                          2734	_XorPixel:
        27bdffe0 000024c4 2735		addiu	$sp, $sp, -32
                          2736	 #	    .bf
        afbf001c 000024c8 2737		sw	$ra, 28($sp)
        afb40010 000024cc 2738		sw	$20, 16($sp)
        afb3000c 000024d0 2739		sw	$19, 12($sp)
        afb20008 000024d4 2740		sw	$18, 8($sp)
        afb00000 000024d8 2741		sw	$16, 0($sp)
        00808025 000024dc 2742		move	$16, $4
        afb10004 000024e0 2743		sw	$17, 4($sp)
        00a08825 000024e4 2744		move	$17, $5
        3c010000 000024e8 2745		lui	$1, %hi(GUI_Context+80)

                                   Tue Apr 07 08:57:46 2015           Page 51
                                   Tue Apr 07 08:57:45 2015       gh_2i0a7.s
        0c000000 000024ec 2746		jal	GUI_ALLOC_h2p
        84240000 000024f0 2747		lh	$4, %lo(GUI_Context+80)($1)
        00409825 000024f4 2748		move	$19, $2
        86720018 000024f8 2749		lh	$18, 24($19)
        02002025 000024fc 2750		move	$4, $16
        0c000000 00002500 2751		jal	_XY2PTR
        02202825 00002504 2752		move	$5, $17
        8e630024 00002508 2753		lw	$3, 36($19)
        0060f809 0000250c 2754		jalr	$3
        0040a025 00002510 2755		move	$20, $2
        96980000 00002514 2756		lhu	$24, 0($20)
        0302c826 00002518 2757		xor	$25, $24, $2
        1240000b 0000251c 2758		beq	$18, $0, .L3212
        a6990000 00002520 2759		sh	$25, 0($20)
        0c000000 00002524 2760		jal	GUI_ALLOC_h2p
        02402025 00002528 2761		move	$4, $18
        8c530008 0000252c 2762		lw	$19, 8($2)
        0c000000 00002530 2763		jal	GUI_ALLOC_h2p
        02402025 00002534 2764		move	$4, $18
        8e6e0000 00002538 2765		lw	$14, 0($19)
        00402025 0000253c 2766		move	$4, $2
        02002825 00002540 2767		move	$5, $16
        01c0f809 00002544 2768		jalr	$14
        02203025 00002548 2769		move	$6, $17
                          2770	.L3212:
        8fb40010 0000254c 2771		lw	$20, 16($sp)
                          2772	 #	    .ef
        8fb3000c 00002550 2773		lw	$19, 12($sp)
        8fbf001c 00002554 2774		lw	$ra, 28($sp)
        8fb00000 00002558 2775		lw	$16, 0($sp)
        8fb10004 0000255c 2776		lw	$17, 4($sp)
        8fb20008 00002560 2777		lw	$18, 8($sp)
        03e00008 00002564 2778		jr	$ra
        27bd0020 00002568 2779		addiu	$sp, $sp, 32
                          2780		.type	_XorPixel,@function
                          2781		.size	_XorPixel,.-_XorPixel
                          2782		.align	4
                          2783	 #pDev	$19	local
                          2784	 #hUsage	$18	local
                          2785	 #pData	$20	local
                          2786	
                          2787	 #x	$16	param
                          2788	 #y	$17	param
                          2789	
                          2790		.data
                          2791	.L3230:
                          2792		.text
                          2793		.align	4
                          2794		.align	4
                          2795	_GetPixelIndex:
        27bdfff8 0000256c 2796		addiu	$sp, $sp, -8
                          2797	 #	    .bf
        afbf0004 00002570 2798		sw	$ra, 4($sp)
        0c000000 00002574 2799		jal	_XY2PTR
        00000000 00002578 2800		nop
                          2801	 #	    .ef

                                   Tue Apr 07 08:57:46 2015           Page 52
                                   Tue Apr 07 08:57:45 2015       gh_2i0a7.s
        8fbf0004 0000257c 2802		lw	$ra, 4($sp)
        27bd0008 00002580 2803		addiu	$sp, $sp, 8
        03e00008 00002584 2804		jr	$ra
        94420000 00002588 2805		lhu	$2, 0($2)
                          2806		.type	_GetPixelIndex,@function
                          2807		.size	_GetPixelIndex,.-_GetPixelIndex
                          2808		.align	4
                          2809	
                          2810	 #x	none	param
                          2811	 #y	none	param
                          2812	
                          2813		.data
                          2814	.L3252:
                          2815		.text
                          2816		.align	4
                          2817	 #LCD_aMirror	LCD_aMirror	import
                          2818	 #GUI_Context	GUI_Context	import
                          2819	 #aID	.L456	static
                          2820	
                          2821		.section ".rodata","a"
                          2822	.L3259:
                          2823		.globl	GUI_MEMDEV__APIList16
        00000000 00000020 2824	GUI_MEMDEV__APIList16:	.word	GUI_MEMDEV__Color2Index
        00000000 00000024 2825		.word	GUI_MEMDEV__Index2Color
        00000000 00000028 2826		.word	GUI_MEMDEV__GetIndexMask
        00000000 0000002c 2827		.word	_DrawBitmap
        00000000 00000030 2828		.word	_DrawHLine
        00000000 00000034 2829		.word	_DrawVLine
        00000000 00000038 2830		.word	_FillRect
        00000000 0000003c 2831		.word	_GetPixelIndex
        00000000 00000040 2832		.word	GUI_MEMDEV__GetRect
        00000000 00000044 2833		.word	_SetPixelIndex
        00000000 00000048 2834		.word	_XorPixel
        00000000 0000004c 2835		.space	4
        00000000 00000050 2836		.space	4
        00000000 00000054 2837		.space	4
        00000000 00000058 2838		.space	4
        00000000 0000005c 2839		.space	4
        00000010 00000060 2840		.byte	16,0,0,0
                          2841		.type	GUI_MEMDEV__APIList16,@object
                          2842		.size	GUI_MEMDEV__APIList16,68
                          2843		.data
                          2844		.section ".rodata","a"
                          2845		.align	4
                          2846		.text
