
                                   Tue Apr 07 08:57:49 2015           Page 1
                                   Tue Apr 07 08:57:49 2015       gh_2i0a9.s
Command Line:   C:\GHS\V35\mips35\asmips.exe -noundefined -elf -b0
                -IC:\local\Workspace\DC_V04.01.00_int\cu3x1Platform_SRC\emWinColour
                -IC:\local\Workspace\DC_V04.01.00_int\cu3x1Platform_SRC\platform\include
                -IC:\local\Workspace\DC_V04.01.00_int\cu3x1Platform_SRC\platform\common
                -IC:\local\Workspace\DC_V04.01.00_int\cu3x1Platform_SRC\platform\hardware
                -IC:\local\Workspace\DC_V04.01.00_int\cu3x1Platform_SRC\platform\hardware\D3018X
                -IC:\local\Workspace\DC_V04.01.00_int\cu3x1Platform_SRC\embos\inc
                -IC:\local\Workspace\DC_V04.01.00_int\cu3x1Platform_SRC\emWinColour\config
                -IC:\local\Workspace\DC_V04.01.00_int\cu3x1Platform_SRC\emWinColour\gui\ConvertMono
                -IC:\local\Workspace\DC_V04.01.00_int\cu3x1Platform_SRC\emWinColour\gui\Core
                -IC:\local\Workspace\DC_V04.01.00_int\cu3x1Platform_SRC\emWinColour\gui\Font
                -IC:\local\Workspace\DC_V04.01.00_int\cu3x1Platform_SRC\emWinColour\gui\LCDDriver
                -IC:\local\Workspace\DC_V04.01.00_int\cu3x1Platform_SRC\emWinColour\gui\MemDev
                -IC:\local\Workspace\DC_V04.01.00_int\cu3x1Platform_SRC\emWinColour\gui\VNC
                -IC:\local\Workspace\DC_V04.01.00_int\cu3x1Platform_SRC\emWinColour\gui\Widget
                -IC:\local\Workspace\DC_V04.01.00_int\cu3x1Platform_SRC\emWinColour\gui\wm
                -IC:\local\Workspace\DC_V04.01.00_int\cu3x1App_SRC\Control\source
                -IC:\local\Workspace\DC_V04.01.00_int\cu3x1App_SRC\Control\source\include
                -IC:\local\Workspace\DC_V04.01.00_int\cu3x1App_SRC\Control\source\util
                -IC:\local\Workspace\DC_V04.01.00_int\cu3x1App_SRC\Control\source\datapoint
                -IC:\local\Workspace\DC_V04.01.00_int\cu3x1App_SRC\Control\source\factory
                -IC:\local\Workspace\DC_V04.01.00_int\cu3x1Platform_SRC\embos
                -IC:\local\Workspace\DC_V04.01.00_int\cu3x1Platform_SRC\emWinColour\gui\core
                -IC:\local\Workspace\DC_V04.01.00_int\cu3x1App_SRC\Control\source\rtip\webpage
                -IC:\local\Workspace\DC_V04.01.00_int\cu3x1App_SRC\Control\source\rtip\config
                -IC:\local\Workspace\DC_V04.01.00_int\cu3x1App_SRC\Control\source\rtip\xnet
                -IC:\local\Workspace\DC_V04.01.00_int\cu3x1App_SRC\Control\source\stub
                -IC:\local\Workspace\DC_V04.01.00_int\cu3x1App_SRC\Control\source\test
                -IC:\local\Workspace\DC_V04.01.00_int\cu3x1App_SRC\Control\source\GENIpro
                -IC:\local\Workspace\DC_V04.01.00_int\cu3x1App_SRC\Control\source\GENIpro\GENI_sys
                -IC:\local\Workspace\DC_V04.01.00_int\cu3x1App_SRC\Control\source\GENIpro\GENIusb\emUSB\USB\Driver
                -IC:\local\Workspace\DC_V04.01.00_int\cu3x1App_SRC\Control\source\application\intercom
                -IC:\local\Workspace\DC_V04.01.00_int\cu3x1App_SRC\Control\source\application\controller
                -IC:\local\Workspace\DC_V04.01.00_int\cu3x1App_SRC\Control\source\application\driver
                -IC:\local\Workspace\DC_V04.01.00_int\cu3x1App_SRC\Control\source\application\webif
                -IC:\local\Workspace\DC_V04.01.00_int\cu3x1App_SRC\Control\source\application\relay
                -IC:\local\Workspace\DC_V04.01.00_int\cu3x1App_SRC\Control\source\application\GENIApp
                -IC:\local\Workspace\DC_V04.01.00_int\cu3x1App_SRC\Control\source\application\alarm
                -IC:\local\Workspace\DC_V04.01.00_int\cu3x1App_SRC\Control\source\application\config
                -IC:\local\Workspace\DC_V04.01.00_int\cu3x1App_SRC\Control\source\application\AnaInConfigCtrl
                -IC:\local\Workspace\DC_V04.01.00_int\cu3x1App_SRC\Control\source\application\Sms
                -IC:\local\Workspace\DC_V04.01.00_int\cu3x1App_SRC\Control\source\application\display
                -IC:\local\Workspace\DC_V04.01.00_int\cu3x1App_SRC\Control\source\application\display\display_task
                -IC:\local\Workspace\DC_V04.01.00_int\cu3x1App_SRC\Control\source\application\display\gui_utility
                -IC:\local\Workspace\DC_V04.01.00_int\cu3x1App_SRC\Control\source\application\display\mpcunit
                -IC:\local\Workspace\DC_V04.01.00_int\cu3x1App_SRC\Control\source\GeniPro
                -IC:\local\Workspace\DC_V04.01.00_int\cu3x1App_SRC\Control\source\GeniPro\GENI_sys
                -IC:\local\Workspace\DC_V04.01.00_int\cu3x1App_SRC\Control\source\GeniPro\GENIbus
                -IC:\local\Workspace\DC_V04.01.00_int\cu3x1App_SRC\Control\source\GeniPro\GENIcom
                -IC:\local\Workspace\DC_V04.01.00_int\cu3x1App_SRC\Control\source\GeniPro\GENIrs232
                -IC:\local\Workspace\DC_V04.01.00_int\cu3x1App_SRC\Control\source\GeniPro\Virtual
                -IC:\local\Workspace\DC_V04.01.00_int\cu3x1Platform_SRC\Platform\common
                -IC:\local\Workspace\DC_V04.01.00_int\cu3x1Platform_SRC\Platform\hardware
                -IC:\local\Workspace\DC_V04.01.00_int\cu3x1Platform_SRC\Platform\hardware\D3018X
                -IC:\local\Workspace\DC_V04.01.00_int\cu3x1App_SRC\Control\source\application\display\imagesTFT
                -IC:\GHS\V35\mips35\mipsl_sf -r4121 -source=GUIDEV_Auto.c -o
                objs\gh_2i0a9.o -list=objs\GUIDEV_Auto.lst
                C:\Users\55602\AppData\Local\Temp\gh_2i0a9.s
Source File:    C:\Users\55602\AppData\Local\Temp\gh_2i0a9.s
Directory:      C:\local\Workspace\DC_V04.01.00_int\cu3x1App_SRC\Control\source
Host OS:        GHS_WIN32
Version:        AS-MIPS 3.5#11 
Release:        MULTI 2000, MIPS v3.5
Revision Date:  Wed Feb 27 12:19:03 2002
Release Date:   Sat Mar 02 02:57:59 2002
                             1	 #Source File:   C:\local\Workspace\DC_V04.01.00_int\cu3x1Platform_SRC\emWinColour\GUI\MemDev\GUIDEV_Auto.c

                                   Tue Apr 07 08:57:49 2015           Page 2
                                   Tue Apr 07 08:57:49 2015       gh_2i0a9.s
                             2	 #Directory:     
                             3	 #		C:\local\Workspace\DC_V04.01.00_int\cu3x1App_SRC\Control\source
                             4	 #Compile Date:  Tue Apr 07 08:57:48 2015
                             5	 #Host OS:       Win32
                             6	 #Version:       C-MIPS 3.5#11 RELEASE VERSION
                             7	 #Release:       MULTI 2000, MIPS v3.5
                             8	 #Revision Date: Fri Mar 01 11:32:40 2002
                             9	 #Release Date:  Sat Mar 02 02:58:48 2002
                            10		.set	noat
                            11		.set	noreorder
                            12		.set	nomacro
                            13		.text
                            14		.align	4
                            15		.globl	GUI_MEMDEV_CreateAuto
                            16	GUI_MEMDEV_CreateAuto:
        34020000 00000000   17		ori	$2, $0, 0
                            18	 #	    .bf
                            19	 #	    .ef
        34190001 00000004   20		ori	$25, $0, 1
        03e00008 00000008   21		jr	$ra
        a0990010 0000000c   22		sb	$25, 16($4)
                            23		.type	GUI_MEMDEV_CreateAuto,@function
                            24		.size	GUI_MEMDEV_CreateAuto,.-GUI_MEMDEV_CreateAuto
                            25		.align	4
                            26	
                            27	 #pAutoDev	$4	param
                            28	
                            29		.data
                            30	.L15:
                            31		.text
                            32		.align	4
                            33		.align	4
                            34		.globl	GUI_MEMDEV_DeleteAuto
                            35	GUI_MEMDEV_DeleteAuto:
                            36	 #	    .bf
                            37	 #	    .ef
        03e00008 00000010   38		jr	$ra
        00000000 00000014   39		nop
                            40		.type	GUI_MEMDEV_DeleteAuto,@function
                            41		.size	GUI_MEMDEV_DeleteAuto,.-GUI_MEMDEV_DeleteAuto
                            42		.align	4
                            43	
                            44	 #pAutoDev	none	param
                            45	
                            46		.data
                            47	.L34:
                            48		.text
                            49		.align	4
                            50		.align	4
                            51		.globl	GUI_MEMDEV_DrawAuto
                            52	GUI_MEMDEV_DrawAuto:
        27bdffd8 00000018   53		addiu	$sp, $sp, -40
        afbf0024 0000001c   54		sw	$ra, 36($sp)
        afb50014 00000020   55		sw	$21, 20($sp)
        afb40010 00000024   56		sw	$20, 16($sp)
        afb3000c 00000028   57		sw	$19, 12($sp)

                                   Tue Apr 07 08:57:49 2015           Page 3
                                   Tue Apr 07 08:57:49 2015       gh_2i0a9.s
        afb00000 0000002c   58		sw	$16, 0($sp)
        00808025 00000030   59		move	$16, $4
        afb10004 00000034   60		sw	$17, 4($sp)
        00a08825 00000038   61		move	$17, $5
        afb20008 0000003c   62		sw	$18, 8($sp)
        00c09025 00000040   63		move	$18, $6
                            64	 #	    .bf
        0c000000 00000044   65		jal	GUI_MEASDEV_Create
        00e09825 00000048   66		move	$19, $7
        0040a025 0000004c   67		move	$20, $2
        1680000b 00000050   68		bne	$20, $0, .L42
        34150001 00000054   69		ori	$21, $0, 1
        8fb50014 00000058   70		lw	$21, 20($sp)
        8fb40010 0000005c   71		lw	$20, 16($sp)
        8fbf0024 00000060   72		lw	$ra, 36($sp)
        8fb00000 00000064   73		lw	$16, 0($sp)
        8fb10004 00000068   74		lw	$17, 4($sp)
        8fb20008 0000006c   75		lw	$18, 8($sp)
        8fb3000c 00000070   76		lw	$19, 12($sp)
        27bd0028 00000074   77		addiu	$sp, $sp, 40
        03e00008 00000078   78		jr	$ra
        34020001 0000007c   79		ori	$2, $0, 1
                            80	.L42:
        0c000000 00000080   81		jal	GUI_MEASDEV_Select
        02802025 00000084   82		move	$4, $20
        a2350001 00000088   83		sb	$21, 1($17)
        82180010 0000008c   84		lb	$24, 16($16)
        1300001d 00000090   85		beq	$24, $0, .L45
        00000000 00000094   86		nop
        a2350000 00000098   87		sb	$21, 0($17)
        0240f809 0000009c   88		jalr	$18
        02602025 000000a0   89		move	$4, $19
        02802025 000000a4   90		move	$4, $20
        0c000000 000000a8   91		jal	GUI_MEASDEV_GetRect
        02002825 000000ac   92		move	$5, $16
        0c000000 000000b0   93		jal	GUI_MEASDEV_ClearRect
        02802025 000000b4   94		move	$4, $20
        a2200000 000000b8   95		sb	$0, 0($17)
        0240f809 000000bc   96		jalr	$18
        02602025 000000c0   97		move	$4, $19
        02802025 000000c4   98		move	$4, $20
        0c000000 000000c8   99		jal	GUI_MEASDEV_GetRect
        26050008 000000cc  100		addiu	$5, $16, 8
        0c000000 000000d0  101		jal	GUI_MEASDEV_Delete
        02802025 000000d4  102		move	$4, $20
        a2200001 000000d8  103		sb	$0, 1($17)
        a2350000 000000dc  104		sb	$21, 0($17)
        02002025 000000e0  105		move	$4, $16
        02402825 000000e4  106		move	$5, $18
        02603025 000000e8  107		move	$6, $19
        34070000 000000ec  108		ori	$7, $0, 0
        0c000000 000000f0  109		jal	GUI_MEMDEV_Draw
        34080001 000000f4  110		ori	$8, $0, 1
        50400032 000000f8  111		beql	$2, $0, .L1000048
        a2200000 000000fc  112		sb	$0, 0($17)
        08000000 00000100  113		j	.L1000049

                                   Tue Apr 07 08:57:49 2015           Page 4
                                   Tue Apr 07 08:57:49 2015       gh_2i0a9.s
        8fb50014 00000104  114		lw	$21, 20($sp)
                           115	.L45:
        0240f809 00000108  116		jalr	$18
        02602025 0000010c  117		move	$4, $19
        02802025 00000110  118		move	$4, $20
        0c000000 00000114  119		jal	GUI_MEASDEV_GetRect
        02002825 00000118  120		move	$5, $16
        86030000 0000011c  121		lh	$3, 0($16)
        86020002 00000120  122		lh	$2, 2($16)
        86190004 00000124  123		lh	$25, 4($16)
        86180006 00000128  124		lh	$24, 6($16)
        a7a30018 0000012c  125		sh	$3, 24($sp)
        a7a2001a 00000130  126		sh	$2, 26($sp)
        a7b9001c 00000134  127		sh	$25, 28($sp)
        a7b8001e 00000138  128		sh	$24, 30($sp)
        02002025 0000013c  129		move	$4, $16
        02002825 00000140  130		move	$5, $16
        0c000000 00000144  131		jal	GUI_MergeRect
        26060008 00000148  132		addiu	$6, $16, 8
        87a30018 0000014c  133		lh	$3, 24($sp)
        87a2001a 00000150  134		lh	$2, 26($sp)
        87af001c 00000154  135		lh	$15, 28($sp)
        87b9001e 00000158  136		lh	$25, 30($sp)
        a6030008 0000015c  137		sh	$3, 8($16)
        a602000a 00000160  138		sh	$2, 10($16)
        a60f000c 00000164  139		sh	$15, 12($16)
        a619000e 00000168  140		sh	$25, 14($16)
        0c000000 0000016c  141		jal	GUI_MEASDEV_Delete
        02802025 00000170  142		move	$4, $20
        a2200001 00000174  143		sb	$0, 1($17)
        a2350000 00000178  144		sb	$21, 0($17)
        02002025 0000017c  145		move	$4, $16
        02402825 00000180  146		move	$5, $18
        02603025 00000184  147		move	$6, $19
        34070000 00000188  148		ori	$7, $0, 0
        0c000000 0000018c  149		jal	GUI_MEMDEV_Draw
        34080001 00000190  150		ori	$8, $0, 1
        5040000b 00000194  151		beql	$2, $0, .L1000048
        a2200000 00000198  152		sb	$0, 0($17)
        8fb50014 0000019c  153		lw	$21, 20($sp)
                           154	.L1000049:
        8fb40010 000001a0  155		lw	$20, 16($sp)
        8fbf0024 000001a4  156		lw	$ra, 36($sp)
        8fb00000 000001a8  157		lw	$16, 0($sp)
        8fb10004 000001ac  158		lw	$17, 4($sp)
        8fb20008 000001b0  159		lw	$18, 8($sp)
        8fb3000c 000001b4  160		lw	$19, 12($sp)
        27bd0028 000001b8  161		addiu	$sp, $sp, 40
        03e00008 000001bc  162		jr	$ra
        34020001 000001c0  163		ori	$2, $0, 1
                           164	.L1000048:
        a2000010 000001c4  165		sb	$0, 16($16)
                           166	 #	    .ef
        8fb50014 000001c8  167		lw	$21, 20($sp)
        8fb40010 000001cc  168		lw	$20, 16($sp)
        8fbf0024 000001d0  169		lw	$ra, 36($sp)

                                   Tue Apr 07 08:57:49 2015           Page 5
                                   Tue Apr 07 08:57:49 2015       gh_2i0a9.s
        8fb00000 000001d4  170		lw	$16, 0($sp)
        8fb10004 000001d8  171		lw	$17, 4($sp)
        8fb20008 000001dc  172		lw	$18, 8($sp)
        8fb3000c 000001e0  173		lw	$19, 12($sp)
        27bd0028 000001e4  174		addiu	$sp, $sp, 40
        03e00008 000001e8  175		jr	$ra
        34020000 000001ec  176		ori	$2, $0, 0
                           177		.type	GUI_MEMDEV_DrawAuto,@function
                           178		.size	GUI_MEMDEV_DrawAuto,.-GUI_MEMDEV_DrawAuto
                           179		.align	4
                           180	 #rTemp	24($sp)	local
                           181	 #hMem	$20	local
                           182	
                           183	 #pAutoDev	$16	param
                           184	 #pAutoDevInfo	$17	param
                           185	 #pfDraw	$18	param
                           186	 #pData	$19	param
                           187	
                           188		.data
                           189	.L83:
                           190		.text
                           191		.align	4
                           192	
                           193		.data
                           194		.text
