
                                   Tue Apr 07 08:57:48 2015           Page 1
                                   Tue Apr 07 08:57:47 2015       gh_2i0a8.s
Command Line:   C:\GHS\V35\mips35\asmips.exe -noundefined -elf -b0
                -IC:\local\Workspace\DC_V04.01.00_int\cu3x1Platform_SRC\emWinColour
                -IC:\local\Workspace\DC_V04.01.00_int\cu3x1Platform_SRC\platform\include
                -IC:\local\Workspace\DC_V04.01.00_int\cu3x1Platform_SRC\platform\common
                -IC:\local\Workspace\DC_V04.01.00_int\cu3x1Platform_SRC\platform\hardware
                -IC:\local\Workspace\DC_V04.01.00_int\cu3x1Platform_SRC\platform\hardware\D3018X
                -IC:\local\Workspace\DC_V04.01.00_int\cu3x1Platform_SRC\embos\inc
                -IC:\local\Workspace\DC_V04.01.00_int\cu3x1Platform_SRC\emWinColour\config
                -IC:\local\Workspace\DC_V04.01.00_int\cu3x1Platform_SRC\emWinColour\gui\ConvertMono
                -IC:\local\Workspace\DC_V04.01.00_int\cu3x1Platform_SRC\emWinColour\gui\Core
                -IC:\local\Workspace\DC_V04.01.00_int\cu3x1Platform_SRC\emWinColour\gui\Font
                -IC:\local\Workspace\DC_V04.01.00_int\cu3x1Platform_SRC\emWinColour\gui\LCDDriver
                -IC:\local\Workspace\DC_V04.01.00_int\cu3x1Platform_SRC\emWinColour\gui\MemDev
                -IC:\local\Workspace\DC_V04.01.00_int\cu3x1Platform_SRC\emWinColour\gui\VNC
                -IC:\local\Workspace\DC_V04.01.00_int\cu3x1Platform_SRC\emWinColour\gui\Widget
                -IC:\local\Workspace\DC_V04.01.00_int\cu3x1Platform_SRC\emWinColour\gui\wm
                -IC:\local\Workspace\DC_V04.01.00_int\cu3x1App_SRC\Control\source
                -IC:\local\Workspace\DC_V04.01.00_int\cu3x1App_SRC\Control\source\include
                -IC:\local\Workspace\DC_V04.01.00_int\cu3x1App_SRC\Control\source\util
                -IC:\local\Workspace\DC_V04.01.00_int\cu3x1App_SRC\Control\source\datapoint
                -IC:\local\Workspace\DC_V04.01.00_int\cu3x1App_SRC\Control\source\factory
                -IC:\local\Workspace\DC_V04.01.00_int\cu3x1Platform_SRC\embos
                -IC:\local\Workspace\DC_V04.01.00_int\cu3x1Platform_SRC\emWinColour\gui\core
                -IC:\local\Workspace\DC_V04.01.00_int\cu3x1App_SRC\Control\source\rtip\webpage
                -IC:\local\Workspace\DC_V04.01.00_int\cu3x1App_SRC\Control\source\rtip\config
                -IC:\local\Workspace\DC_V04.01.00_int\cu3x1App_SRC\Control\source\rtip\xnet
                -IC:\local\Workspace\DC_V04.01.00_int\cu3x1App_SRC\Control\source\stub
                -IC:\local\Workspace\DC_V04.01.00_int\cu3x1App_SRC\Control\source\test
                -IC:\local\Workspace\DC_V04.01.00_int\cu3x1App_SRC\Control\source\GENIpro
                -IC:\local\Workspace\DC_V04.01.00_int\cu3x1App_SRC\Control\source\GENIpro\GENI_sys
                -IC:\local\Workspace\DC_V04.01.00_int\cu3x1App_SRC\Control\source\GENIpro\GENIusb\emUSB\USB\Driver
                -IC:\local\Workspace\DC_V04.01.00_int\cu3x1App_SRC\Control\source\application\intercom
                -IC:\local\Workspace\DC_V04.01.00_int\cu3x1App_SRC\Control\source\application\controller
                -IC:\local\Workspace\DC_V04.01.00_int\cu3x1App_SRC\Control\source\application\driver
                -IC:\local\Workspace\DC_V04.01.00_int\cu3x1App_SRC\Control\source\application\webif
                -IC:\local\Workspace\DC_V04.01.00_int\cu3x1App_SRC\Control\source\application\relay
                -IC:\local\Workspace\DC_V04.01.00_int\cu3x1App_SRC\Control\source\application\GENIApp
                -IC:\local\Workspace\DC_V04.01.00_int\cu3x1App_SRC\Control\source\application\alarm
                -IC:\local\Workspace\DC_V04.01.00_int\cu3x1App_SRC\Control\source\application\config
                -IC:\local\Workspace\DC_V04.01.00_int\cu3x1App_SRC\Control\source\application\AnaInConfigCtrl
                -IC:\local\Workspace\DC_V04.01.00_int\cu3x1App_SRC\Control\source\application\Sms
                -IC:\local\Workspace\DC_V04.01.00_int\cu3x1App_SRC\Control\source\application\display
                -IC:\local\Workspace\DC_V04.01.00_int\cu3x1App_SRC\Control\source\application\display\display_task
                -IC:\local\Workspace\DC_V04.01.00_int\cu3x1App_SRC\Control\source\application\display\gui_utility
                -IC:\local\Workspace\DC_V04.01.00_int\cu3x1App_SRC\Control\source\application\display\mpcunit
                -IC:\local\Workspace\DC_V04.01.00_int\cu3x1App_SRC\Control\source\GeniPro
                -IC:\local\Workspace\DC_V04.01.00_int\cu3x1App_SRC\Control\source\GeniPro\GENI_sys
                -IC:\local\Workspace\DC_V04.01.00_int\cu3x1App_SRC\Control\source\GeniPro\GENIbus
                -IC:\local\Workspace\DC_V04.01.00_int\cu3x1App_SRC\Control\source\GeniPro\GENIcom
                -IC:\local\Workspace\DC_V04.01.00_int\cu3x1App_SRC\Control\source\GeniPro\GENIrs232
                -IC:\local\Workspace\DC_V04.01.00_int\cu3x1App_SRC\Control\source\GeniPro\Virtual
                -IC:\local\Workspace\DC_V04.01.00_int\cu3x1Platform_SRC\Platform\common
                -IC:\local\Workspace\DC_V04.01.00_int\cu3x1Platform_SRC\Platform\hardware
                -IC:\local\Workspace\DC_V04.01.00_int\cu3x1Platform_SRC\Platform\hardware\D3018X
                -IC:\local\Workspace\DC_V04.01.00_int\cu3x1App_SRC\Control\source\application\display\imagesTFT
                -IC:\GHS\V35\mips35\mipsl_sf -r4121 -source=GUIDEV_8.c -o
                objs\gh_2i0a8.o -list=objs\GUIDEV_8.lst
                C:\Users\55602\AppData\Local\Temp\gh_2i0a8.s
Source File:    C:\Users\55602\AppData\Local\Temp\gh_2i0a8.s
Directory:      C:\local\Workspace\DC_V04.01.00_int\cu3x1App_SRC\Control\source
Host OS:        GHS_WIN32
Version:        AS-MIPS 3.5#11 
Release:        MULTI 2000, MIPS v3.5
Revision Date:  Wed Feb 27 12:19:03 2002
Release Date:   Sat Mar 02 02:57:59 2002
                             1	 #Source File:   C:\local\Workspace\DC_V04.01.00_int\cu3x1Platform_SRC\emWinColour\GUI\MemDev\GUIDEV_8.c

                                   Tue Apr 07 08:57:48 2015           Page 2
                                   Tue Apr 07 08:57:47 2015       gh_2i0a8.s
                             2	 #Directory:     
                             3	 #		C:\local\Workspace\DC_V04.01.00_int\cu3x1App_SRC\Control\source
                             4	 #Compile Date:  Tue Apr 07 08:57:47 2015
                             5	 #Host OS:       Win32
                             6	 #Version:       C-MIPS 3.5#11 RELEASE VERSION
                             7	 #Release:       MULTI 2000, MIPS v3.5
                             8	 #Revision Date: Fri Mar 01 11:32:40 2002
                             9	 #Release Date:  Sat Mar 02 02:58:48 2002
                            10		.set	noat
                            11		.set	noreorder
                            12		.set	nomacro
                            13		.text
                            14		.align	4
                            15	_XY2PTR:
        27bdfff0 00000000   16		addiu	$sp, $sp, -16
                            17	 #	    .bf
        afbf000c 00000004   18		sw	$ra, 12($sp)
        afb00000 00000008   19		sw	$16, 0($sp)
        00808025 0000000c   20		move	$16, $4
        afb10004 00000010   21		sw	$17, 4($sp)
        00a08825 00000014   22		move	$17, $5
        3c010000 00000018   23		lui	$1, %hi(GUI_Context+80)
        0c000000 0000001c   24		jal	GUI_ALLOC_h2p
        84240000 00000020   25		lh	$4, %lo(GUI_Context+80)($1)
        84580002 00000024   26		lh	$24, 2($2)
                            27	 #	    .ef
        8c4e000c 00000028   28		lw	$14, 12($2)
        2443002c 0000002c   29		addiu	$3, $2, 44
        0238c823 00000030   30		subu	$25, $17, $24
        00600013 00000034   31		mtlo	$3
        032e1828 00000038   32		macc	$3, $25, $14
        8fb10004 0000003c   33		lw	$17, 4($sp)
        8fbf000c 00000040   34		lw	$ra, 12($sp)
        84590000 00000044   35		lh	$25, 0($2)
        00706821 00000048   36		addu	$13, $3, $16
        8fb00000 0000004c   37		lw	$16, 0($sp)
        27bd0010 00000050   38		addiu	$sp, $sp, 16
        03e00008 00000054   39		jr	$ra
        01b91023 00000058   40		subu	$2, $13, $25
                            41		.type	_XY2PTR,@function
                            42		.size	_XY2PTR,.-_XY2PTR
                            43		.align	4
                            44	 #pData	$3	local
                            45	
                            46	 #x	$16	param
                            47	 #y	$17	param
                            48	
                            49		.data
                            50	.L422:
                            51		.section ".rodata","a"
                            52	.L423:
            0000 00000000   53	aID:	.space	2
        00020001 00000002   54		.byte	1,0,2,0
        00040003 00000006   55		.byte	3,0,4,0
        00060005 0000000a   56		.byte	5,0,6,0
        00080007 0000000e   57		.byte	7,0,8,0

                                   Tue Apr 07 08:57:48 2015           Page 3
                                   Tue Apr 07 08:57:47 2015       gh_2i0a8.s
        000a0009 00000012   58		.byte	9,0,10,0
        000c000b 00000016   59		.byte	11,0,12,0
        000e000d 0000001a   60		.byte	13,0,14,0
                            61		.type	aID,@object
                            62		.size	aID,32
            000f 0000001e   63		.byte	15,0
                            64		.data
                            65		.text
                            66		.align	4
                            67		.align	4
                            68	_DrawBitmap:
        27bdfef0 0000005c   69		addiu	$sp, $sp, -272
                            70	 #	    .bf
        afbf010c 00000060   71		sw	$ra, 268($sp)
        afb00000 00000064   72		sw	$16, 0($sp)
        00808025 00000068   73		move	$16, $4
        afb10004 0000006c   74		sw	$17, 4($sp)
        00a08825 00000070   75		move	$17, $5
        afb20008 00000074   76		sw	$18, 8($sp)
        00c09025 00000078   77		move	$18, $6
        afb3000c 0000007c   78		sw	$19, 12($sp)
        00e09825 00000080   79		move	$19, $7
        afb40010 00000084   80		sw	$20, 16($sp)
        0100a025 00000088   81		move	$20, $8
        afb50014 0000008c   82		sw	$21, 20($sp)
        0120a825 00000090   83		move	$21, $9
        afb60018 00000094   84		sw	$22, 24($sp)
        0140b025 00000098   85		move	$22, $10
        afb7001c 0000009c   86		sw	$23, 28($sp)
        0160b825 000000a0   87		move	$23, $11
        afbe0020 000000a4   88		sw	$fp, 32($sp)
        8fbe0110 000000a8   89		lw	$fp, 272($sp)
        3c0c0000 000000ac   90		lui	$12, %hi(GUI_Context)
        258c0000 000000b0   91		addiu	$12, $12, %lo(GUI_Context)
        afac00d8 000000b4   92		sw	$12, 216($sp)
        0c000000 000000b8   93		jal	GUI_ALLOC_h2p
        85840050 000000bc   94		lh	$4, 80($12)
        afa200cc 000000c0   95		sw	$2, 204($sp)
        84420018 000000c4   96		lh	$2, 24($2)
        34030000 000000c8   97		ori	$3, $0, 0
        50400005 000000cc   98		beql	$2, $0, .L1000430
        8fac00cc 000000d0   99		lw	$12, 204($sp)
        0c000000 000000d4  100		jal	GUI_ALLOC_h2p
        00402025 000000d8  101		move	$4, $2
        00401825 000000dc  102		move	$3, $2
        8fac00cc 000000e0  103		lw	$12, 204($sp)
                           104	.L1000430:
        02178021 000000e4  105		addu	$16, $16, $23
        8d8c000c 000000e8  106		lw	$12, 12($12)
        afa30104 000000ec  107		sw	$3, 260($sp)
        1060000b 000000f0  108		beq	$3, $0, .L432
        afac00a0 000000f4  109		sw	$12, 160($sp)
        8fae00d8 000000f8  110		lw	$14, 216($sp)
        91ce0010 000000fc  111		lbu	$14, 16($14)
        31cf0002 00000100  112		andi	$15, $14, 2
        15e00006 00000104  113		bne	$15, $0, .L432

                                   Tue Apr 07 08:57:48 2015           Page 4
                                   Tue Apr 07 08:57:47 2015       gh_2i0a8.s
        00602025 00000108  114		move	$4, $3
        02002825 0000010c  115		move	$5, $16
        02203025 00000110  116		move	$6, $17
        02403825 00000114  117		move	$7, $18
        0c000000 00000118  118		jal	GUI_USAGE_AddRect
        02604025 0000011c  119		move	$8, $19
                           120	.L432:
        02002025 00000120  121		move	$4, $16
        0c000000 00000124  122		jal	_XY2PTR
        02202825 00000128  123		move	$5, $17
        34190008 0000012c  124		ori	$25, $0, 8
        16990197 00000130  125		bne	$20, $25, .L436
        afa20060 00000134  126		sw	$2, 96($sp)
        34010000 00000138  127		ori	$1, $0, 0
        afa000d0 0000013c  128		sw	$0, 208($sp)
        0033c02a 00000140  129		slt	$24, $1, $19
        13000002 00000144  130		beq	$24, $0, .L1881
        afa000b4 00000148  131		sw	$0, 180($sp)
        afb300d0 0000014c  132		sw	$19, 208($sp)
                           133	.L1881:
        8fa100d0 00000150  134		lw	$1, 208($sp)
        00016042 00000154  135		srl	$12, $1, 1
        01800825 00000158  136		move	$1, $12
        118000fb 0000015c  137		beq	$12, $0, .L1375
        afac006c 00000160  138		sw	$12, 108($sp)
        8fac00d8 00000164  139		lw	$12, 216($sp)
        afac00a8 00000168  140		sw	$12, 168($sp)
        8fac0104 0000016c  141		lw	$12, 260($sp)
        000c602b 00000170  142		sltu	$12, $0, $12
        afac00ac 00000174  143		sw	$12, 172($sp)
        262c0001 00000178  144		addiu	$12, $17, 1
        afac0070 0000017c  145		sw	$12, 112($sp)
        2fcc0001 00000180  146		sltiu	$12, $fp, 1
        afac00c8 00000184  147		sw	$12, 200($sp)
        00016040 00000188  148		sll	$12, $1, 1
        afac00b4 0000018c  149		sw	$12, 180($sp)
                           150	.L1376:
        8fa100c8 00000190  151		lw	$1, 200($sp)
        14200039 00000194  152		bne	$1, $0, .L1001385
        8fa10070 00000198  153		lw	$1, 112($sp)
        8fad00a8 0000019c  154		lw	$13, 168($sp)
        02c09825 000001a0  155		move	$19, $22
        242cffff 000001a4  156		addiu	$12, $1, -1
        afac00e8 000001a8  157		sw	$12, 232($sp)
        8fac00ac 000001ac  158		lw	$12, 172($sp)
        0240a025 000001b0  159		move	$20, $18
        91ad0010 000001b4  160		lbu	$13, 16($13)
        afac0088 000001b8  161		sw	$12, 136($sp)
        afbe005c 000001bc  162		sw	$fp, 92($sp)
        8fb70060 000001c0  163		lw	$23, 96($sp)
        31a30003 000001c4  164		andi	$3, $13, 3
        10600006 000001c8  165		beq	$3, $0, .L1378
        afb000f8 000001cc  166		sw	$16, 248($sp)
        2463fffe 000001d0  167		addiu	$3, $3, -2
        50600010 000001d4  168		beql	$3, $0, .L1001380
        92630000 000001d8  169		lbu	$3, 0($19)

                                   Tue Apr 07 08:57:48 2015           Page 5
                                   Tue Apr 07 08:57:47 2015       gh_2i0a8.s
        08000000 000001dc  170		j	.L1001394
        8fa10060 000001e0  171		lw	$1, 96($sp)
                           172	.L1378:
        26730001 000001e4  173		addiu	$19, $19, 1
        926fffff 000001e8  174		lbu	$15, -1($19)
        8fa1005c 000001ec  175		lw	$1, 92($sp)
        26f70001 000001f0  176		addiu	$23, $23, 1
        000f7840 000001f4  177		sll	$15, $15, 1
        002f7021 000001f8  178		addu	$14, $1, $15
        95cd0000 000001fc  179		lhu	$13, 0($14)
        2694ffff 00000200  180		addiu	$20, $20, -1
        1680fff7 00000204  181		bne	$20, $0, .L1378
        a2edffff 00000208  182		sb	$13, -1($23)
        08000000 0000020c  183		j	.L1001394
        8fa10060 00000210  184		lw	$1, 96($sp)
                           185	.L1380:
        92630000 00000214  186		lbu	$3, 0($19)
                           187	.L1001380:
        50600010 00000218  188		beql	$3, $0, .L1001383
        8fa100f8 0000021c  189		lw	$1, 248($sp)
        8fa1005c 00000220  190		lw	$1, 92($sp)
        00037840 00000224  191		sll	$15, $3, 1
        002f7021 00000228  192		addu	$14, $1, $15
        95cd0000 0000022c  193		lhu	$13, 0($14)
        8fa10088 00000230  194		lw	$1, 136($sp)
        a2ed0000 00000234  195		sb	$13, 0($23)
        50200008 00000238  196		beql	$1, $0, .L1001383
        8fa100f8 0000023c  197		lw	$1, 248($sp)
        8fa40104 00000240  198		lw	$4, 260($sp)
        8c980008 00000244  199		lw	$24, 8($4)
        8f180000 00000248  200		lw	$24, 0($24)
        8fa500f8 0000024c  201		lw	$5, 248($sp)
        0300f809 00000250  202		jalr	$24
        8fa600e8 00000254  203		lw	$6, 232($sp)
        8fa100f8 00000258  204		lw	$1, 248($sp)
                           205	.L1001383:
        26730001 0000025c  206		addiu	$19, $19, 1
        26f70001 00000260  207		addiu	$23, $23, 1
        242c0001 00000264  208		addiu	$12, $1, 1
        2694ffff 00000268  209		addiu	$20, $20, -1
        1680ffe9 0000026c  210		bne	$20, $0, .L1380
        afac00f8 00000270  211		sw	$12, 248($sp)
        08000000 00000274  212		j	.L1001394
        8fa10060 00000278  213		lw	$1, 96($sp)
                           214	.L1001385:
        8fae00a8 0000027c  215		lw	$14, 168($sp)
        02c09825 00000280  216		move	$19, $22
        242cffff 00000284  217		addiu	$12, $1, -1
        afac00e4 00000288  218		sw	$12, 228($sp)
        8fac00ac 0000028c  219		lw	$12, 172($sp)
        91ce0010 00000290  220		lbu	$14, 16($14)
        0240a025 00000294  221		move	$20, $18
        afac0084 00000298  222		sw	$12, 132($sp)
        8fb70060 0000029c  223		lw	$23, 96($sp)
        31c30003 000002a0  224		andi	$3, $14, 3
        10600006 000002a4  225		beq	$3, $0, .L1386

                                   Tue Apr 07 08:57:48 2015           Page 6
                                   Tue Apr 07 08:57:47 2015       gh_2i0a8.s
        afb000f4 000002a8  226		sw	$16, 244($sp)
        2463fffe 000002ac  227		addiu	$3, $3, -2
        50600012 000002b0  228		beql	$3, $0, .L1001387
        92630000 000002b4  229		lbu	$3, 0($19)
        08000000 000002b8  230		j	.L1001394
        8fa10060 000002bc  231		lw	$1, 96($sp)
                           232	.L1386:
        02e02025 000002c0  233		move	$4, $23
        02602825 000002c4  234		move	$5, $19
        0c000000 000002c8  235		jal	memcpy
        02803025 000002cc  236		move	$6, $20
        8fa10060 000002d0  237		lw	$1, 96($sp)
        8fac00a0 000002d4  238		lw	$12, 160($sp)
        002c6021 000002d8  239		addu	$12, $1, $12
        8fa100c8 000002dc  240		lw	$1, 200($sp)
        afac0060 000002e0  241		sw	$12, 96($sp)
        02d5b021 000002e4  242		addu	$22, $22, $21
        54200056 000002e8  243		bnel	$1, $0, .L1001403
        8fac0070 000002ec  244		lw	$12, 112($sp)
        08000000 000002f0  245		j	.L1001395
        8fac0070 000002f4  246		lw	$12, 112($sp)
                           247	.L1387:
        92630000 000002f8  248		lbu	$3, 0($19)
                           249	.L1001387:
        5060000c 000002fc  250		beql	$3, $0, .L1001390
        8fa100f4 00000300  251		lw	$1, 244($sp)
        8fa10084 00000304  252		lw	$1, 132($sp)
        a2e30000 00000308  253		sb	$3, 0($23)
        50200008 0000030c  254		beql	$1, $0, .L1001390
        8fa100f4 00000310  255		lw	$1, 244($sp)
        8fa40104 00000314  256		lw	$4, 260($sp)
        8c8e0008 00000318  257		lw	$14, 8($4)
        8dce0000 0000031c  258		lw	$14, 0($14)
        8fa500f4 00000320  259		lw	$5, 244($sp)
        01c0f809 00000324  260		jalr	$14
        8fa600e4 00000328  261		lw	$6, 228($sp)
        8fa100f4 0000032c  262		lw	$1, 244($sp)
                           263	.L1001390:
        26730001 00000330  264		addiu	$19, $19, 1
        26f70001 00000334  265		addiu	$23, $23, 1
        242c0001 00000338  266		addiu	$12, $1, 1
        2694ffff 0000033c  267		addiu	$20, $20, -1
        1680ffed 00000340  268		bne	$20, $0, .L1387
        afac00f4 00000344  269		sw	$12, 244($sp)
        8fa10060 00000348  270		lw	$1, 96($sp)
                           271	.L1001394:
        8fac00a0 0000034c  272		lw	$12, 160($sp)
        002c6021 00000350  273		addu	$12, $1, $12
        8fa100c8 00000354  274		lw	$1, 200($sp)
        afac0060 00000358  275		sw	$12, 96($sp)
        02d5b021 0000035c  276		addu	$22, $22, $21
        14200038 00000360  277		bne	$1, $0, .L1001403
        8fac0070 00000364  278		lw	$12, 112($sp)
                           279	.L1001395:
        8fb800a8 00000368  280		lw	$24, 168($sp)
        02c09825 0000036c  281		move	$19, $22

                                   Tue Apr 07 08:57:48 2015           Page 7
                                   Tue Apr 07 08:57:47 2015       gh_2i0a8.s
        afac00e8 00000370  282		sw	$12, 232($sp)
        8fac00ac 00000374  283		lw	$12, 172($sp)
        0240a025 00000378  284		move	$20, $18
        93180010 0000037c  285		lbu	$24, 16($24)
        afac0080 00000380  286		sw	$12, 128($sp)
        afbe005c 00000384  287		sw	$fp, 92($sp)
        8fb70060 00000388  288		lw	$23, 96($sp)
        33030003 0000038c  289		andi	$3, $24, 3
        10600006 00000390  290		beq	$3, $0, .L1396
        afb000f8 00000394  291		sw	$16, 248($sp)
        2463fffe 00000398  292		addiu	$3, $3, -2
        50600010 0000039c  293		beql	$3, $0, .L1001398
        92630000 000003a0  294		lbu	$3, 0($19)
        08000000 000003a4  295		j	.L1001411
        8fa10060 000003a8  296		lw	$1, 96($sp)
                           297	.L1396:
        26730001 000003ac  298		addiu	$19, $19, 1
        926dffff 000003b0  299		lbu	$13, -1($19)
        8fa1005c 000003b4  300		lw	$1, 92($sp)
        26f70001 000003b8  301		addiu	$23, $23, 1
        000d6840 000003bc  302		sll	$13, $13, 1
        002dc821 000003c0  303		addu	$25, $1, $13
        97380000 000003c4  304		lhu	$24, 0($25)
        2694ffff 000003c8  305		addiu	$20, $20, -1
        1680fff7 000003cc  306		bne	$20, $0, .L1396
        a2f8ffff 000003d0  307		sb	$24, -1($23)
        08000000 000003d4  308		j	.L1001411
        8fa10060 000003d8  309		lw	$1, 96($sp)
                           310	.L1398:
        92630000 000003dc  311		lbu	$3, 0($19)
                           312	.L1001398:
        50600010 000003e0  313		beql	$3, $0, .L1001401
        8fa100f8 000003e4  314		lw	$1, 248($sp)
        8fa1005c 000003e8  315		lw	$1, 92($sp)
        00036840 000003ec  316		sll	$13, $3, 1
        002dc821 000003f0  317		addu	$25, $1, $13
        97380000 000003f4  318		lhu	$24, 0($25)
        8fa10080 000003f8  319		lw	$1, 128($sp)
        a2f80000 000003fc  320		sb	$24, 0($23)
        50200008 00000400  321		beql	$1, $0, .L1001401
        8fa100f8 00000404  322		lw	$1, 248($sp)
        8fa40104 00000408  323		lw	$4, 260($sp)
        8c8e0008 0000040c  324		lw	$14, 8($4)
        8dce0000 00000410  325		lw	$14, 0($14)
        8fa500f8 00000414  326		lw	$5, 248($sp)
        01c0f809 00000418  327		jalr	$14
        8fa600e8 0000041c  328		lw	$6, 232($sp)
        8fa100f8 00000420  329		lw	$1, 248($sp)
                           330	.L1001401:
        26730001 00000424  331		addiu	$19, $19, 1
        26f70001 00000428  332		addiu	$23, $23, 1
        242c0001 0000042c  333		addiu	$12, $1, 1
        2694ffff 00000430  334		addiu	$20, $20, -1
        1680ffe9 00000434  335		bne	$20, $0, .L1398
        afac00f8 00000438  336		sw	$12, 248($sp)
        08000000 0000043c  337		j	.L1001411

                                   Tue Apr 07 08:57:48 2015           Page 8
                                   Tue Apr 07 08:57:47 2015       gh_2i0a8.s
        8fa10060 00000440  338		lw	$1, 96($sp)
                           339	.L1001403:
        8fb900a8 00000444  340		lw	$25, 168($sp)
        02c09825 00000448  341		move	$19, $22
        afac00e4 0000044c  342		sw	$12, 228($sp)
        8fac00ac 00000450  343		lw	$12, 172($sp)
        93390010 00000454  344		lbu	$25, 16($25)
        0240a025 00000458  345		move	$20, $18
        afac007c 0000045c  346		sw	$12, 124($sp)
        8fb70060 00000460  347		lw	$23, 96($sp)
        33230003 00000464  348		andi	$3, $25, 3
        10600006 00000468  349		beq	$3, $0, .L1404
        afb000f4 0000046c  350		sw	$16, 244($sp)
        2463fffe 00000470  351		addiu	$3, $3, -2
        50600016 00000474  352		beql	$3, $0, .L1001405
        92630000 00000478  353		lbu	$3, 0($19)
        08000000 0000047c  354		j	.L1001411
        8fa10060 00000480  355		lw	$1, 96($sp)
                           356	.L1404:
        02e02025 00000484  357		move	$4, $23
        02602825 00000488  358		move	$5, $19
        0c000000 0000048c  359		jal	memcpy
        02803025 00000490  360		move	$6, $20
        8fa10060 00000494  361		lw	$1, 96($sp)
        8fac00a0 00000498  362		lw	$12, 160($sp)
        002c6021 0000049c  363		addu	$12, $1, $12
        8fa10070 000004a0  364		lw	$1, 112($sp)
        afac0060 000004a4  365		sw	$12, 96($sp)
        242c0002 000004a8  366		addiu	$12, $1, 2
        8fa1006c 000004ac  367		lw	$1, 108($sp)
        afac0070 000004b0  368		sw	$12, 112($sp)
        02d5b021 000004b4  369		addu	$22, $22, $21
        242cffff 000004b8  370		addiu	$12, $1, -1
        1580ff34 000004bc  371		bne	$12, $0, .L1376
        afac006c 000004c0  372		sw	$12, 108($sp)
        08000000 000004c4  373		j	.L1001375
        8fa100d0 000004c8  374		lw	$1, 208($sp)
                           375	.L1405:
        92630000 000004cc  376		lbu	$3, 0($19)
                           377	.L1001405:
        5060000c 000004d0  378		beql	$3, $0, .L1001408
        8fa100f4 000004d4  379		lw	$1, 244($sp)
        8fa1007c 000004d8  380		lw	$1, 124($sp)
        a2e30000 000004dc  381		sb	$3, 0($23)
        50200008 000004e0  382		beql	$1, $0, .L1001408
        8fa100f4 000004e4  383		lw	$1, 244($sp)
        8fa40104 000004e8  384		lw	$4, 260($sp)
        8c990008 000004ec  385		lw	$25, 8($4)
        8f390000 000004f0  386		lw	$25, 0($25)
        8fa500f4 000004f4  387		lw	$5, 244($sp)
        0320f809 000004f8  388		jalr	$25
        8fa600e4 000004fc  389		lw	$6, 228($sp)
        8fa100f4 00000500  390		lw	$1, 244($sp)
                           391	.L1001408:
        26730001 00000504  392		addiu	$19, $19, 1
        26f70001 00000508  393		addiu	$23, $23, 1

                                   Tue Apr 07 08:57:48 2015           Page 9
                                   Tue Apr 07 08:57:47 2015       gh_2i0a8.s
        242c0001 0000050c  394		addiu	$12, $1, 1
        2694ffff 00000510  395		addiu	$20, $20, -1
        1680ffed 00000514  396		bne	$20, $0, .L1405
        afac00f4 00000518  397		sw	$12, 244($sp)
        8fa10060 0000051c  398		lw	$1, 96($sp)
                           399	.L1001411:
        8fac00a0 00000520  400		lw	$12, 160($sp)
        002c6021 00000524  401		addu	$12, $1, $12
        8fa10070 00000528  402		lw	$1, 112($sp)
        afac0060 0000052c  403		sw	$12, 96($sp)
        242c0002 00000530  404		addiu	$12, $1, 2
        8fa1006c 00000534  405		lw	$1, 108($sp)
        afac0070 00000538  406		sw	$12, 112($sp)
        02d5b021 0000053c  407		addu	$22, $22, $21
        242cffff 00000540  408		addiu	$12, $1, -1
        1580ff12 00000544  409		bne	$12, $0, .L1376
        afac006c 00000548  410		sw	$12, 108($sp)
                           411	.L1375:
        8fa100d0 0000054c  412		lw	$1, 208($sp)
                           413	.L1001375:
        302c0001 00000550  414		andi	$12, $1, 1
        1180045a 00000554  415		beq	$12, $0, .L428
        afac006c 00000558  416		sw	$12, 108($sp)
        3c0c0000 0000055c  417		lui	$12, %hi(GUI_Context)
        258c0000 00000560  418		addiu	$12, $12, %lo(GUI_Context)
        afac00c0 00000564  419		sw	$12, 192($sp)
        8fac0104 00000568  420		lw	$12, 260($sp)
        8fa100b4 0000056c  421		lw	$1, 180($sp)
        000c602b 00000570  422		sltu	$12, $0, $12
        afac00c4 00000574  423		sw	$12, 196($sp)
        2fcc0001 00000578  424		sltiu	$12, $fp, 1
        afac00d4 0000057c  425		sw	$12, 212($sp)
        00316021 00000580  426		addu	$12, $1, $17
        afac00a4 00000584  427		sw	$12, 164($sp)
                           428	.L1414:
        8fa100d4 00000588  429		lw	$1, 212($sp)
        14200035 0000058c  430		bne	$1, $0, .L1001423
        8fac00a4 00000590  431		lw	$12, 164($sp)
        8fb100c4 00000594  432		lw	$17, 196($sp)
        8fb900c0 00000598  433		lw	$25, 192($sp)
        afac00e8 0000059c  434		sw	$12, 232($sp)
        02c09825 000005a0  435		move	$19, $22
        0240a025 000005a4  436		move	$20, $18
        93390010 000005a8  437		lbu	$25, 16($25)
        afbe005c 000005ac  438		sw	$fp, 92($sp)
        8fb70060 000005b0  439		lw	$23, 96($sp)
        33230003 000005b4  440		andi	$3, $25, 3
        10600006 000005b8  441		beq	$3, $0, .L1416
        afb000f8 000005bc  442		sw	$16, 248($sp)
        2463fffe 000005c0  443		addiu	$3, $3, -2
        50600010 000005c4  444		beql	$3, $0, .L1001418
        92630000 000005c8  445		lbu	$3, 0($19)
        08000000 000005cc  446		j	.L1001431
        8fa10060 000005d0  447		lw	$1, 96($sp)
                           448	.L1416:
        26730001 000005d4  449		addiu	$19, $19, 1

                                   Tue Apr 07 08:57:48 2015           Page 10
                                   Tue Apr 07 08:57:47 2015       gh_2i0a8.s
        926effff 000005d8  450		lbu	$14, -1($19)
        8fa1005c 000005dc  451		lw	$1, 92($sp)
        26f70001 000005e0  452		addiu	$23, $23, 1
        000e7040 000005e4  453		sll	$14, $14, 1
        002e6821 000005e8  454		addu	$13, $1, $14
        95b90000 000005ec  455		lhu	$25, 0($13)
        2694ffff 000005f0  456		addiu	$20, $20, -1
        1680fff7 000005f4  457		bne	$20, $0, .L1416
        a2f9ffff 000005f8  458		sb	$25, -1($23)
        08000000 000005fc  459		j	.L1001431
        8fa10060 00000600  460		lw	$1, 96($sp)
                           461	.L1418:
        92630000 00000604  462		lbu	$3, 0($19)
                           463	.L1001418:
        5060000e 00000608  464		beql	$3, $0, .L1001421
        8fa100f8 0000060c  465		lw	$1, 248($sp)
        8fa1005c 00000610  466		lw	$1, 92($sp)
        00037040 00000614  467		sll	$14, $3, 1
        002e6821 00000618  468		addu	$13, $1, $14
        95b90000 0000061c  469		lhu	$25, 0($13)
        12200007 00000620  470		beq	$17, $0, .L1421
        a2f90000 00000624  471		sb	$25, 0($23)
        8fa40104 00000628  472		lw	$4, 260($sp)
        8c8f0008 0000062c  473		lw	$15, 8($4)
        8def0000 00000630  474		lw	$15, 0($15)
        8fa500f8 00000634  475		lw	$5, 248($sp)
        01e0f809 00000638  476		jalr	$15
        8fa600e8 0000063c  477		lw	$6, 232($sp)
                           478	.L1421:
        8fa100f8 00000640  479		lw	$1, 248($sp)
                           480	.L1001421:
        26730001 00000644  481		addiu	$19, $19, 1
        26f70001 00000648  482		addiu	$23, $23, 1
        242c0001 0000064c  483		addiu	$12, $1, 1
        2694ffff 00000650  484		addiu	$20, $20, -1
        1680ffeb 00000654  485		bne	$20, $0, .L1418
        afac00f8 00000658  486		sw	$12, 248($sp)
        08000000 0000065c  487		j	.L1001431
        8fa10060 00000660  488		lw	$1, 96($sp)
                           489	.L1001423:
        8fb100c4 00000664  490		lw	$17, 196($sp)
        8fad00c0 00000668  491		lw	$13, 192($sp)
        afac00e4 0000066c  492		sw	$12, 228($sp)
        02c09825 00000670  493		move	$19, $22
        91ad0010 00000674  494		lbu	$13, 16($13)
        0240a025 00000678  495		move	$20, $18
        8fb70060 0000067c  496		lw	$23, 96($sp)
        31a30003 00000680  497		andi	$3, $13, 3
        10600006 00000684  498		beq	$3, $0, .L1424
        afb000f4 00000688  499		sw	$16, 244($sp)
        2463fffe 0000068c  500		addiu	$3, $3, -2
        50600016 00000690  501		beql	$3, $0, .L1001425
        92630000 00000694  502		lbu	$3, 0($19)
        08000000 00000698  503		j	.L1001431
        8fa10060 0000069c  504		lw	$1, 96($sp)
                           505	.L1424:

                                   Tue Apr 07 08:57:48 2015           Page 11
                                   Tue Apr 07 08:57:47 2015       gh_2i0a8.s
        02e02025 000006a0  506		move	$4, $23
        02602825 000006a4  507		move	$5, $19
        0c000000 000006a8  508		jal	memcpy
        02803025 000006ac  509		move	$6, $20
        8fa10060 000006b0  510		lw	$1, 96($sp)
        8fac00a0 000006b4  511		lw	$12, 160($sp)
        002c6021 000006b8  512		addu	$12, $1, $12
        8fa100a4 000006bc  513		lw	$1, 164($sp)
        afac0060 000006c0  514		sw	$12, 96($sp)
        242c0001 000006c4  515		addiu	$12, $1, 1
        8fa1006c 000006c8  516		lw	$1, 108($sp)
        afac00a4 000006cc  517		sw	$12, 164($sp)
        02d5b021 000006d0  518		addu	$22, $22, $21
        242cffff 000006d4  519		addiu	$12, $1, -1
        1580ffab 000006d8  520		bne	$12, $0, .L1414
        afac006c 000006dc  521		sw	$12, 108($sp)
        08000000 000006e0  522		j	.L1001433
        8fb60018 000006e4  523		lw	$22, 24($sp)
                           524	.L1425:
        92630000 000006e8  525		lbu	$3, 0($19)
                           526	.L1001425:
        5060000a 000006ec  527		beql	$3, $0, .L1001428
        8fa100f4 000006f0  528		lw	$1, 244($sp)
        12200007 000006f4  529		beq	$17, $0, .L1428
        a2e30000 000006f8  530		sb	$3, 0($23)
        8fa40104 000006fc  531		lw	$4, 260($sp)
        8c8d0008 00000700  532		lw	$13, 8($4)
        8dad0000 00000704  533		lw	$13, 0($13)
        8fa500f4 00000708  534		lw	$5, 244($sp)
        01a0f809 0000070c  535		jalr	$13
        8fa600e4 00000710  536		lw	$6, 228($sp)
                           537	.L1428:
        8fa100f4 00000714  538		lw	$1, 244($sp)
                           539	.L1001428:
        26730001 00000718  540		addiu	$19, $19, 1
        26f70001 0000071c  541		addiu	$23, $23, 1
        242c0001 00000720  542		addiu	$12, $1, 1
        2694ffff 00000724  543		addiu	$20, $20, -1
        1680ffef 00000728  544		bne	$20, $0, .L1425
        afac00f4 0000072c  545		sw	$12, 244($sp)
        8fa10060 00000730  546		lw	$1, 96($sp)
                           547	.L1001431:
        8fac00a0 00000734  548		lw	$12, 160($sp)
        002c6021 00000738  549		addu	$12, $1, $12
        8fa100a4 0000073c  550		lw	$1, 164($sp)
        afac0060 00000740  551		sw	$12, 96($sp)
        242c0001 00000744  552		addiu	$12, $1, 1
        8fa1006c 00000748  553		lw	$1, 108($sp)
        afac00a4 0000074c  554		sw	$12, 164($sp)
        02d5b021 00000750  555		addu	$22, $22, $21
        242cffff 00000754  556		addiu	$12, $1, -1
        1580ff8b 00000758  557		bne	$12, $0, .L1414
        afac006c 0000075c  558		sw	$12, 108($sp)
        8fb60018 00000760  559		lw	$22, 24($sp)
                           560	.L1001433:
        8fb50014 00000764  561		lw	$21, 20($sp)

                                   Tue Apr 07 08:57:48 2015           Page 12
                                   Tue Apr 07 08:57:47 2015       gh_2i0a8.s
        8fb40010 00000768  562		lw	$20, 16($sp)
        8fb3000c 0000076c  563		lw	$19, 12($sp)
        8fb20008 00000770  564		lw	$18, 8($sp)
        8fb10004 00000774  565		lw	$17, 4($sp)
        8fb00000 00000778  566		lw	$16, 0($sp)
        8fbf010c 0000077c  567		lw	$ra, 268($sp)
        8fb7001c 00000780  568		lw	$23, 28($sp)
        8fbe0020 00000784  569		lw	$fp, 32($sp)
        03e00008 00000788  570		jr	$ra
        27bd0110 0000078c  571		addiu	$sp, $sp, 272
                           572	.L436:
        57c00004 00000790  573		bnel	$fp, $0, .L1000467
        8fac0104 00000794  574		lw	$12, 260($sp)
        3c1e0000 00000798  575		lui	$fp, %hi(.L423)
        27de0000 0000079c  576		addiu	$fp, $fp, %lo(.L423)
        8fac0104 000007a0  577		lw	$12, 260($sp)
                           578	.L1000467:
        afb10078 000007a4  579		sw	$17, 120($sp)
        0013702a 000007a8  580		slt	$14, $0, $19
        000c602b 000007ac  581		sltu	$12, $0, $12
        afac0074 000007b0  582		sw	$12, 116($sp)
        3c0c0000 000007b4  583		lui	$12, %hi(LCD_aMirror)
        258c0000 000007b8  584		addiu	$12, $12, %lo(LCD_aMirror)
        afac00b0 000007bc  585		sw	$12, 176($sp)
        8fac00d8 000007c0  586		lw	$12, 216($sp)
        afa000b4 000007c4  587		sw	$0, 180($sp)
        11c003bd 000007c8  588		beq	$14, $0, .L428
        afac00b8 000007cc  589		sw	$12, 184($sp)
                           590	.L471:
        2683ffff 000007d0  591		addiu	$3, $20, -1
        10600007 000007d4  592		beq	$3, $0, .L475
        2463ffff 000007d8  593		addiu	$3, $3, -1
        10600175 000007dc  594		beq	$3, $0, .L515
        2463fffe 000007e0  595		addiu	$3, $3, -2
        50600214 000007e4  596		beql	$3, $0, .L1000543
        92ce0000 000007e8  597		lbu	$14, 0($22)
        08000000 000007ec  598		j	.L1000473
        8fa10060 000007f0  599		lw	$1, 96($sp)
                           600	.L475:
        8fa100b0 000007f4  601		lw	$1, 176($sp)
        8fac0078 000007f8  602		lw	$12, 120($sp)
        afb6004c 000007fc  603		sw	$22, 76($sp)
        afa10090 00000800  604		sw	$1, 144($sp)
        afac00f0 00000804  605		sw	$12, 240($sp)
        8fac0060 00000808  606		lw	$12, 96($sp)
        afb20044 0000080c  607		sw	$18, 68($sp)
        03c01825 00000810  608		move	$3, $fp
        afac002c 00000814  609		sw	$12, 44($sp)
        92ce0000 00000818  610		lbu	$14, 0($22)
        34180008 0000081c  611		ori	$24, $0, 8
        03176023 00000820  612		subu	$12, $24, $23
        002e7821 00000824  613		addu	$15, $1, $14
        8fb900b8 00000828  614		lw	$25, 184($sp)
        91ed0000 0000082c  615		lbu	$13, 0($15)
        afac0030 00000830  616		sw	$12, 48($sp)
        93390010 00000834  617		lbu	$25, 16($25)

                                   Tue Apr 07 08:57:48 2015           Page 13
                                   Tue Apr 07 08:57:47 2015       gh_2i0a8.s
        02ed8807 00000838  618		srav	$17, $13, $23
        33220003 0000083c  619		andi	$2, $25, 3
        1040000a 00000840  620		beq	$2, $0, .L479
        afb00100 00000844  621		sw	$16, 256($sp)
        340f0001 00000848  622		ori	$15, $0, 1
        104f00d6 0000084c  623		beq	$2, $15, .L505
        2c4e0003 00000850  624		sltiu	$14, $2, 3
        15c00068 00000854  625		bne	$14, $0, .L485
        340d0003 00000858  626		ori	$13, $0, 3
        504d00d3 0000085c  627		beql	$2, $13, .L1000505
        8fa300cc 00000860  628		lw	$3, 204($sp)
        08000000 00000864  629		j	.L1000473
        8fa10060 00000868  630		lw	$1, 96($sp)
                           631	.L479:
        8fac0030 0000086c  632		lw	$12, 48($sp)
        8fa10044 00000870  633		lw	$1, 68($sp)
        002cc82b 00000874  634		sltu	$25, $1, $12
        53200004 00000878  635		beql	$25, $0, .L1000481
        8fae0030 0000087c  636		lw	$14, 48($sp)
        8fac0044 00000880  637		lw	$12, 68($sp)
                           638	.L1000480:
        afac0030 00000884  639		sw	$12, 48($sp)
        8fae0030 00000888  640		lw	$14, 48($sp)
                           641	.L1000481:
        8fa10044 0000088c  642		lw	$1, 68($sp)
        000e10c2 00000890  643		srl	$2, $14, 3
        002e6023 00000894  644		subu	$12, $1, $14
        10400036 00000898  645		beq	$2, $0, .L964
        afac0044 0000089c  646		sw	$12, 68($sp)
                           647	.L972:
        322d0001 000008a0  648		andi	$13, $17, 1
        000dc840 000008a4  649		sll	$25, $13, 1
        0079c021 000008a8  650		addu	$24, $3, $25
        970f0000 000008ac  651		lhu	$15, 0($24)
        8fa1002c 000008b0  652		lw	$1, 44($sp)
        00118842 000008b4  653		srl	$17, $17, 1
        322d0001 000008b8  654		andi	$13, $17, 1
        a02f0000 000008bc  655		sb	$15, 0($1)
        000dc840 000008c0  656		sll	$25, $13, 1
        0079c021 000008c4  657		addu	$24, $3, $25
        970f0000 000008c8  658		lhu	$15, 0($24)
        00118842 000008cc  659		srl	$17, $17, 1
        322d0001 000008d0  660		andi	$13, $17, 1
        a02f0001 000008d4  661		sb	$15, 1($1)
        000dc840 000008d8  662		sll	$25, $13, 1
        0079c021 000008dc  663		addu	$24, $3, $25
        970f0000 000008e0  664		lhu	$15, 0($24)
        00118842 000008e4  665		srl	$17, $17, 1
        322d0001 000008e8  666		andi	$13, $17, 1
        a02f0002 000008ec  667		sb	$15, 2($1)
        000dc840 000008f0  668		sll	$25, $13, 1
        0079c021 000008f4  669		addu	$24, $3, $25
        970f0000 000008f8  670		lhu	$15, 0($24)
        00118842 000008fc  671		srl	$17, $17, 1
        322d0001 00000900  672		andi	$13, $17, 1
        a02f0003 00000904  673		sb	$15, 3($1)

                                   Tue Apr 07 08:57:48 2015           Page 14
                                   Tue Apr 07 08:57:47 2015       gh_2i0a8.s
        000dc840 00000908  674		sll	$25, $13, 1
        0079c021 0000090c  675		addu	$24, $3, $25
        970f0000 00000910  676		lhu	$15, 0($24)
        00118842 00000914  677		srl	$17, $17, 1
        322d0001 00000918  678		andi	$13, $17, 1
        a02f0004 0000091c  679		sb	$15, 4($1)
        000dc840 00000920  680		sll	$25, $13, 1
        0079c021 00000924  681		addu	$24, $3, $25
        970f0000 00000928  682		lhu	$15, 0($24)
        00118842 0000092c  683		srl	$17, $17, 1
        322d0001 00000930  684		andi	$13, $17, 1
        a02f0005 00000934  685		sb	$15, 5($1)
        000dc840 00000938  686		sll	$25, $13, 1
        0079c021 0000093c  687		addu	$24, $3, $25
        970f0000 00000940  688		lhu	$15, 0($24)
        00118842 00000944  689		srl	$17, $17, 1
        322d0001 00000948  690		andi	$13, $17, 1
        00118842 0000094c  691		srl	$17, $17, 1
        242c0008 00000950  692		addiu	$12, $1, 8
        a02f0006 00000954  693		sb	$15, 6($1)
        000dc840 00000958  694		sll	$25, $13, 1
        0079c021 0000095c  695		addu	$24, $3, $25
        970f0000 00000960  696		lhu	$15, 0($24)
        afac002c 00000964  697		sw	$12, 44($sp)
        2442ffff 00000968  698		addiu	$2, $2, -1
        1440ffcc 0000096c  699		bne	$2, $0, .L972
        a02f0007 00000970  700		sb	$15, 7($1)
                           701	.L964:
        31c20007 00000974  702		andi	$2, $14, 7
        5040000d 00000978  703		beql	$2, $0, .L1000483
        8fa10044 0000097c  704		lw	$1, 68($sp)
                           705	.L975:
        8fa1002c 00000980  706		lw	$1, 44($sp)
        32380001 00000984  707		andi	$24, $17, 1
        00118842 00000988  708		srl	$17, $17, 1
        242c0001 0000098c  709		addiu	$12, $1, 1
        00187840 00000990  710		sll	$15, $24, 1
        006f7021 00000994  711		addu	$14, $3, $15
        95cd0000 00000998  712		lhu	$13, 0($14)
        afac002c 0000099c  713		sw	$12, 44($sp)
        2442ffff 000009a0  714		addiu	$2, $2, -1
        1440fff6 000009a4  715		bne	$2, $0, .L975
        a02d0000 000009a8  716		sb	$13, 0($1)
        8fa10044 000009ac  717		lw	$1, 68($sp)
                           718	.L1000483:
        50200336 000009b0  719		beql	$1, $0, .L1000473
        8fa10060 000009b4  720		lw	$1, 96($sp)
        8fa1004c 000009b8  721		lw	$1, 76($sp)
        340c0008 000009bc  722		ori	$12, $0, 8
        afac0030 000009c0  723		sw	$12, 48($sp)
        902e0001 000009c4  724		lbu	$14, 1($1)
        242c0001 000009c8  725		addiu	$12, $1, 1
        8fa10090 000009cc  726		lw	$1, 144($sp)
        afac004c 000009d0  727		sw	$12, 76($sp)
        8fac0030 000009d4  728		lw	$12, 48($sp)
        002e7821 000009d8  729		addu	$15, $1, $14

                                   Tue Apr 07 08:57:48 2015           Page 15
                                   Tue Apr 07 08:57:47 2015       gh_2i0a8.s
        8fa10044 000009dc  730		lw	$1, 68($sp)
        91f10000 000009e0  731		lbu	$17, 0($15)
        002cc82b 000009e4  732		sltu	$25, $1, $12
        5720ffa6 000009e8  733		bnel	$25, $0, .L1000480
        8fac0044 000009ec  734		lw	$12, 68($sp)
        08000000 000009f0  735		j	.L1000481
        8fae0030 000009f4  736		lw	$14, 48($sp)
                           737	.L485:
        906c0002 000009f8  738		lbu	$12, 2($3)
        a3ac002b 000009fc  739		sb	$12, 43($sp)
        8fac00b0 00000a00  740		lw	$12, 176($sp)
        afac0094 00000a04  741		sw	$12, 148($sp)
        8fac0074 00000a08  742		lw	$12, 116($sp)
        8fa10044 00000a0c  743		lw	$1, 68($sp)
        afac0098 00000a10  744		sw	$12, 152($sp)
        8fac0030 00000a14  745		lw	$12, 48($sp)
        002c682b 00000a18  746		sltu	$13, $1, $12
        51a00004 00000a1c  747		beql	$13, $0, .L1000488
        8fac0030 00000a20  748		lw	$12, 48($sp)
        8fac0044 00000a24  749		lw	$12, 68($sp)
                           750	.L1000487:
        afac0030 00000a28  751		sw	$12, 48($sp)
        8fac0030 00000a2c  752		lw	$12, 48($sp)
                           753	.L1000488:
        8fa10044 00000a30  754		lw	$1, 68($sp)
        002c6023 00000a34  755		subu	$12, $1, $12
        8fa10098 00000a38  756		lw	$1, 152($sp)
        afac0044 00000a3c  757		sw	$12, 68($sp)
        1020002a 00000a40  758		beq	$1, $0, .L497
        00000000 00000a44  759		nop
        5620000e 00000a48  760		bnel	$17, $0, .L1000493
        322f0001 00000a4c  761		andi	$15, $17, 1
        8fac0030 00000a50  762		lw	$12, 48($sp)
                           763	.L1000492:
        8fa1002c 00000a54  764		lw	$1, 44($sp)
        002c6021 00000a58  765		addu	$12, $1, $12
        afac002c 00000a5c  766		sw	$12, 44($sp)
        8fac0030 00000a60  767		lw	$12, 48($sp)
        8fa10100 00000a64  768		lw	$1, 256($sp)
        002c6021 00000a68  769		addu	$12, $1, $12
        8fa10044 00000a6c  770		lw	$1, 68($sp)
        afac0100 00000a70  771		sw	$12, 256($sp)
        50200305 00000a74  772		beql	$1, $0, .L1000473
        8fa10060 00000a78  773		lw	$1, 96($sp)
        08000000 00000a7c  774		j	.L1000504
        8fa1004c 00000a80  775		lw	$1, 76($sp)
                           776	.L1000493:
        51e0000b 00000a84  777		beql	$15, $0, .L1000495
        8fa10100 00000a88  778		lw	$1, 256($sp)
        8fa40104 00000a8c  779		lw	$4, 260($sp)
        8c8d0008 00000a90  780		lw	$13, 8($4)
        8dad0000 00000a94  781		lw	$13, 0($13)
        8fa50100 00000a98  782		lw	$5, 256($sp)
        01a0f809 00000a9c  783		jalr	$13
        8fa600f0 00000aa0  784		lw	$6, 240($sp)
        93ac002b 00000aa4  785		lbu	$12, 43($sp)

                                   Tue Apr 07 08:57:48 2015           Page 16
                                   Tue Apr 07 08:57:47 2015       gh_2i0a8.s
        8fa1002c 00000aa8  786		lw	$1, 44($sp)
        a02c0000 00000aac  787		sb	$12, 0($1)
        8fa10100 00000ab0  788		lw	$1, 256($sp)
                           789	.L1000495:
        242c0001 00000ab4  790		addiu	$12, $1, 1
        8fa1002c 00000ab8  791		lw	$1, 44($sp)
        afac0100 00000abc  792		sw	$12, 256($sp)
        242c0001 00000ac0  793		addiu	$12, $1, 1
        8fa10030 00000ac4  794		lw	$1, 48($sp)
        afac002c 00000ac8  795		sw	$12, 44($sp)
        242cffff 00000acc  796		addiu	$12, $1, -1
        11800022 00000ad0  797		beq	$12, $0, .L503
        afac0030 00000ad4  798		sw	$12, 48($sp)
        00118842 00000ad8  799		srl	$17, $17, 1
        5220ffdd 00000adc  800		beql	$17, $0, .L1000492
        8fac0030 00000ae0  801		lw	$12, 48($sp)
        08000000 00000ae4  802		j	.L1000493
        322f0001 00000ae8  803		andi	$15, $17, 1
                           804	.L497:
        5620000a 00000aec  805		bnel	$17, $0, .L1000499
        322f0001 00000af0  806		andi	$15, $17, 1
        8fac0030 00000af4  807		lw	$12, 48($sp)
                           808	.L1000498:
        8fa1002c 00000af8  809		lw	$1, 44($sp)
        002c6021 00000afc  810		addu	$12, $1, $12
        8fa10044 00000b00  811		lw	$1, 68($sp)
        afac002c 00000b04  812		sw	$12, 44($sp)
        502002e0 00000b08  813		beql	$1, $0, .L1000473
        8fa10060 00000b0c  814		lw	$1, 96($sp)
        08000000 00000b10  815		j	.L1000504
        8fa1004c 00000b14  816		lw	$1, 76($sp)
                           817	.L1000499:
        51e00005 00000b18  818		beql	$15, $0, .L1000501
        8fa1002c 00000b1c  819		lw	$1, 44($sp)
        93ac002b 00000b20  820		lbu	$12, 43($sp)
        8fa1002c 00000b24  821		lw	$1, 44($sp)
        a02c0000 00000b28  822		sb	$12, 0($1)
        8fa1002c 00000b2c  823		lw	$1, 44($sp)
                           824	.L1000501:
        242c0001 00000b30  825		addiu	$12, $1, 1
        8fa10030 00000b34  826		lw	$1, 48($sp)
        afac002c 00000b38  827		sw	$12, 44($sp)
        242cffff 00000b3c  828		addiu	$12, $1, -1
        11800006 00000b40  829		beq	$12, $0, .L503
        afac0030 00000b44  830		sw	$12, 48($sp)
        00118842 00000b48  831		srl	$17, $17, 1
        5220ffea 00000b4c  832		beql	$17, $0, .L1000498
        8fac0030 00000b50  833		lw	$12, 48($sp)
        08000000 00000b54  834		j	.L1000499
        322f0001 00000b58  835		andi	$15, $17, 1
                           836	.L503:
        8fa10044 00000b5c  837		lw	$1, 68($sp)
        502002ca 00000b60  838		beql	$1, $0, .L1000473
        8fa10060 00000b64  839		lw	$1, 96($sp)
        8fa1004c 00000b68  840		lw	$1, 76($sp)
                           841	.L1000504:

                                   Tue Apr 07 08:57:48 2015           Page 17
                                   Tue Apr 07 08:57:47 2015       gh_2i0a8.s
        340c0008 00000b6c  842		ori	$12, $0, 8
        afac0030 00000b70  843		sw	$12, 48($sp)
        902f0001 00000b74  844		lbu	$15, 1($1)
        242c0001 00000b78  845		addiu	$12, $1, 1
        8fa10094 00000b7c  846		lw	$1, 148($sp)
        afac004c 00000b80  847		sw	$12, 76($sp)
        8fac0030 00000b84  848		lw	$12, 48($sp)
        002fc021 00000b88  849		addu	$24, $1, $15
        8fa10044 00000b8c  850		lw	$1, 68($sp)
        93110000 00000b90  851		lbu	$17, 0($24)
        002c682b 00000b94  852		sltu	$13, $1, $12
        55a0ffa3 00000b98  853		bnel	$13, $0, .L1000487
        8fac0044 00000b9c  854		lw	$12, 68($sp)
        08000000 00000ba0  855		j	.L1000488
        8fac0030 00000ba4  856		lw	$12, 48($sp)
                           857	.L505:
        8fa300cc 00000ba8  858		lw	$3, 204($sp)
                           859	.L1000505:
        8c630024 00000bac  860		lw	$3, 36($3)
        0060f809 00000bb0  861		jalr	$3
        00000000 00000bb4  862		nop
        8fac00b0 00000bb8  863		lw	$12, 176($sp)
        8fa10044 00000bbc  864		lw	$1, 68($sp)
        afac009c 00000bc0  865		sw	$12, 156($sp)
        8fac0030 00000bc4  866		lw	$12, 48($sp)
        304300ff 00000bc8  867		andi	$3, $2, 255
        002c702b 00000bcc  868		sltu	$14, $1, $12
        51c00004 00000bd0  869		beql	$14, $0, .L1000508
        8fa10044 00000bd4  870		lw	$1, 68($sp)
        8fac0044 00000bd8  871		lw	$12, 68($sp)
                           872	.L1000507:
        afac0030 00000bdc  873		sw	$12, 48($sp)
        8fa10044 00000be0  874		lw	$1, 68($sp)
                           875	.L1000508:
        8fac0030 00000be4  876		lw	$12, 48($sp)
        002c6023 00000be8  877		subu	$12, $1, $12
        afac0044 00000bec  878		sw	$12, 68($sp)
        8fac0030 00000bf0  879		lw	$12, 48($sp)
        000c10c2 00000bf4  880		srl	$2, $12, 3
        1040004c 00000bf8  881		beq	$2, $0, .L978
        afac0068 00000bfc  882		sw	$12, 104($sp)
                           883	.L979:
        32380001 00000c00  884		andi	$24, $17, 1
        13000005 00000c04  885		beq	$24, $0, .L1000982
        8fa1002c 00000c08  886		lw	$1, 44($sp)
        902e0000 00000c0c  887		lbu	$14, 0($1)
        01c37026 00000c10  888		xor	$14, $14, $3
        a02e0000 00000c14  889		sb	$14, 0($1)
        8fa1002c 00000c18  890		lw	$1, 44($sp)
                           891	.L1000982:
        00118842 00000c1c  892		srl	$17, $17, 1
        322d0001 00000c20  893		andi	$13, $17, 1
        242c0001 00000c24  894		addiu	$12, $1, 1
        11a00004 00000c28  895		beq	$13, $0, .L985
        afac002c 00000c2c  896		sw	$12, 44($sp)
        91980000 00000c30  897		lbu	$24, 0($12)

                                   Tue Apr 07 08:57:48 2015           Page 18
                                   Tue Apr 07 08:57:47 2015       gh_2i0a8.s
        0303c026 00000c34  898		xor	$24, $24, $3
        a1980000 00000c38  899		sb	$24, 0($12)
                           900	.L985:
        8fa1002c 00000c3c  901		lw	$1, 44($sp)
        00118842 00000c40  902		srl	$17, $17, 1
        322f0001 00000c44  903		andi	$15, $17, 1
        242c0001 00000c48  904		addiu	$12, $1, 1
        11e00004 00000c4c  905		beq	$15, $0, .L988
        afac002c 00000c50  906		sw	$12, 44($sp)
        918d0000 00000c54  907		lbu	$13, 0($12)
        01a36826 00000c58  908		xor	$13, $13, $3
        a18d0000 00000c5c  909		sb	$13, 0($12)
                           910	.L988:
        8fa1002c 00000c60  911		lw	$1, 44($sp)
        00118842 00000c64  912		srl	$17, $17, 1
        32390001 00000c68  913		andi	$25, $17, 1
        242c0001 00000c6c  914		addiu	$12, $1, 1
        13200004 00000c70  915		beq	$25, $0, .L991
        afac002c 00000c74  916		sw	$12, 44($sp)
        918f0000 00000c78  917		lbu	$15, 0($12)
        01e37826 00000c7c  918		xor	$15, $15, $3
        a18f0000 00000c80  919		sb	$15, 0($12)
                           920	.L991:
        8fa1002c 00000c84  921		lw	$1, 44($sp)
        00118842 00000c88  922		srl	$17, $17, 1
        322e0001 00000c8c  923		andi	$14, $17, 1
        242c0001 00000c90  924		addiu	$12, $1, 1
        11c00004 00000c94  925		beq	$14, $0, .L994
        afac002c 00000c98  926		sw	$12, 44($sp)
        91990000 00000c9c  927		lbu	$25, 0($12)
        0323c826 00000ca0  928		xor	$25, $25, $3
        a1990000 00000ca4  929		sb	$25, 0($12)
                           930	.L994:
        8fa1002c 00000ca8  931		lw	$1, 44($sp)
        00118842 00000cac  932		srl	$17, $17, 1
        32380001 00000cb0  933		andi	$24, $17, 1
        242c0001 00000cb4  934		addiu	$12, $1, 1
        13000004 00000cb8  935		beq	$24, $0, .L997
        afac002c 00000cbc  936		sw	$12, 44($sp)
        918e0000 00000cc0  937		lbu	$14, 0($12)
        01c37026 00000cc4  938		xor	$14, $14, $3
        a18e0000 00000cc8  939		sb	$14, 0($12)
                           940	.L997:
        8fa1002c 00000ccc  941		lw	$1, 44($sp)
        00118842 00000cd0  942		srl	$17, $17, 1
        322d0001 00000cd4  943		andi	$13, $17, 1
        242c0001 00000cd8  944		addiu	$12, $1, 1
        11a00004 00000cdc  945		beq	$13, $0, .L1000
        afac002c 00000ce0  946		sw	$12, 44($sp)
        91980000 00000ce4  947		lbu	$24, 0($12)
        0303c026 00000ce8  948		xor	$24, $24, $3
        a1980000 00000cec  949		sb	$24, 0($12)
                           950	.L1000:
        8fa1002c 00000cf0  951		lw	$1, 44($sp)
        00118842 00000cf4  952		srl	$17, $17, 1
        322f0001 00000cf8  953		andi	$15, $17, 1

                                   Tue Apr 07 08:57:48 2015           Page 19
                                   Tue Apr 07 08:57:47 2015       gh_2i0a8.s
        242c0001 00000cfc  954		addiu	$12, $1, 1
        11e00004 00000d00  955		beq	$15, $0, .L1002
        afac002c 00000d04  956		sw	$12, 44($sp)
        918d0000 00000d08  957		lbu	$13, 0($12)
        01a36826 00000d0c  958		xor	$13, $13, $3
        a18d0000 00000d10  959		sb	$13, 0($12)
                           960	.L1002:
        8fa1002c 00000d14  961		lw	$1, 44($sp)
        00118842 00000d18  962		srl	$17, $17, 1
        2442ffff 00000d1c  963		addiu	$2, $2, -1
        242c0001 00000d20  964		addiu	$12, $1, 1
        1440ffb6 00000d24  965		bne	$2, $0, .L979
        afac002c 00000d28  966		sw	$12, 44($sp)
                           967	.L978:
        8fa10068 00000d2c  968		lw	$1, 104($sp)
        30220007 00000d30  969		andi	$2, $1, 7
        1040000c 00000d34  970		beq	$2, $0, .L512
                           971	.L1005:
        322f0001 00000d38  972		andi	$15, $17, 1
        11e00005 00000d3c  973		beq	$15, $0, .L1001007
        8fa1002c 00000d40  974		lw	$1, 44($sp)
        902d0000 00000d44  975		lbu	$13, 0($1)
        01a36826 00000d48  976		xor	$13, $13, $3
        a02d0000 00000d4c  977		sb	$13, 0($1)
        8fa1002c 00000d50  978		lw	$1, 44($sp)
                           979	.L1001007:
        00118842 00000d54  980		srl	$17, $17, 1
        2442ffff 00000d58  981		addiu	$2, $2, -1
        242c0001 00000d5c  982		addiu	$12, $1, 1
        1440fff5 00000d60  983		bne	$2, $0, .L1005
        afac002c 00000d64  984		sw	$12, 44($sp)
                           985	.L512:
        8fa10044 00000d68  986		lw	$1, 68($sp)
        50200247 00000d6c  987		beql	$1, $0, .L1000473
        8fa10060 00000d70  988		lw	$1, 96($sp)
        8fa1004c 00000d74  989		lw	$1, 76($sp)
        340c0008 00000d78  990		ori	$12, $0, 8
        afac0030 00000d7c  991		sw	$12, 48($sp)
        902e0001 00000d80  992		lbu	$14, 1($1)
        242c0001 00000d84  993		addiu	$12, $1, 1
        8fa1009c 00000d88  994		lw	$1, 156($sp)
        afac004c 00000d8c  995		sw	$12, 76($sp)
        8fac0030 00000d90  996		lw	$12, 48($sp)
        002e7821 00000d94  997		addu	$15, $1, $14
        8fa10044 00000d98  998		lw	$1, 68($sp)
        91f10000 00000d9c  999		lbu	$17, 0($15)
        002c702b 00000da0 1000		sltu	$14, $1, $12
        55c0ff8d 00000da4 1001		bnel	$14, $0, .L1000507
        8fac0044 00000da8 1002		lw	$12, 68($sp)
        08000000 00000dac 1003		j	.L1000508
        8fa10044 00000db0 1004		lw	$1, 68($sp)
                          1005	.L515:
        8fac0078 00000db4 1006		lw	$12, 120($sp)
        92d80000 00000db8 1007		lbu	$24, 0($22)
        0017c840 00000dbc 1008		sll	$25, $23, 1
        afac00ec 00000dc0 1009		sw	$12, 236($sp)

                                   Tue Apr 07 08:57:48 2015           Page 20
                                   Tue Apr 07 08:57:47 2015       gh_2i0a8.s
        8fac0060 00000dc4 1010		lw	$12, 96($sp)
        afb60050 00000dc8 1011		sw	$22, 80($sp)
        afb20048 00000dcc 1012		sw	$18, 72($sp)
        afac0038 00000dd0 1013		sw	$12, 56($sp)
        03386004 00000dd4 1014		sllv	$12, $24, $25
        a3ac002a 00000dd8 1015		sb	$12, 42($sp)
        8faf00b8 00000ddc 1016		lw	$15, 184($sp)
        afbe0058 00000de0 1017		sw	$fp, 88($sp)
        340d0004 00000de4 1018		ori	$13, $0, 4
        8fac0074 00000de8 1019		lw	$12, 116($sp)
        91ef0010 00000dec 1020		lbu	$15, 16($15)
        01b78823 00000df0 1021		subu	$17, $13, $23
        afac008c 00000df4 1022		sw	$12, 140($sp)
        323100ff 00000df8 1023		andi	$17, $17, 255
        31e30003 00000dfc 1024		andi	$3, $15, 3
        10600008 00000e00 1025		beq	$3, $0, .L519
        afb000fc 00000e04 1026		sw	$16, 252($sp)
        340d0001 00000e08 1027		ori	$13, $0, 1
        106d0063 00000e0c 1028		beq	$3, $13, .L534
        2463fffe 00000e10 1029		addiu	$3, $3, -2
        5060002a 00000e14 1030		beql	$3, $0, .L1000525
        8fa10048 00000e18 1031		lw	$1, 72($sp)
        08000000 00000e1c 1032		j	.L1000473
        8fa10060 00000e20 1033		lw	$1, 96($sp)
                          1034	.L519:
        8fa10048 00000e24 1035		lw	$1, 72($sp)
        0031c02a 00000e28 1036		slt	$24, $1, $17
        13000003 00000e2c 1037		beq	$24, $0, .L1000521
        8fa10048 00000e30 1038		lw	$1, 72($sp)
                          1039	.L1000520:
        303100ff 00000e34 1040		andi	$17, $1, 255
        8fa10048 00000e38 1041		lw	$1, 72($sp)
                          1042	.L1000521:
        00316023 00000e3c 1043		subu	$12, $1, $17
        afac0048 00000e40 1044		sw	$12, 72($sp)
                          1045	.L522:
        93a1002a 00000e44 1046		lbu	$1, 42($sp)
        00017183 00000e48 1047		sra	$14, $1, 6
        8fa10058 00000e4c 1048		lw	$1, 88($sp)
        000e6840 00000e50 1049		sll	$13, $14, 1
        002dc821 00000e54 1050		addu	$25, $1, $13
        8fa10038 00000e58 1051		lw	$1, 56($sp)
        97380000 00000e5c 1052		lhu	$24, 0($25)
        2631ffff 00000e60 1053		addiu	$17, $17, -1
        242c0001 00000e64 1054		addiu	$12, $1, 1
        a0380000 00000e68 1055		sb	$24, 0($1)
        93a1002a 00000e6c 1056		lbu	$1, 42($sp)
        afac0038 00000e70 1057		sw	$12, 56($sp)
        323100ff 00000e74 1058		andi	$17, $17, 255
        00016080 00000e78 1059		sll	$12, $1, 2
        1620fff1 00000e7c 1060		bne	$17, $0, .L522
        a3ac002a 00000e80 1061		sb	$12, 42($sp)
        8fa10048 00000e84 1062		lw	$1, 72($sp)
        50200200 00000e88 1063		beql	$1, $0, .L1000473
        8fa10060 00000e8c 1064		lw	$1, 96($sp)
        8fa10050 00000e90 1065		lw	$1, 80($sp)

                                   Tue Apr 07 08:57:48 2015           Page 21
                                   Tue Apr 07 08:57:47 2015       gh_2i0a8.s
        902c0001 00000e94 1066		lbu	$12, 1($1)
        a3ac002a 00000e98 1067		sb	$12, 42($sp)
        242c0001 00000e9c 1068		addiu	$12, $1, 1
        8fa10048 00000ea0 1069		lw	$1, 72($sp)
        afac0050 00000ea4 1070		sw	$12, 80($sp)
        34110004 00000ea8 1071		ori	$17, $0, 4
        0031c02a 00000eac 1072		slt	$24, $1, $17
        5700ffe0 00000eb0 1073		bnel	$24, $0, .L1000520
        8fa10048 00000eb4 1074		lw	$1, 72($sp)
        08000000 00000eb8 1075		j	.L1000521
        8fa10048 00000ebc 1076		lw	$1, 72($sp)
                          1077	.L1000525:
        0031682a 00000ec0 1078		slt	$13, $1, $17
        11a00003 00000ec4 1079		beq	$13, $0, .L1000527
        8fa10048 00000ec8 1080		lw	$1, 72($sp)
                          1081	.L1000526:
        303100ff 00000ecc 1082		andi	$17, $1, 255
        8fa10048 00000ed0 1083		lw	$1, 72($sp)
                          1084	.L1000527:
        00316023 00000ed4 1085		subu	$12, $1, $17
        afac0048 00000ed8 1086		sw	$12, 72($sp)
        8fac008c 00000edc 1087		lw	$12, 140($sp)
        afac0064 00000ee0 1088		sw	$12, 100($sp)
                          1089	.L528:
        93a1002a 00000ee4 1090		lbu	$1, 42($sp)
        303900c0 00000ee8 1091		andi	$25, $1, 192
        13200010 00000eec 1092		beq	$25, $0, .L531
        00017983 00000ef0 1093		sra	$15, $1, 6
        8fa10058 00000ef4 1094		lw	$1, 88($sp)
        000f7040 00000ef8 1095		sll	$14, $15, 1
        002e6821 00000efc 1096		addu	$13, $1, $14
        8fa10038 00000f00 1097		lw	$1, 56($sp)
        95b90000 00000f04 1098		lhu	$25, 0($13)
        a0390000 00000f08 1099		sb	$25, 0($1)
        8fa10064 00000f0c 1100		lw	$1, 100($sp)
        50200008 00000f10 1101		beql	$1, $0, .L1000531
        8fa10038 00000f14 1102		lw	$1, 56($sp)
        8fa40104 00000f18 1103		lw	$4, 260($sp)
        8c8f0008 00000f1c 1104		lw	$15, 8($4)
        8def0000 00000f20 1105		lw	$15, 0($15)
        8fa500fc 00000f24 1106		lw	$5, 252($sp)
        01e0f809 00000f28 1107		jalr	$15
        8fa600ec 00000f2c 1108		lw	$6, 236($sp)
                          1109	.L531:
        8fa10038 00000f30 1110		lw	$1, 56($sp)
                          1111	.L1000531:
        242c0001 00000f34 1112		addiu	$12, $1, 1
        8fa100fc 00000f38 1113		lw	$1, 252($sp)
        afac0038 00000f3c 1114		sw	$12, 56($sp)
        2631ffff 00000f40 1115		addiu	$17, $17, -1
        242c0001 00000f44 1116		addiu	$12, $1, 1
        93a1002a 00000f48 1117		lbu	$1, 42($sp)
        afac00fc 00000f4c 1118		sw	$12, 252($sp)
        323100ff 00000f50 1119		andi	$17, $17, 255
        00016080 00000f54 1120		sll	$12, $1, 2
        1620ffe2 00000f58 1121		bne	$17, $0, .L528

                                   Tue Apr 07 08:57:48 2015           Page 22
                                   Tue Apr 07 08:57:47 2015       gh_2i0a8.s
        a3ac002a 00000f5c 1122		sb	$12, 42($sp)
        8fa10048 00000f60 1123		lw	$1, 72($sp)
        502001c9 00000f64 1124		beql	$1, $0, .L1000473
        8fa10060 00000f68 1125		lw	$1, 96($sp)
        8fa10050 00000f6c 1126		lw	$1, 80($sp)
        902c0001 00000f70 1127		lbu	$12, 1($1)
        a3ac002a 00000f74 1128		sb	$12, 42($sp)
        242c0001 00000f78 1129		addiu	$12, $1, 1
        8fa10048 00000f7c 1130		lw	$1, 72($sp)
        afac0050 00000f80 1131		sw	$12, 80($sp)
        34110004 00000f84 1132		ori	$17, $0, 4
        0031682a 00000f88 1133		slt	$13, $1, $17
        55a0ffcf 00000f8c 1134		bnel	$13, $0, .L1000526
        8fa10048 00000f90 1135		lw	$1, 72($sp)
        08000000 00000f94 1136		j	.L1000527
        8fa10048 00000f98 1137		lw	$1, 72($sp)
                          1138	.L534:
        8fa10048 00000f9c 1139		lw	$1, 72($sp)
        0031c82a 00000fa0 1140		slt	$25, $1, $17
        13200003 00000fa4 1141		beq	$25, $0, .L1000536
        8fa10048 00000fa8 1142		lw	$1, 72($sp)
                          1143	.L1000535:
        303100ff 00000fac 1144		andi	$17, $1, 255
        8fa10048 00000fb0 1145		lw	$1, 72($sp)
                          1146	.L1000536:
        00316023 00000fb4 1147		subu	$12, $1, $17
        afac0048 00000fb8 1148		sw	$12, 72($sp)
                          1149	.L537:
        93a1002a 00000fbc 1150		lbu	$1, 42($sp)
        303800c0 00000fc0 1151		andi	$24, $1, 192
        13000005 00000fc4 1152		beq	$24, $0, .L1000539
        8fa10038 00000fc8 1153		lw	$1, 56($sp)
        902e0000 00000fcc 1154		lbu	$14, 0($1)
        39ce00ff 00000fd0 1155		xori	$14, $14, 255
        a02e0000 00000fd4 1156		sb	$14, 0($1)
        8fa10038 00000fd8 1157		lw	$1, 56($sp)
                          1158	.L1000539:
        2631ffff 00000fdc 1159		addiu	$17, $17, -1
        242c0001 00000fe0 1160		addiu	$12, $1, 1
        93a1002a 00000fe4 1161		lbu	$1, 42($sp)
        afac0038 00000fe8 1162		sw	$12, 56($sp)
        323100ff 00000fec 1163		andi	$17, $17, 255
        00016080 00000ff0 1164		sll	$12, $1, 2
        1620fff1 00000ff4 1165		bne	$17, $0, .L537
        a3ac002a 00000ff8 1166		sb	$12, 42($sp)
        8fa10048 00000ffc 1167		lw	$1, 72($sp)
        502001a2 00001000 1168		beql	$1, $0, .L1000473
        8fa10060 00001004 1169		lw	$1, 96($sp)
        8fa10050 00001008 1170		lw	$1, 80($sp)
        902c0001 0000100c 1171		lbu	$12, 1($1)
        a3ac002a 00001010 1172		sb	$12, 42($sp)
        242c0001 00001014 1173		addiu	$12, $1, 1
        8fa10048 00001018 1174		lw	$1, 72($sp)
        afac0050 0000101c 1175		sw	$12, 80($sp)
        34110004 00001020 1176		ori	$17, $0, 4
        0031c82a 00001024 1177		slt	$25, $1, $17

                                   Tue Apr 07 08:57:48 2015           Page 23
                                   Tue Apr 07 08:57:47 2015       gh_2i0a8.s
        5720ffe0 00001028 1178		bnel	$25, $0, .L1000535
        8fa10048 0000102c 1179		lw	$1, 72($sp)
        08000000 00001030 1180		j	.L1000536
        8fa10048 00001034 1181		lw	$1, 72($sp)
                          1182	.L1000543:
        02e0c825 00001038 1183		move	$25, $23
        00197880 0000103c 1184		sll	$15, $25, 2
        01ee8804 00001040 1185		sllv	$17, $14, $15
        afb20054 00001044 1186		sw	$18, 84($sp)
        8fac0078 00001048 1187		lw	$12, 120($sp)
        323100ff 0000104c 1188		andi	$17, $17, 255
        afb60040 00001050 1189		sw	$22, 64($sp)
        afac00dc 00001054 1190		sw	$12, 220($sp)
        8fac0060 00001058 1191		lw	$12, 96($sp)
        afbe003c 0000105c 1192		sw	$fp, 60($sp)
        8fad00b8 00001060 1193		lw	$13, 184($sp)
        afac0034 00001064 1194		sw	$12, 52($sp)
        34180002 00001068 1195		ori	$24, $0, 2
        91ad0010 0000106c 1196		lbu	$13, 16($13)
        03191823 00001070 1197		subu	$3, $24, $25
        306300ff 00001074 1198		andi	$3, $3, 255
        31a20003 00001078 1199		andi	$2, $13, 3
        10400008 0000107c 1200		beq	$2, $0, .L547
        afb000e0 00001080 1201		sw	$16, 224($sp)
        34180001 00001084 1202		ori	$24, $0, 1
        1058015b 00001088 1203		beq	$2, $24, .L572
        2442fffe 0000108c 1204		addiu	$2, $2, -2
        104000d8 00001090 1205		beq	$2, $0, .L555
        00000000 00001094 1206		nop
        08000000 00001098 1207		j	.L1000473
        8fa10060 0000109c 1208		lw	$1, 96($sp)
                          1209	.L547:
        53200012 000010a0 1210		beql	$25, $0, .L1000549
        8fa10054 000010a4 1211		lw	$1, 84($sp)
        8fa1003c 000010a8 1212		lw	$1, 60($sp)
        00116903 000010ac 1213		sra	$13, $17, 4
        000dc840 000010b0 1214		sll	$25, $13, 1
        0039c021 000010b4 1215		addu	$24, $1, $25
        8fa10034 000010b8 1216		lw	$1, 52($sp)
        970f0000 000010bc 1217		lhu	$15, 0($24)
        242c0001 000010c0 1218		addiu	$12, $1, 1
        a02f0000 000010c4 1219		sb	$15, 0($1)
        8fa10054 000010c8 1220		lw	$1, 84($sp)
        afac0034 000010cc 1221		sw	$12, 52($sp)
        242cffff 000010d0 1222		addiu	$12, $1, -1
        8fa10040 000010d4 1223		lw	$1, 64($sp)
        afac0054 000010d8 1224		sw	$12, 84($sp)
        90310001 000010dc 1225		lbu	$17, 1($1)
        242c0001 000010e0 1226		addiu	$12, $1, 1
        afac0040 000010e4 1227		sw	$12, 64($sp)
        8fa10054 000010e8 1228		lw	$1, 84($sp)
                          1229	.L1000549:
        282e0002 000010ec 1230		slti	$14, $1, 2
        15c000a6 000010f0 1231		bne	$14, $0, .L553
        00011043 000010f4 1232		sra	$2, $1, 1
        afa200bc 000010f8 1233		sw	$2, 188($sp)

                                   Tue Apr 07 08:57:48 2015           Page 24
                                   Tue Apr 07 08:57:47 2015       gh_2i0a8.s
        302c0001 000010fc 1234		andi	$12, $1, 1
        000218c2 00001100 1235		srl	$3, $2, 3
        10600087 00001104 1236		beq	$3, $0, .L1179
        afac0054 00001108 1237		sw	$12, 84($sp)
                          1238	.L1187:
        8fa1003c 0000110c 1239		lw	$1, 60($sp)
        0011c103 00001110 1240		sra	$24, $17, 4
        00187840 00001114 1241		sll	$15, $24, 1
        002f7021 00001118 1242		addu	$14, $1, $15
        95cd0000 0000111c 1243		lhu	$13, 0($14)
        8fa10034 00001120 1244		lw	$1, 52($sp)
        3239000f 00001124 1245		andi	$25, $17, 15
        a02d0000 00001128 1246		sb	$13, 0($1)
        8fa1003c 0000112c 1247		lw	$1, 60($sp)
        0019c040 00001130 1248		sll	$24, $25, 1
        00387821 00001134 1249		addu	$15, $1, $24
        95ee0000 00001138 1250		lhu	$14, 0($15)
        8fa10034 0000113c 1251		lw	$1, 52($sp)
        8fb10040 00001140 1252		lw	$17, 64($sp)
        a02e0001 00001144 1253		sb	$14, 1($1)
        92310001 00001148 1254		lbu	$17, 1($17)
        8fa1003c 0000114c 1255		lw	$1, 60($sp)
        00116903 00001150 1256		sra	$13, $17, 4
        000dc840 00001154 1257		sll	$25, $13, 1
        0039c021 00001158 1258		addu	$24, $1, $25
        970f0000 0000115c 1259		lhu	$15, 0($24)
        8fa10034 00001160 1260		lw	$1, 52($sp)
        322e000f 00001164 1261		andi	$14, $17, 15
        a02f0002 00001168 1262		sb	$15, 2($1)
        8fa1003c 0000116c 1263		lw	$1, 60($sp)
        000e6840 00001170 1264		sll	$13, $14, 1
        002dc821 00001174 1265		addu	$25, $1, $13
        97380000 00001178 1266		lhu	$24, 0($25)
        8fa10034 0000117c 1267		lw	$1, 52($sp)
        8fb10040 00001180 1268		lw	$17, 64($sp)
        a0380003 00001184 1269		sb	$24, 3($1)
        92310002 00001188 1270		lbu	$17, 2($17)
        8fa1003c 0000118c 1271		lw	$1, 60($sp)
        00117903 00001190 1272		sra	$15, $17, 4
        000f7040 00001194 1273		sll	$14, $15, 1
        002e6821 00001198 1274		addu	$13, $1, $14
        95b90000 0000119c 1275		lhu	$25, 0($13)
        8fa10034 000011a0 1276		lw	$1, 52($sp)
        3238000f 000011a4 1277		andi	$24, $17, 15
        a0390004 000011a8 1278		sb	$25, 4($1)
        8fa1003c 000011ac 1279		lw	$1, 60($sp)
        00187840 000011b0 1280		sll	$15, $24, 1
        002f7021 000011b4 1281		addu	$14, $1, $15
        95cd0000 000011b8 1282		lhu	$13, 0($14)
        8fa10034 000011bc 1283		lw	$1, 52($sp)
        8fb10040 000011c0 1284		lw	$17, 64($sp)
        a02d0005 000011c4 1285		sb	$13, 5($1)
        92310003 000011c8 1286		lbu	$17, 3($17)
        8fa1003c 000011cc 1287		lw	$1, 60($sp)
        0011c903 000011d0 1288		sra	$25, $17, 4
        0019c040 000011d4 1289		sll	$24, $25, 1

                                   Tue Apr 07 08:57:48 2015           Page 25
                                   Tue Apr 07 08:57:47 2015       gh_2i0a8.s
        00387821 000011d8 1290		addu	$15, $1, $24
        95ee0000 000011dc 1291		lhu	$14, 0($15)
        8fa10034 000011e0 1292		lw	$1, 52($sp)
        322d000f 000011e4 1293		andi	$13, $17, 15
        a02e0006 000011e8 1294		sb	$14, 6($1)
        8fa1003c 000011ec 1295		lw	$1, 60($sp)
        000dc840 000011f0 1296		sll	$25, $13, 1
        0039c021 000011f4 1297		addu	$24, $1, $25
        970f0000 000011f8 1298		lhu	$15, 0($24)
        8fa10034 000011fc 1299		lw	$1, 52($sp)
        8fb10040 00001200 1300		lw	$17, 64($sp)
        a02f0007 00001204 1301		sb	$15, 7($1)
        92310004 00001208 1302		lbu	$17, 4($17)
        8fa1003c 0000120c 1303		lw	$1, 60($sp)
        00117103 00001210 1304		sra	$14, $17, 4
        000e6840 00001214 1305		sll	$13, $14, 1
        002dc821 00001218 1306		addu	$25, $1, $13
        97380000 0000121c 1307		lhu	$24, 0($25)
        8fa10034 00001220 1308		lw	$1, 52($sp)
        322f000f 00001224 1309		andi	$15, $17, 15
        a0380008 00001228 1310		sb	$24, 8($1)
        8fa1003c 0000122c 1311		lw	$1, 60($sp)
        000f7040 00001230 1312		sll	$14, $15, 1
        002e6821 00001234 1313		addu	$13, $1, $14
        95b90000 00001238 1314		lhu	$25, 0($13)
        8fa10034 0000123c 1315		lw	$1, 52($sp)
        8fb10040 00001240 1316		lw	$17, 64($sp)
        a0390009 00001244 1317		sb	$25, 9($1)
        92310005 00001248 1318		lbu	$17, 5($17)
        8fa1003c 0000124c 1319		lw	$1, 60($sp)
        0011c103 00001250 1320		sra	$24, $17, 4
        00187840 00001254 1321		sll	$15, $24, 1
        002f7021 00001258 1322		addu	$14, $1, $15
        95cd0000 0000125c 1323		lhu	$13, 0($14)
        8fa10034 00001260 1324		lw	$1, 52($sp)
        3239000f 00001264 1325		andi	$25, $17, 15
        a02d000a 00001268 1326		sb	$13, 10($1)
        8fa1003c 0000126c 1327		lw	$1, 60($sp)
        0019c040 00001270 1328		sll	$24, $25, 1
        00387821 00001274 1329		addu	$15, $1, $24
        95ee0000 00001278 1330		lhu	$14, 0($15)
        8fa10034 0000127c 1331		lw	$1, 52($sp)
        8fb10040 00001280 1332		lw	$17, 64($sp)
        a02e000b 00001284 1333		sb	$14, 11($1)
        92310006 00001288 1334		lbu	$17, 6($17)
        8fa1003c 0000128c 1335		lw	$1, 60($sp)
        00116903 00001290 1336		sra	$13, $17, 4
        000dc840 00001294 1337		sll	$25, $13, 1
        0039c021 00001298 1338		addu	$24, $1, $25
        970f0000 0000129c 1339		lhu	$15, 0($24)
        8fa10034 000012a0 1340		lw	$1, 52($sp)
        322e000f 000012a4 1341		andi	$14, $17, 15
        a02f000c 000012a8 1342		sb	$15, 12($1)
        8fa1003c 000012ac 1343		lw	$1, 60($sp)
        000e6840 000012b0 1344		sll	$13, $14, 1
        002dc821 000012b4 1345		addu	$25, $1, $13

                                   Tue Apr 07 08:57:48 2015           Page 26
                                   Tue Apr 07 08:57:47 2015       gh_2i0a8.s
        97380000 000012b8 1346		lhu	$24, 0($25)
        8fa10034 000012bc 1347		lw	$1, 52($sp)
        8fb10040 000012c0 1348		lw	$17, 64($sp)
        a038000d 000012c4 1349		sb	$24, 13($1)
        92310007 000012c8 1350		lbu	$17, 7($17)
        8fa1003c 000012cc 1351		lw	$1, 60($sp)
        00117903 000012d0 1352		sra	$15, $17, 4
        000f7040 000012d4 1353		sll	$14, $15, 1
        002e6821 000012d8 1354		addu	$13, $1, $14
        95b90000 000012dc 1355		lhu	$25, 0($13)
        8fa10034 000012e0 1356		lw	$1, 52($sp)
        3238000f 000012e4 1357		andi	$24, $17, 15
        a039000e 000012e8 1358		sb	$25, 14($1)
        8fa1003c 000012ec 1359		lw	$1, 60($sp)
        00187840 000012f0 1360		sll	$15, $24, 1
        002f7021 000012f4 1361		addu	$14, $1, $15
        8fa10034 000012f8 1362		lw	$1, 52($sp)
        95cd0000 000012fc 1363		lhu	$13, 0($14)
        242c0010 00001300 1364		addiu	$12, $1, 16
        a02d000f 00001304 1365		sb	$13, 15($1)
        8fa10040 00001308 1366		lw	$1, 64($sp)
        afac0034 0000130c 1367		sw	$12, 52($sp)
        2463ffff 00001310 1368		addiu	$3, $3, -1
        242c0008 00001314 1369		addiu	$12, $1, 8
        afac0040 00001318 1370		sw	$12, 64($sp)
        1460ff7b 0000131c 1371		bne	$3, $0, .L1187
        90310008 00001320 1372		lbu	$17, 8($1)
                          1373	.L1179:
        8fa100bc 00001324 1374		lw	$1, 188($sp)
        30230007 00001328 1375		andi	$3, $1, 7
        50600018 0000132c 1376		beql	$3, $0, .L1000553
        8fa10054 00001330 1377		lw	$1, 84($sp)
                          1378	.L1190:
        8fa1003c 00001334 1379		lw	$1, 60($sp)
        00117903 00001338 1380		sra	$15, $17, 4
        000f7040 0000133c 1381		sll	$14, $15, 1
        002e6821 00001340 1382		addu	$13, $1, $14
        95b90000 00001344 1383		lhu	$25, 0($13)
        8fa10034 00001348 1384		lw	$1, 52($sp)
        3238000f 0000134c 1385		andi	$24, $17, 15
        a0390000 00001350 1386		sb	$25, 0($1)
        8fa1003c 00001354 1387		lw	$1, 60($sp)
        00187840 00001358 1388		sll	$15, $24, 1
        002f7021 0000135c 1389		addu	$14, $1, $15
        8fa10034 00001360 1390		lw	$1, 52($sp)
        95cd0000 00001364 1391		lhu	$13, 0($14)
        242c0002 00001368 1392		addiu	$12, $1, 2
        a02d0001 0000136c 1393		sb	$13, 1($1)
        8fa10040 00001370 1394		lw	$1, 64($sp)
        afac0034 00001374 1395		sw	$12, 52($sp)
        2463ffff 00001378 1396		addiu	$3, $3, -1
        242c0001 0000137c 1397		addiu	$12, $1, 1
        afac0040 00001380 1398		sw	$12, 64($sp)
        1460ffeb 00001384 1399		bne	$3, $0, .L1190
        90310001 00001388 1400		lbu	$17, 1($1)
                          1401	.L553:

                                   Tue Apr 07 08:57:48 2015           Page 27
                                   Tue Apr 07 08:57:47 2015       gh_2i0a8.s
        8fa10054 0000138c 1402		lw	$1, 84($sp)
                          1403	.L1000553:
        502000be 00001390 1404		beql	$1, $0, .L1000473
        8fa10060 00001394 1405		lw	$1, 96($sp)
        8fa1003c 00001398 1406		lw	$1, 60($sp)
        00117903 0000139c 1407		sra	$15, $17, 4
        000f7040 000013a0 1408		sll	$14, $15, 1
        002e6821 000013a4 1409		addu	$13, $1, $14
        95b90000 000013a8 1410		lhu	$25, 0($13)
        8fa10034 000013ac 1411		lw	$1, 52($sp)
        8fac00a0 000013b0 1412		lw	$12, 160($sp)
        a0390000 000013b4 1413		sb	$25, 0($1)
        8fa10060 000013b8 1414		lw	$1, 96($sp)
        002c6021 000013bc 1415		addu	$12, $1, $12
        8fa10078 000013c0 1416		lw	$1, 120($sp)
        afac0060 000013c4 1417		sw	$12, 96($sp)
        242c0001 000013c8 1418		addiu	$12, $1, 1
        8fa100b4 000013cc 1419		lw	$1, 180($sp)
        afac0078 000013d0 1420		sw	$12, 120($sp)
        02d5b021 000013d4 1421		addu	$22, $22, $21
        242c0001 000013d8 1422		addiu	$12, $1, 1
        01800825 000013dc 1423		move	$1, $12
        0033702a 000013e0 1424		slt	$14, $1, $19
        15c0fcfa 000013e4 1425		bne	$14, $0, .L471
        afac00b4 000013e8 1426		sw	$12, 180($sp)
        08000000 000013ec 1427		j	.L1000428
        8fbe0020 000013f0 1428		lw	$fp, 32($sp)
                          1429	.L555:
        13200057 000013f4 1430		beq	$25, $0, .L567
        322f00f0 000013f8 1431		andi	$15, $17, 240
        51e00012 000013fc 1432		beql	$15, $0, .L1000559
        8fa10034 00001400 1433		lw	$1, 52($sp)
        8fa1003c 00001404 1434		lw	$1, 60($sp)
        00116903 00001408 1435		sra	$13, $17, 4
        000dc840 0000140c 1436		sll	$25, $13, 1
        0039c021 00001410 1437		addu	$24, $1, $25
        8fa10034 00001414 1438		lw	$1, 52($sp)
        970f0000 00001418 1439		lhu	$15, 0($24)
        a02f0000 0000141c 1440		sb	$15, 0($1)
        8fa10074 00001420 1441		lw	$1, 116($sp)
        50200008 00001424 1442		beql	$1, $0, .L1000559
        8fa10034 00001428 1443		lw	$1, 52($sp)
        8fa40104 0000142c 1444		lw	$4, 260($sp)
        8c8d0008 00001430 1445		lw	$13, 8($4)
        8dad0000 00001434 1446		lw	$13, 0($13)
        8fa500e0 00001438 1447		lw	$5, 224($sp)
        01a0f809 0000143c 1448		jalr	$13
        8fa600dc 00001440 1449		lw	$6, 220($sp)
        8fa10034 00001444 1450		lw	$1, 52($sp)
                          1451	.L1000559:
        242c0001 00001448 1452		addiu	$12, $1, 1
        8fa100e0 0000144c 1453		lw	$1, 224($sp)
        afac0034 00001450 1454		sw	$12, 52($sp)
        242c0001 00001454 1455		addiu	$12, $1, 1
        8fa10054 00001458 1456		lw	$1, 84($sp)
        afac00e0 0000145c 1457		sw	$12, 224($sp)

                                   Tue Apr 07 08:57:48 2015           Page 28
                                   Tue Apr 07 08:57:47 2015       gh_2i0a8.s
        242cffff 00001460 1458		addiu	$12, $1, -1
        8fa10040 00001464 1459		lw	$1, 64($sp)
        afac0054 00001468 1460		sw	$12, 84($sp)
        90310001 0000146c 1461		lbu	$17, 1($1)
        242c0001 00001470 1462		addiu	$12, $1, 1
        8fa10054 00001474 1463		lw	$1, 84($sp)
        afac0040 00001478 1464		sw	$12, 64($sp)
        282d0002 0000147c 1465		slti	$13, $1, 2
        55a00039 00001480 1466		bnel	$13, $0, .L1000568
        8fa10054 00001484 1467		lw	$1, 84($sp)
        323900f0 00001488 1468		andi	$25, $17, 240
                          1469	.L1000560:
        53200012 0000148c 1470		beql	$25, $0, .L1000563
        3231000f 00001490 1471		andi	$17, $17, 15
        8fa1003c 00001494 1472		lw	$1, 60($sp)
        00117903 00001498 1473		sra	$15, $17, 4
        000f7040 0000149c 1474		sll	$14, $15, 1
        002e6821 000014a0 1475		addu	$13, $1, $14
        8fa10034 000014a4 1476		lw	$1, 52($sp)
        95b90000 000014a8 1477		lhu	$25, 0($13)
        a0390000 000014ac 1478		sb	$25, 0($1)
        8fa10074 000014b0 1479		lw	$1, 116($sp)
        50200008 000014b4 1480		beql	$1, $0, .L1000563
        3231000f 000014b8 1481		andi	$17, $17, 15
        8fa40104 000014bc 1482		lw	$4, 260($sp)
        8c8f0008 000014c0 1483		lw	$15, 8($4)
        8def0000 000014c4 1484		lw	$15, 0($15)
        8fa500e0 000014c8 1485		lw	$5, 224($sp)
        01e0f809 000014cc 1486		jalr	$15
        8fa600dc 000014d0 1487		lw	$6, 220($sp)
        3231000f 000014d4 1488		andi	$17, $17, 15
                          1489	.L1000563:
        52200012 000014d8 1490		beql	$17, $0, .L1000566
        8fa10034 000014dc 1491		lw	$1, 52($sp)
        8fa1003c 000014e0 1492		lw	$1, 60($sp)
        00116840 000014e4 1493		sll	$13, $17, 1
        002dc821 000014e8 1494		addu	$25, $1, $13
        8fa10034 000014ec 1495		lw	$1, 52($sp)
        97380000 000014f0 1496		lhu	$24, 0($25)
        a0380001 000014f4 1497		sb	$24, 1($1)
        8fa10074 000014f8 1498		lw	$1, 116($sp)
        50200009 000014fc 1499		beql	$1, $0, .L1000566
        8fa10034 00001500 1500		lw	$1, 52($sp)
        8fa40104 00001504 1501		lw	$4, 260($sp)
        8c8e0008 00001508 1502		lw	$14, 8($4)
        8fa100e0 0000150c 1503		lw	$1, 224($sp)
        8dce0000 00001510 1504		lw	$14, 0($14)
        8fa600dc 00001514 1505		lw	$6, 220($sp)
        01c0f809 00001518 1506		jalr	$14
        24250001 0000151c 1507		addiu	$5, $1, 1
        8fa10034 00001520 1508		lw	$1, 52($sp)
                          1509	.L1000566:
        242c0002 00001524 1510		addiu	$12, $1, 2
        8fa100e0 00001528 1511		lw	$1, 224($sp)
        afac0034 0000152c 1512		sw	$12, 52($sp)
        242c0002 00001530 1513		addiu	$12, $1, 2

                                   Tue Apr 07 08:57:48 2015           Page 29
                                   Tue Apr 07 08:57:47 2015       gh_2i0a8.s
        8fa10054 00001534 1514		lw	$1, 84($sp)
        afac00e0 00001538 1515		sw	$12, 224($sp)
        242cfffe 0000153c 1516		addiu	$12, $1, -2
        8fa10040 00001540 1517		lw	$1, 64($sp)
        afac0054 00001544 1518		sw	$12, 84($sp)
        90310001 00001548 1519		lbu	$17, 1($1)
        242c0001 0000154c 1520		addiu	$12, $1, 1
        afac0040 00001550 1521		sw	$12, 64($sp)
                          1522	.L567:
        8fa10054 00001554 1523		lw	$1, 84($sp)
        282d0002 00001558 1524		slti	$13, $1, 2
        51a0ffcb 0000155c 1525		beql	$13, $0, .L1000560
        323900f0 00001560 1526		andi	$25, $17, 240
        8fa10054 00001564 1527		lw	$1, 84($sp)
                          1528	.L1000568:
        10200047 00001568 1529		beq	$1, $0, .L473
        00118902 0000156c 1530		srl	$17, $17, 4
        323100ff 00001570 1531		andi	$17, $17, 255
        52200045 00001574 1532		beql	$17, $0, .L1000473
        8fa10060 00001578 1533		lw	$1, 96($sp)
        8fa1003c 0000157c 1534		lw	$1, 60($sp)
        00117840 00001580 1535		sll	$15, $17, 1
        002f7021 00001584 1536		addu	$14, $1, $15
        8fa10034 00001588 1537		lw	$1, 52($sp)
        95cd0000 0000158c 1538		lhu	$13, 0($14)
        a02d0000 00001590 1539		sb	$13, 0($1)
        8fa10074 00001594 1540		lw	$1, 116($sp)
        5020003c 00001598 1541		beql	$1, $0, .L1000473
        8fa10060 0000159c 1542		lw	$1, 96($sp)
        8fa40104 000015a0 1543		lw	$4, 260($sp)
        8c980008 000015a4 1544		lw	$24, 8($4)
        8f180000 000015a8 1545		lw	$24, 0($24)
        8fa500e0 000015ac 1546		lw	$5, 224($sp)
        0300f809 000015b0 1547		jalr	$24
        8fa600dc 000015b4 1548		lw	$6, 220($sp)
        8fa10060 000015b8 1549		lw	$1, 96($sp)
        8fac00a0 000015bc 1550		lw	$12, 160($sp)
        002c6021 000015c0 1551		addu	$12, $1, $12
        8fa10078 000015c4 1552		lw	$1, 120($sp)
        afac0060 000015c8 1553		sw	$12, 96($sp)
        242c0001 000015cc 1554		addiu	$12, $1, 1
        8fa100b4 000015d0 1555		lw	$1, 180($sp)
        afac0078 000015d4 1556		sw	$12, 120($sp)
        02d5b021 000015d8 1557		addu	$22, $22, $21
        242c0001 000015dc 1558		addiu	$12, $1, 1
        01800825 000015e0 1559		move	$1, $12
        0033702a 000015e4 1560		slt	$14, $1, $19
        15c0fc79 000015e8 1561		bne	$14, $0, .L471
        afac00b4 000015ec 1562		sw	$12, 180($sp)
        08000000 000015f0 1563		j	.L1000428
        8fbe0020 000015f4 1564		lw	$fp, 32($sp)
                          1565	.L572:
        8fa10054 000015f8 1566		lw	$1, 84($sp)
        0023782a 000015fc 1567		slt	$15, $1, $3
        11e00003 00001600 1568		beq	$15, $0, .L1000574
        8fa10054 00001604 1569		lw	$1, 84($sp)

                                   Tue Apr 07 08:57:48 2015           Page 30
                                   Tue Apr 07 08:57:47 2015       gh_2i0a8.s
                          1570	.L1000573:
        302300ff 00001608 1571		andi	$3, $1, 255
        8fa10054 0000160c 1572		lw	$1, 84($sp)
                          1573	.L1000574:
        00236023 00001610 1574		subu	$12, $1, $3
        afac0054 00001614 1575		sw	$12, 84($sp)
                          1576	.L575:
        322e00c0 00001618 1577		andi	$14, $17, 192
        11c00005 0000161c 1578		beq	$14, $0, .L1000577
        8fa10034 00001620 1579		lw	$1, 52($sp)
        90390000 00001624 1580		lbu	$25, 0($1)
        3b3900ff 00001628 1581		xori	$25, $25, 255
        a0390000 0000162c 1582		sb	$25, 0($1)
        8fa10034 00001630 1583		lw	$1, 52($sp)
                          1584	.L1000577:
        00118900 00001634 1585		sll	$17, $17, 4
        323100ff 00001638 1586		andi	$17, $17, 255
        242c0001 0000163c 1587		addiu	$12, $1, 1
        2463ffff 00001640 1588		addiu	$3, $3, -1
        306300ff 00001644 1589		andi	$3, $3, 255
        1460fff3 00001648 1590		bne	$3, $0, .L575
        afac0034 0000164c 1591		sw	$12, 52($sp)
        8fa10054 00001650 1592		lw	$1, 84($sp)
        5020000d 00001654 1593		beql	$1, $0, .L1000473
        8fa10060 00001658 1594		lw	$1, 96($sp)
        8fa10040 0000165c 1595		lw	$1, 64($sp)
        90310001 00001660 1596		lbu	$17, 1($1)
        242c0001 00001664 1597		addiu	$12, $1, 1
        8fa10054 00001668 1598		lw	$1, 84($sp)
        afac0040 0000166c 1599		sw	$12, 64($sp)
        34030002 00001670 1600		ori	$3, $0, 2
        0023782a 00001674 1601		slt	$15, $1, $3
        55e0ffe3 00001678 1602		bnel	$15, $0, .L1000573
        8fa10054 0000167c 1603		lw	$1, 84($sp)
        08000000 00001680 1604		j	.L1000574
        8fa10054 00001684 1605		lw	$1, 84($sp)
                          1606	.L473:
        8fa10060 00001688 1607		lw	$1, 96($sp)
                          1608	.L1000473:
        8fac00a0 0000168c 1609		lw	$12, 160($sp)
        002c6021 00001690 1610		addu	$12, $1, $12
        8fa10078 00001694 1611		lw	$1, 120($sp)
        afac0060 00001698 1612		sw	$12, 96($sp)
        242c0001 0000169c 1613		addiu	$12, $1, 1
        8fa100b4 000016a0 1614		lw	$1, 180($sp)
        afac0078 000016a4 1615		sw	$12, 120($sp)
        02d5b021 000016a8 1616		addu	$22, $22, $21
        242c0001 000016ac 1617		addiu	$12, $1, 1
        01800825 000016b0 1618		move	$1, $12
        0033702a 000016b4 1619		slt	$14, $1, $19
        15c0fc45 000016b8 1620		bne	$14, $0, .L471
        afac00b4 000016bc 1621		sw	$12, 180($sp)
                          1622	.L428:
        8fbe0020 000016c0 1623		lw	$fp, 32($sp)
                          1624	.L1000428:
                          1625	 #	    .ef

                                   Tue Apr 07 08:57:48 2015           Page 31
                                   Tue Apr 07 08:57:47 2015       gh_2i0a8.s
        8fb7001c 000016c4 1626		lw	$23, 28($sp)
        8fbf010c 000016c8 1627		lw	$ra, 268($sp)
        8fb00000 000016cc 1628		lw	$16, 0($sp)
        8fb10004 000016d0 1629		lw	$17, 4($sp)
        8fb20008 000016d4 1630		lw	$18, 8($sp)
        8fb3000c 000016d8 1631		lw	$19, 12($sp)
        8fb40010 000016dc 1632		lw	$20, 16($sp)
        8fb50014 000016e0 1633		lw	$21, 20($sp)
        8fb60018 000016e4 1634		lw	$22, 24($sp)
        03e00008 000016e8 1635		jr	$ra
        27bd0110 000016ec 1636		addiu	$sp, $sp, 272
                          1637		.type	_DrawBitmap,@function
                          1638		.size	_DrawBitmap,.-_DrawBitmap
                          1639		.align	4
                          1640	 #i	180($sp)	local
                          1641	 #pDev	204($sp)	local
                          1642	 #pUsage	260($sp)	local
                          1643	 #BytesPerLineDest	160($sp)	local
                          1644	 #pDest	96($sp)	local
                          1645	 #x	248($sp)	local
                          1646	 #y	232($sp)	local
                          1647	 #pSrc	$19	local
                          1648	 #xsize	$20	local
                          1649	 #pTrans	92($sp)	local
                          1650	 #pDest	$23	local
                          1651	 #x	244($sp)	local
                          1652	 #y	228($sp)	local
                          1653	 #pSrc	$19	local
                          1654	 #xsize	$20	local
                          1655	 #pDest	$23	local
                          1656	 #x	256($sp)	local
                          1657	 #y	240($sp)	local
                          1658	 #p	76($sp)	local
                          1659	 #xsize	68($sp)	local
                          1660	 #pTrans	$3	local
                          1661	 #pDest	44($sp)	local
                          1662	 #Index1	43($sp)	local
                          1663	 #IndexMask	$3	local
                          1664	 #pixels	$17	local
                          1665	 #PixelCnt	48($sp)	local
                          1666	 #x	252($sp)	local
                          1667	 #y	236($sp)	local
                          1668	 #p	80($sp)	local
                          1669	 #xsize	72($sp)	local
                          1670	 #pTrans	88($sp)	local
                          1671	 #pDest	56($sp)	local
                          1672	 #pixels	42($sp)	local
                          1673	 #PixelCnt	$17	local
                          1674	 #x	224($sp)	local
                          1675	 #y	220($sp)	local
                          1676	 #p	64($sp)	local
                          1677	 #Diff	$25	local
                          1678	 #xsize	84($sp)	local
                          1679	 #pTrans	60($sp)	local
                          1680	 #pDest	52($sp)	local
                          1681	 #pixels	$17	local

                                   Tue Apr 07 08:57:48 2015           Page 32
                                   Tue Apr 07 08:57:47 2015       gh_2i0a8.s
                          1682	 #PixelCnt	$3	local
                          1683	 #i	$2	local
                          1684	
                          1685	 #x0	$16	param
                          1686	 #y0	$17	param
                          1687	 #xsize	$18	param
                          1688	 #ysize	$19	param
                          1689	 #BitsPerPixel	$20	param
                          1690	 #BytesPerLine	$21	param
                          1691	 #pData	$22	param
                          1692	 #Diff	$23	param
                          1693	 #pTrans	$fp	param
                          1694	
                          1695		.data
                          1696	.L1880:
                          1697		.text
                          1698		.align	4
                          1699		.align	4
                          1700	_FillRect:
        27bdffd8 000016f0 1701		addiu	$sp, $sp, -40
                          1702	 #	    .bf
        afbf0024 000016f4 1703		sw	$ra, 36($sp)
        afb7001c 000016f8 1704		sw	$23, 28($sp)
        afb60018 000016fc 1705		sw	$22, 24($sp)
        afb50014 00001700 1706		sw	$21, 20($sp)
        afb40010 00001704 1707		sw	$20, 16($sp)
        afb00000 00001708 1708		sw	$16, 0($sp)
        00808025 0000170c 1709		move	$16, $4
        afb10004 00001710 1710		sw	$17, 4($sp)
        00a08825 00001714 1711		move	$17, $5
        afb20008 00001718 1712		sw	$18, 8($sp)
        00c09025 0000171c 1713		move	$18, $6
        afb3000c 00001720 1714		sw	$19, 12($sp)
        00e09825 00001724 1715		move	$19, $7
        3c010000 00001728 1716		lui	$1, %hi(GUI_Context+80)
        0c000000 0000172c 1717		jal	GUI_ALLOC_h2p
        84240000 00001730 1718		lh	$4, %lo(GUI_Context+80)($1)
        0040a825 00001734 1719		move	$21, $2
        02002025 00001738 1720		move	$4, $16
        0c000000 0000173c 1721		jal	_XY2PTR
        02202825 00001740 1722		move	$5, $17
        0250c823 00001744 1723		subu	$25, $18, $16
        86a30018 00001748 1724		lh	$3, 24($21)
        27320001 0000174c 1725		addiu	$18, $25, 1
        8eb7000c 00001750 1726		lw	$23, 12($21)
        10600045 00001754 1727		beq	$3, $0, .L2306
        0040a025 00001758 1728		move	$20, $2
        0c000000 0000175c 1729		jal	GUI_ALLOC_h2p
        00602025 00001760 1730		move	$4, $3
        00402025 00001764 1731		move	$4, $2
        02002825 00001768 1732		move	$5, $16
        02203025 0000176c 1733		move	$6, $17
        02403825 00001770 1734		move	$7, $18
        02717823 00001774 1735		subu	$15, $19, $17
        0c000000 00001778 1736		jal	GUI_USAGE_AddRect
        25e80001 0000177c 1737		addiu	$8, $15, 1

                                   Tue Apr 07 08:57:48 2015           Page 33
                                   Tue Apr 07 08:57:47 2015       gh_2i0a8.s
        0271682a 00001780 1738		slt	$13, $19, $17
        15a0003c 00001784 1739		bne	$13, $0, .L2299
        3c030000 00001788 1740		lui	$3, %hi(GUI_Context)
                          1741	.L1002305:
        24630000 0000178c 1742		addiu	$3, $3, %lo(GUI_Context)
        906d0010 00001790 1743		lbu	$13, 16($3)
        31ae0001 00001794 1744		andi	$14, $13, 1
        51c0002f 00001798 1745		beql	$14, $0, .L1002307
        02802025 0000179c 1746		move	$4, $20
        8ea30024 000017a0 1747		lw	$3, 36($21)
        0240b025 000017a4 1748		move	$22, $18
        0060f809 000017a8 1749		jalr	$3
        02808025 000017ac 1750		move	$16, $20
        304300ff 000017b0 1751		andi	$3, $2, 255
        001610c2 000017b4 1752		srl	$2, $22, 3
        5040001d 000017b8 1753		beql	$2, $0, .L1002348
        32c20007 000017bc 1754		andi	$2, $22, 7
                          1755	.L2356:
        920e0000 000017c0 1756		lbu	$14, 0($16)
        92190001 000017c4 1757		lbu	$25, 1($16)
        01c37826 000017c8 1758		xor	$15, $14, $3
        a20f0000 000017cc 1759		sb	$15, 0($16)
        920f0002 000017d0 1760		lbu	$15, 2($16)
        03236826 000017d4 1761		xor	$13, $25, $3
        a20d0001 000017d8 1762		sb	$13, 1($16)
        01e3c026 000017dc 1763		xor	$24, $15, $3
        a2180002 000017e0 1764		sb	$24, 2($16)
        92180004 000017e4 1765		lbu	$24, 4($16)
        920d0003 000017e8 1766		lbu	$13, 3($16)
        26100008 000017ec 1767		addiu	$16, $16, 8
        0303c826 000017f0 1768		xor	$25, $24, $3
        a219fffc 000017f4 1769		sb	$25, -4($16)
        01a37026 000017f8 1770		xor	$14, $13, $3
        a20efffb 000017fc 1771		sb	$14, -5($16)
        920efffd 00001800 1772		lbu	$14, -3($16)
        9219fffe 00001804 1773		lbu	$25, -2($16)
        2442ffff 00001808 1774		addiu	$2, $2, -1
        01c37826 0000180c 1775		xor	$15, $14, $3
        a20ffffd 00001810 1776		sb	$15, -3($16)
        920fffff 00001814 1777		lbu	$15, -1($16)
        03236826 00001818 1778		xor	$13, $25, $3
        a20dfffe 0000181c 1779		sb	$13, -2($16)
        01e3c026 00001820 1780		xor	$24, $15, $3
        1440ffe6 00001824 1781		bne	$2, $0, .L2356
        a218ffff 00001828 1782		sb	$24, -1($16)
        32c20007 0000182c 1783		andi	$2, $22, 7
                          1784	.L1002348:
        5040000d 00001830 1785		beql	$2, $0, .L1002312
        0297a021 00001834 1786		addu	$20, $20, $23
                          1787	.L2359:
        92180000 00001838 1788		lbu	$24, 0($16)
        26100001 0000183c 1789		addiu	$16, $16, 1
        2442ffff 00001840 1790		addiu	$2, $2, -1
        0303c826 00001844 1791		xor	$25, $24, $3
        1440fffb 00001848 1792		bne	$2, $0, .L2359
        a219ffff 0000184c 1793		sb	$25, -1($16)

                                   Tue Apr 07 08:57:48 2015           Page 34
                                   Tue Apr 07 08:57:47 2015       gh_2i0a8.s
        08000000 00001850 1794		j	.L1002312
        0297a021 00001854 1795		addu	$20, $20, $23
                          1796	.L1002307:
        90650002 00001858 1797		lbu	$5, 2($3)
        0c000000 0000185c 1798		jal	GUI__memset
        02403025 00001860 1799		move	$6, $18
        0297a021 00001864 1800		addu	$20, $20, $23
                          1801	.L1002312:
        26310001 00001868 1802		addiu	$17, $17, 1
                          1803	.L2306:
        0271682a 0000186c 1804		slt	$13, $19, $17
        51a0ffc6 00001870 1805		beql	$13, $0, .L1002305
        3c030000 00001874 1806		lui	$3, %hi(GUI_Context)
                          1807	.L2299:
        8fb7001c 00001878 1808		lw	$23, 28($sp)
                          1809	 #	    .ef
        8fb60018 0000187c 1810		lw	$22, 24($sp)
        8fbf0024 00001880 1811		lw	$ra, 36($sp)
        8fb00000 00001884 1812		lw	$16, 0($sp)
        8fb10004 00001888 1813		lw	$17, 4($sp)
        8fb20008 0000188c 1814		lw	$18, 8($sp)
        8fb3000c 00001890 1815		lw	$19, 12($sp)
        8fb40010 00001894 1816		lw	$20, 16($sp)
        8fb50014 00001898 1817		lw	$21, 20($sp)
        03e00008 0000189c 1818		jr	$ra
        27bd0028 000018a0 1819		addiu	$sp, $sp, 40
                          1820		.type	_FillRect,@function
                          1821		.size	_FillRect,.-_FillRect
                          1822		.align	4
                          1823	 #BytesPerLine	$23	local
                          1824	 #Len	$18	local
                          1825	 #pDev	$21	local
                          1826	 #pData	$20	local
                          1827	 #RemPixels	$2	local
                          1828	 #pDest	$16	local
                          1829	 #IndexMask	$3	local
                          1830	
                          1831	 #x0	$16	param
                          1832	 #y0	$17	param
                          1833	 #x1	$18	param
                          1834	 #y1	$19	param
                          1835	
                          1836		.data
                          1837	.L2410:
                          1838		.text
                          1839		.align	4
                          1840		.align	4
                          1841	_DrawHLine:
                          1842	 #	    .bf
        08000000 000018a4 1843		j	_FillRect
        00a03825 000018a8 1844		move	$7, $5
                          1845	 #	    .ef
                          1846		.type	_DrawHLine,@function
                          1847		.size	_DrawHLine,.-_DrawHLine
                          1848		.align	4
                          1849	

                                   Tue Apr 07 08:57:48 2015           Page 35
                                   Tue Apr 07 08:57:47 2015       gh_2i0a8.s
                          1850	 #x0	none	param
                          1851	 #y	none	param
                          1852	 #x1	none	param
                          1853	
                          1854		.data
                          1855	.L2452:
                          1856		.text
                          1857		.align	4
                          1858		.align	4
                          1859	_DrawVLine:
        27bdffc8 000018ac 1860		addiu	$sp, $sp, -56
                          1861	 #	    .bf
        afbf0034 000018b0 1862		sw	$ra, 52($sp)
        afbe0020 000018b4 1863		sw	$fp, 32($sp)
        afb60018 000018b8 1864		sw	$22, 24($sp)
        afb50014 000018bc 1865		sw	$21, 20($sp)
        afb40010 000018c0 1866		sw	$20, 16($sp)
        afb3000c 000018c4 1867		sw	$19, 12($sp)
        afb00000 000018c8 1868		sw	$16, 0($sp)
        00808025 000018cc 1869		move	$16, $4
        afb10004 000018d0 1870		sw	$17, 4($sp)
        00a08825 000018d4 1871		move	$17, $5
        afb20008 000018d8 1872		sw	$18, 8($sp)
        00c09025 000018dc 1873		move	$18, $6
        afb7001c 000018e0 1874		sw	$23, 28($sp)
        3c170000 000018e4 1875		lui	$23, %hi(GUI_Context)
        26f70000 000018e8 1876		addiu	$23, $23, %lo(GUI_Context)
        0c000000 000018ec 1877		jal	GUI_ALLOC_h2p
        86e40050 000018f0 1878		lh	$4, 80($23)
        0040b025 000018f4 1879		move	$22, $2
        86de0018 000018f8 1880		lh	$fp, 24($22)
        34030000 000018fc 1881		ori	$3, $0, 0
        53c00005 00001900 1882		beql	$fp, $0, .L1002459
        0060a025 00001904 1883		move	$20, $3
        0c000000 00001908 1884		jal	GUI_ALLOC_h2p
        03c02025 0000190c 1885		move	$4, $fp
        00401825 00001910 1886		move	$3, $2
        0060a025 00001914 1887		move	$20, $3
                          1888	.L1002459:
        02002025 00001918 1889		move	$4, $16
        0c000000 0000191c 1890		jal	_XY2PTR
        02202825 00001920 1891		move	$5, $17
        92ef0010 00001924 1892		lbu	$15, 16($23)
        8ed5000c 00001928 1893		lw	$21, 12($22)
        00409825 0000192c 1894		move	$19, $2
        31f80001 00001930 1895		andi	$24, $15, 1
        13000094 00001934 1896		beq	$24, $0, .L2461
        00000000 00001938 1897		nop
        8ec30024 0000193c 1898		lw	$3, 36($22)
        0060f809 00001940 1899		jalr	$3
        00000000 00001944 1900		nop
        304200ff 00001948 1901		andi	$2, $2, 255
        02516823 0000194c 1902		subu	$13, $18, $17
        34190000 00001950 1903		ori	$25, $0, 0
        032dc02a 00001954 1904		slt	$24, $25, $13
        13000002 00001958 1905		beq	$24, $0, .L2736

                                   Tue Apr 07 08:57:48 2015           Page 36
                                   Tue Apr 07 08:57:47 2015       gh_2i0a8.s
        0040a825 0000195c 1906		move	$21, $2
        01a0c825 00001960 1907		move	$25, $13
                          1908	.L2736:
        272c0001 00001964 1909		addiu	$12, $25, 1
        000cb8c2 00001968 1910		srl	$23, $12, 3
        12e00066 0000196c 1911		beq	$23, $0, .L2531
        afac002c 00001970 1912		sw	$12, 44($sp)
        2fd20001 00001974 1913		sltiu	$18, $fp, 1
                          1914	.L2532:
        56400008 00001978 1915		bnel	$18, $0, .L1002535
        92780000 0000197c 1916		lbu	$24, 0($19)
        8e8d0008 00001980 1917		lw	$13, 8($20)
        8dad0000 00001984 1918		lw	$13, 0($13)
        02002825 00001988 1919		move	$5, $16
        02802025 0000198c 1920		move	$4, $20
        01a0f809 00001990 1921		jalr	$13
        02203025 00001994 1922		move	$6, $17
        92780000 00001998 1923		lbu	$24, 0($19)
                          1924	.L1002535:
        0315c826 0000199c 1925		xor	$25, $24, $21
        a2790000 000019a0 1926		sb	$25, 0($19)
        8ecf000c 000019a4 1927		lw	$15, 12($22)
        16400007 000019a8 1928		bne	$18, $0, .L2538
        026f9821 000019ac 1929		addu	$19, $19, $15
        8e8d0008 000019b0 1930		lw	$13, 8($20)
        8dad0000 000019b4 1931		lw	$13, 0($13)
        02002825 000019b8 1932		move	$5, $16
        02802025 000019bc 1933		move	$4, $20
        01a0f809 000019c0 1934		jalr	$13
        26260001 000019c4 1935		addiu	$6, $17, 1
                          1936	.L2538:
        92780000 000019c8 1937		lbu	$24, 0($19)
        0315c826 000019cc 1938		xor	$25, $24, $21
        a2790000 000019d0 1939		sb	$25, 0($19)
        8ecf000c 000019d4 1940		lw	$15, 12($22)
        16400007 000019d8 1941		bne	$18, $0, .L2541
        026f9821 000019dc 1942		addu	$19, $19, $15
        8e8d0008 000019e0 1943		lw	$13, 8($20)
        8dad0000 000019e4 1944		lw	$13, 0($13)
        02002825 000019e8 1945		move	$5, $16
        02802025 000019ec 1946		move	$4, $20
        01a0f809 000019f0 1947		jalr	$13
        26260002 000019f4 1948		addiu	$6, $17, 2
                          1949	.L2541:
        92780000 000019f8 1950		lbu	$24, 0($19)
        0315c826 000019fc 1951		xor	$25, $24, $21
        a2790000 00001a00 1952		sb	$25, 0($19)
        8ecf000c 00001a04 1953		lw	$15, 12($22)
        16400007 00001a08 1954		bne	$18, $0, .L2544
        026f9821 00001a0c 1955		addu	$19, $19, $15
        8e8d0008 00001a10 1956		lw	$13, 8($20)
        8dad0000 00001a14 1957		lw	$13, 0($13)
        02002825 00001a18 1958		move	$5, $16
        02802025 00001a1c 1959		move	$4, $20
        01a0f809 00001a20 1960		jalr	$13
        26260003 00001a24 1961		addiu	$6, $17, 3

                                   Tue Apr 07 08:57:48 2015           Page 37
                                   Tue Apr 07 08:57:47 2015       gh_2i0a8.s
                          1962	.L2544:
        92780000 00001a28 1963		lbu	$24, 0($19)
        0315c826 00001a2c 1964		xor	$25, $24, $21
        a2790000 00001a30 1965		sb	$25, 0($19)
        8ecf000c 00001a34 1966		lw	$15, 12($22)
        16400007 00001a38 1967		bne	$18, $0, .L2547
        026f9821 00001a3c 1968		addu	$19, $19, $15
        8e8d0008 00001a40 1969		lw	$13, 8($20)
        8dad0000 00001a44 1970		lw	$13, 0($13)
        02002825 00001a48 1971		move	$5, $16
        02802025 00001a4c 1972		move	$4, $20
        01a0f809 00001a50 1973		jalr	$13
        26260004 00001a54 1974		addiu	$6, $17, 4
                          1975	.L2547:
        92780000 00001a58 1976		lbu	$24, 0($19)
        0315c826 00001a5c 1977		xor	$25, $24, $21
        a2790000 00001a60 1978		sb	$25, 0($19)
        8ecf000c 00001a64 1979		lw	$15, 12($22)
        16400007 00001a68 1980		bne	$18, $0, .L2550
        026f9821 00001a6c 1981		addu	$19, $19, $15
        8e8d0008 00001a70 1982		lw	$13, 8($20)
        8dad0000 00001a74 1983		lw	$13, 0($13)
        02002825 00001a78 1984		move	$5, $16
        02802025 00001a7c 1985		move	$4, $20
        01a0f809 00001a80 1986		jalr	$13
        26260005 00001a84 1987		addiu	$6, $17, 5
                          1988	.L2550:
        92780000 00001a88 1989		lbu	$24, 0($19)
        0315c826 00001a8c 1990		xor	$25, $24, $21
        a2790000 00001a90 1991		sb	$25, 0($19)
        8ecf000c 00001a94 1992		lw	$15, 12($22)
        16400007 00001a98 1993		bne	$18, $0, .L2553
        026f9821 00001a9c 1994		addu	$19, $19, $15
        8e8d0008 00001aa0 1995		lw	$13, 8($20)
        8dad0000 00001aa4 1996		lw	$13, 0($13)
        02002825 00001aa8 1997		move	$5, $16
        02802025 00001aac 1998		move	$4, $20
        01a0f809 00001ab0 1999		jalr	$13
        26260006 00001ab4 2000		addiu	$6, $17, 6
                          2001	.L2553:
        92780000 00001ab8 2002		lbu	$24, 0($19)
        0315c826 00001abc 2003		xor	$25, $24, $21
        a2790000 00001ac0 2004		sb	$25, 0($19)
        8ecf000c 00001ac4 2005		lw	$15, 12($22)
        16400007 00001ac8 2006		bne	$18, $0, .L2555
        026f9821 00001acc 2007		addu	$19, $19, $15
        8e8d0008 00001ad0 2008		lw	$13, 8($20)
        8dad0000 00001ad4 2009		lw	$13, 0($13)
        02002825 00001ad8 2010		move	$5, $16
        02802025 00001adc 2011		move	$4, $20
        01a0f809 00001ae0 2012		jalr	$13
        26260007 00001ae4 2013		addiu	$6, $17, 7
                          2014	.L2555:
        92780000 00001ae8 2015		lbu	$24, 0($19)
        26310008 00001aec 2016		addiu	$17, $17, 8
        0315c826 00001af0 2017		xor	$25, $24, $21

                                   Tue Apr 07 08:57:48 2015           Page 38
                                   Tue Apr 07 08:57:47 2015       gh_2i0a8.s
        a2790000 00001af4 2018		sb	$25, 0($19)
        8ecf000c 00001af8 2019		lw	$15, 12($22)
        26f7ffff 00001afc 2020		addiu	$23, $23, -1
        16e0ff9d 00001b00 2021		bne	$23, $0, .L2532
        026f9821 00001b04 2022		addu	$19, $19, $15
                          2023	.L2531:
        8fa1002c 00001b08 2024		lw	$1, 44($sp)
        30370007 00001b0c 2025		andi	$23, $1, 7
        12e00011 00001b10 2026		beq	$23, $0, .L2493
        2fd20001 00001b14 2027		sltiu	$18, $fp, 1
                          2028	.L2558:
        56400008 00001b18 2029		bnel	$18, $0, .L1002560
        926e0000 00001b1c 2030		lbu	$14, 0($19)
        8e980008 00001b20 2031		lw	$24, 8($20)
        8f180000 00001b24 2032		lw	$24, 0($24)
        02002825 00001b28 2033		move	$5, $16
        02802025 00001b2c 2034		move	$4, $20
        0300f809 00001b30 2035		jalr	$24
        02203025 00001b34 2036		move	$6, $17
        926e0000 00001b38 2037		lbu	$14, 0($19)
                          2038	.L1002560:
        26310001 00001b3c 2039		addiu	$17, $17, 1
        01d57826 00001b40 2040		xor	$15, $14, $21
        a26f0000 00001b44 2041		sb	$15, 0($19)
        8ecd000c 00001b48 2042		lw	$13, 12($22)
        26f7ffff 00001b4c 2043		addiu	$23, $23, -1
        16e0fff1 00001b50 2044		bne	$23, $0, .L2558
        026d9821 00001b54 2045		addu	$19, $19, $13
                          2046	.L2493:
        8fb60018 00001b58 2047		lw	$22, 24($sp)
        8fb50014 00001b5c 2048		lw	$21, 20($sp)
        8fb40010 00001b60 2049		lw	$20, 16($sp)
        8fb3000c 00001b64 2050		lw	$19, 12($sp)
        8fb20008 00001b68 2051		lw	$18, 8($sp)
        8fb10004 00001b6c 2052		lw	$17, 4($sp)
        8fb00000 00001b70 2053		lw	$16, 0($sp)
        8fbf0034 00001b74 2054		lw	$ra, 52($sp)
        8fb7001c 00001b78 2055		lw	$23, 28($sp)
        8fbe0020 00001b7c 2056		lw	$fp, 32($sp)
        03e00008 00001b80 2057		jr	$ra
        27bd0038 00001b84 2058		addiu	$sp, $sp, 56
                          2059	.L2461:
        13c00072 00001b88 2060		beq	$fp, $0, .L1002469
        02517823 00001b8c 2061		subu	$15, $18, $17
        340e0000 00001b90 2062		ori	$14, $0, 0
        01cf682a 00001b94 2063		slt	$13, $14, $15
        11a00002 00001b98 2064		beq	$13, $0, .L2737
        00000000 00001b9c 2065		nop
        01e07025 00001ba0 2066		move	$14, $15
                          2067	.L2737:
        25de0001 00001ba4 2068		addiu	$fp, $14, 1
        001eb0c2 00001ba8 2069		srl	$22, $fp, 3
        12c0004c 00001bac 2070		beq	$22, $0, .L2563
        26f20002 00001bb0 2071		addiu	$18, $23, 2
                          2072	.L2571:
        8e980008 00001bb4 2073		lw	$24, 8($20)

                                   Tue Apr 07 08:57:48 2015           Page 39
                                   Tue Apr 07 08:57:47 2015       gh_2i0a8.s
        8f180000 00001bb8 2074		lw	$24, 0($24)
        02002825 00001bbc 2075		move	$5, $16
        02802025 00001bc0 2076		move	$4, $20
        0300f809 00001bc4 2077		jalr	$24
        02203025 00001bc8 2078		move	$6, $17
        964f0000 00001bcc 2079		lhu	$15, 0($18)
        a26f0000 00001bd0 2080		sb	$15, 0($19)
        8e8e0008 00001bd4 2081		lw	$14, 8($20)
        8dce0000 00001bd8 2082		lw	$14, 0($14)
        02002825 00001bdc 2083		move	$5, $16
        02802025 00001be0 2084		move	$4, $20
        01c0f809 00001be4 2085		jalr	$14
        26260001 00001be8 2086		addiu	$6, $17, 1
        964d0000 00001bec 2087		lhu	$13, 0($18)
        02759821 00001bf0 2088		addu	$19, $19, $21
        a26d0000 00001bf4 2089		sb	$13, 0($19)
        8e990008 00001bf8 2090		lw	$25, 8($20)
        8f390000 00001bfc 2091		lw	$25, 0($25)
        02802025 00001c00 2092		move	$4, $20
        02002825 00001c04 2093		move	$5, $16
        0320f809 00001c08 2094		jalr	$25
        26260002 00001c0c 2095		addiu	$6, $17, 2
        96580000 00001c10 2096		lhu	$24, 0($18)
        02759821 00001c14 2097		addu	$19, $19, $21
        a2780000 00001c18 2098		sb	$24, 0($19)
        8e8f0008 00001c1c 2099		lw	$15, 8($20)
        8def0000 00001c20 2100		lw	$15, 0($15)
        02002825 00001c24 2101		move	$5, $16
        02802025 00001c28 2102		move	$4, $20
        01e0f809 00001c2c 2103		jalr	$15
        26260003 00001c30 2104		addiu	$6, $17, 3
        964e0000 00001c34 2105		lhu	$14, 0($18)
        02759821 00001c38 2106		addu	$19, $19, $21
        a26e0000 00001c3c 2107		sb	$14, 0($19)
        8e8d0008 00001c40 2108		lw	$13, 8($20)
        8dad0000 00001c44 2109		lw	$13, 0($13)
        02802025 00001c48 2110		move	$4, $20
        02002825 00001c4c 2111		move	$5, $16
        01a0f809 00001c50 2112		jalr	$13
        26260004 00001c54 2113		addiu	$6, $17, 4
        96590000 00001c58 2114		lhu	$25, 0($18)
        02759821 00001c5c 2115		addu	$19, $19, $21
        a2790000 00001c60 2116		sb	$25, 0($19)
        8e980008 00001c64 2117		lw	$24, 8($20)
        02002825 00001c68 2118		move	$5, $16
        8f180000 00001c6c 2119		lw	$24, 0($24)
        02802025 00001c70 2120		move	$4, $20
        0300f809 00001c74 2121		jalr	$24
        26260005 00001c78 2122		addiu	$6, $17, 5
        964f0000 00001c7c 2123		lhu	$15, 0($18)
        02759821 00001c80 2124		addu	$19, $19, $21
        a26f0000 00001c84 2125		sb	$15, 0($19)
        8e8e0008 00001c88 2126		lw	$14, 8($20)
        8dce0000 00001c8c 2127		lw	$14, 0($14)
        02002825 00001c90 2128		move	$5, $16
        02802025 00001c94 2129		move	$4, $20

                                   Tue Apr 07 08:57:48 2015           Page 40
                                   Tue Apr 07 08:57:47 2015       gh_2i0a8.s
        01c0f809 00001c98 2130		jalr	$14
        26260006 00001c9c 2131		addiu	$6, $17, 6
        964d0000 00001ca0 2132		lhu	$13, 0($18)
        02759821 00001ca4 2133		addu	$19, $19, $21
        a26d0000 00001ca8 2134		sb	$13, 0($19)
        8e990008 00001cac 2135		lw	$25, 8($20)
        02002825 00001cb0 2136		move	$5, $16
        8f390000 00001cb4 2137		lw	$25, 0($25)
        02802025 00001cb8 2138		move	$4, $20
        26260007 00001cbc 2139		addiu	$6, $17, 7
        0320f809 00001cc0 2140		jalr	$25
        26310008 00001cc4 2141		addiu	$17, $17, 8
        96580000 00001cc8 2142		lhu	$24, 0($18)
        02759821 00001ccc 2143		addu	$19, $19, $21
        26d6ffff 00001cd0 2144		addiu	$22, $22, -1
        a2780000 00001cd4 2145		sb	$24, 0($19)
        16c0ffb6 00001cd8 2146		bne	$22, $0, .L2571
        02759821 00001cdc 2147		addu	$19, $19, $21
                          2148	.L2563:
        33d60007 00001ce0 2149		andi	$22, $fp, 7
        12c0000f 00001ce4 2150		beq	$22, $0, .L2495
        3c010000 00001ce8 2151		lui	$1, %hi(GUI_Context)
        24210000 00001cec 2152		addiu	$1, $1, %lo(GUI_Context)
        24320002 00001cf0 2153		addiu	$18, $1, 2
                          2154	.L2574:
        8e8d0008 00001cf4 2155		lw	$13, 8($20)
        8dad0000 00001cf8 2156		lw	$13, 0($13)
        02802025 00001cfc 2157		move	$4, $20
        02002825 00001d00 2158		move	$5, $16
        01a0f809 00001d04 2159		jalr	$13
        02203025 00001d08 2160		move	$6, $17
        96590000 00001d0c 2161		lhu	$25, 0($18)
        26310001 00001d10 2162		addiu	$17, $17, 1
        26d6ffff 00001d14 2163		addiu	$22, $22, -1
        a2790000 00001d18 2164		sb	$25, 0($19)
        16c0fff5 00001d1c 2165		bne	$22, $0, .L2574
        02759821 00001d20 2166		addu	$19, $19, $21
                          2167	.L2495:
        8fb60018 00001d24 2168		lw	$22, 24($sp)
        8fb50014 00001d28 2169		lw	$21, 20($sp)
        8fb40010 00001d2c 2170		lw	$20, 16($sp)
        8fb3000c 00001d30 2171		lw	$19, 12($sp)
        8fb20008 00001d34 2172		lw	$18, 8($sp)
        8fb10004 00001d38 2173		lw	$17, 4($sp)
        8fb00000 00001d3c 2174		lw	$16, 0($sp)
        8fbf0034 00001d40 2175		lw	$ra, 52($sp)
        8fb7001c 00001d44 2176		lw	$23, 28($sp)
        8fbe0020 00001d48 2177		lw	$fp, 32($sp)
        03e00008 00001d4c 2178		jr	$ra
        27bd0038 00001d50 2179		addiu	$sp, $sp, 56
                          2180	.L1002469:
        25f00001 00001d54 2181		addiu	$16, $15, 1
        001058c2 00001d58 2182		srl	$11, $16, 3
        1160002a 00001d5c 2183		beq	$11, $0, .L2577
        26e20002 00001d60 2184		addiu	$2, $23, 2
        001518c0 00001d64 2185		sll	$3, $21, 3

                                   Tue Apr 07 08:57:48 2015           Page 41
                                   Tue Apr 07 08:57:47 2015       gh_2i0a8.s
        0075c823 00001d68 2186		subu	$25, $3, $21
        02795021 00001d6c 2187		addu	$10, $19, $25
        0015c880 00001d70 2188		sll	$25, $21, 2
        0335c023 00001d74 2189		subu	$24, $25, $21
        0018c040 00001d78 2190		sll	$24, $24, 1
        02784821 00001d7c 2191		addu	$9, $19, $24
        0335c021 00001d80 2192		addu	$24, $25, $21
        02784021 00001d84 2193		addu	$8, $19, $24
        0335c023 00001d88 2194		subu	$24, $25, $21
        02783821 00001d8c 2195		addu	$7, $19, $24
        02793021 00001d90 2196		addu	$6, $19, $25
        0015c840 00001d94 2197		sll	$25, $21, 1
        02792821 00001d98 2198		addu	$5, $19, $25
        02752021 00001d9c 2199		addu	$4, $19, $21
                          2200	.L2585:
        944e0000 00001da0 2201		lhu	$14, 0($2)
        a26e0000 00001da4 2202		sb	$14, 0($19)
        944d0000 00001da8 2203		lhu	$13, 0($2)
        a08d0000 00001dac 2204		sb	$13, 0($4)
        94590000 00001db0 2205		lhu	$25, 0($2)
        a0b90000 00001db4 2206		sb	$25, 0($5)
        94580000 00001db8 2207		lhu	$24, 0($2)
        a0f80000 00001dbc 2208		sb	$24, 0($7)
        944f0000 00001dc0 2209		lhu	$15, 0($2)
        02639821 00001dc4 2210		addu	$19, $19, $3
        256bffff 00001dc8 2211		addiu	$11, $11, -1
        a0cf0000 00001dcc 2212		sb	$15, 0($6)
        944e0000 00001dd0 2213		lhu	$14, 0($2)
        00a32821 00001dd4 2214		addu	$5, $5, $3
        00832021 00001dd8 2215		addu	$4, $4, $3
        a10e0000 00001ddc 2216		sb	$14, 0($8)
        944d0000 00001de0 2217		lhu	$13, 0($2)
        00c33021 00001de4 2218		addu	$6, $6, $3
        00e33821 00001de8 2219		addu	$7, $7, $3
        a12d0000 00001dec 2220		sb	$13, 0($9)
        94590000 00001df0 2221		lhu	$25, 0($2)
        01234821 00001df4 2222		addu	$9, $9, $3
        01034021 00001df8 2223		addu	$8, $8, $3
        a1590000 00001dfc 2224		sb	$25, 0($10)
        1560ffe7 00001e00 2225		bne	$11, $0, .L2585
        01435021 00001e04 2226		addu	$10, $10, $3
                          2227	.L2577:
        320b0007 00001e08 2228		andi	$11, $16, 7
        11600008 00001e0c 2229		beq	$11, $0, .L2496
        3c010000 00001e10 2230		lui	$1, %hi(GUI_Context)
        24210000 00001e14 2231		addiu	$1, $1, %lo(GUI_Context)
        24230002 00001e18 2232		addiu	$3, $1, 2
                          2233	.L2588:
        946e0000 00001e1c 2234		lhu	$14, 0($3)
        256bffff 00001e20 2235		addiu	$11, $11, -1
        a26e0000 00001e24 2236		sb	$14, 0($19)
        1560fffc 00001e28 2237		bne	$11, $0, .L2588
        02759821 00001e2c 2238		addu	$19, $19, $21
                          2239	.L2496:
        8fbe0020 00001e30 2240		lw	$fp, 32($sp)
                          2241	 #	    .ef

                                   Tue Apr 07 08:57:48 2015           Page 42
                                   Tue Apr 07 08:57:47 2015       gh_2i0a8.s
        8fb7001c 00001e34 2242		lw	$23, 28($sp)
        8fbf0034 00001e38 2243		lw	$ra, 52($sp)
        8fb00000 00001e3c 2244		lw	$16, 0($sp)
        8fb10004 00001e40 2245		lw	$17, 4($sp)
        8fb20008 00001e44 2246		lw	$18, 8($sp)
        8fb3000c 00001e48 2247		lw	$19, 12($sp)
        8fb40010 00001e4c 2248		lw	$20, 16($sp)
        8fb50014 00001e50 2249		lw	$21, 20($sp)
        8fb60018 00001e54 2250		lw	$22, 24($sp)
        03e00008 00001e58 2251		jr	$ra
        27bd0038 00001e5c 2252		addiu	$sp, $sp, 56
                          2253		.type	_DrawVLine,@function
                          2254		.size	_DrawVLine,.-_DrawVLine
                          2255		.align	4
                          2256	 #pDev	$22	local
                          2257	 #hUsage	$fp	local
                          2258	 #pUsage	$20	local
                          2259	 #pData	$19	local
                          2260	 #BytesPerLine	$21	local
                          2261	 #IndexMask	$21	local
                          2262	 #NumPixels	$11	local
                          2263	
                          2264	 #x	$16	param
                          2265	 #y0	$17	param
                          2266	 #y1	$18	param
                          2267	
                          2268		.data
                          2269	.L2735:
                          2270		.text
                          2271		.align	4
                          2272		.align	4
                          2273	_SetPixelIndex:
        27bdffe8 00001e60 2274		addiu	$sp, $sp, -24
                          2275	 #	    .bf
        afbf0014 00001e64 2276		sw	$ra, 20($sp)
        afb3000c 00001e68 2277		sw	$19, 12($sp)
        afb00000 00001e6c 2278		sw	$16, 0($sp)
        00808025 00001e70 2279		move	$16, $4
        afb10004 00001e74 2280		sw	$17, 4($sp)
        00a08825 00001e78 2281		move	$17, $5
        afb20008 00001e7c 2282		sw	$18, 8($sp)
        00c09025 00001e80 2283		move	$18, $6
        3c010000 00001e84 2284		lui	$1, %hi(GUI_Context+80)
        0c000000 00001e88 2285		jal	GUI_ALLOC_h2p
        84240000 00001e8c 2286		lh	$4, %lo(GUI_Context+80)($1)
        84530018 00001e90 2287		lh	$19, 24($2)
        02002025 00001e94 2288		move	$4, $16
        0c000000 00001e98 2289		jal	_XY2PTR
        02202825 00001e9c 2290		move	$5, $17
        1260000b 00001ea0 2291		beq	$19, $0, .L2830
        a0520000 00001ea4 2292		sb	$18, 0($2)
        0c000000 00001ea8 2293		jal	GUI_ALLOC_h2p
        02602025 00001eac 2294		move	$4, $19
        8c520008 00001eb0 2295		lw	$18, 8($2)
        0c000000 00001eb4 2296		jal	GUI_ALLOC_h2p
        02602025 00001eb8 2297		move	$4, $19

                                   Tue Apr 07 08:57:48 2015           Page 43
                                   Tue Apr 07 08:57:47 2015       gh_2i0a8.s
        8e580000 00001ebc 2298		lw	$24, 0($18)
        00402025 00001ec0 2299		move	$4, $2
        02002825 00001ec4 2300		move	$5, $16
        0300f809 00001ec8 2301		jalr	$24
        02203025 00001ecc 2302		move	$6, $17
                          2303	.L2830:
        8fb3000c 00001ed0 2304		lw	$19, 12($sp)
                          2305	 #	    .ef
        8fb20008 00001ed4 2306		lw	$18, 8($sp)
        8fbf0014 00001ed8 2307		lw	$ra, 20($sp)
        8fb00000 00001edc 2308		lw	$16, 0($sp)
        8fb10004 00001ee0 2309		lw	$17, 4($sp)
        03e00008 00001ee4 2310		jr	$ra
        27bd0018 00001ee8 2311		addiu	$sp, $sp, 24
                          2312		.type	_SetPixelIndex,@function
                          2313		.size	_SetPixelIndex,.-_SetPixelIndex
                          2314		.align	4
                          2315	 #hUsage	$19	local
                          2316	
                          2317	 #x	$16	param
                          2318	 #y	$17	param
                          2319	 #Index	$18	param
                          2320	
                          2321		.data
                          2322	.L2848:
                          2323		.text
                          2324		.align	4
                          2325		.align	4
                          2326	_XorPixel:
        27bdffe0 00001eec 2327		addiu	$sp, $sp, -32
                          2328	 #	    .bf
        afbf001c 00001ef0 2329		sw	$ra, 28($sp)
        afb40010 00001ef4 2330		sw	$20, 16($sp)
        afb3000c 00001ef8 2331		sw	$19, 12($sp)
        afb20008 00001efc 2332		sw	$18, 8($sp)
        afb00000 00001f00 2333		sw	$16, 0($sp)
        00808025 00001f04 2334		move	$16, $4
        afb10004 00001f08 2335		sw	$17, 4($sp)
        00a08825 00001f0c 2336		move	$17, $5
        3c010000 00001f10 2337		lui	$1, %hi(GUI_Context+80)
        0c000000 00001f14 2338		jal	GUI_ALLOC_h2p
        84240000 00001f18 2339		lh	$4, %lo(GUI_Context+80)($1)
        00409825 00001f1c 2340		move	$19, $2
        86720018 00001f20 2341		lh	$18, 24($19)
        02002025 00001f24 2342		move	$4, $16
        0c000000 00001f28 2343		jal	_XY2PTR
        02202825 00001f2c 2344		move	$5, $17
        8e630024 00001f30 2345		lw	$3, 36($19)
        0060f809 00001f34 2346		jalr	$3
        0040a025 00001f38 2347		move	$20, $2
        92980000 00001f3c 2348		lbu	$24, 0($20)
        0302c826 00001f40 2349		xor	$25, $24, $2
        1240000b 00001f44 2350		beq	$18, $0, .L2857
        a2990000 00001f48 2351		sb	$25, 0($20)
        0c000000 00001f4c 2352		jal	GUI_ALLOC_h2p
        02402025 00001f50 2353		move	$4, $18

                                   Tue Apr 07 08:57:48 2015           Page 44
                                   Tue Apr 07 08:57:47 2015       gh_2i0a8.s
        8c530008 00001f54 2354		lw	$19, 8($2)
        0c000000 00001f58 2355		jal	GUI_ALLOC_h2p
        02402025 00001f5c 2356		move	$4, $18
        8e6e0000 00001f60 2357		lw	$14, 0($19)
        00402025 00001f64 2358		move	$4, $2
        02002825 00001f68 2359		move	$5, $16
        01c0f809 00001f6c 2360		jalr	$14
        02203025 00001f70 2361		move	$6, $17
                          2362	.L2857:
        8fb40010 00001f74 2363		lw	$20, 16($sp)
                          2364	 #	    .ef
        8fb3000c 00001f78 2365		lw	$19, 12($sp)
        8fbf001c 00001f7c 2366		lw	$ra, 28($sp)
        8fb00000 00001f80 2367		lw	$16, 0($sp)
        8fb10004 00001f84 2368		lw	$17, 4($sp)
        8fb20008 00001f88 2369		lw	$18, 8($sp)
        03e00008 00001f8c 2370		jr	$ra
        27bd0020 00001f90 2371		addiu	$sp, $sp, 32
                          2372		.type	_XorPixel,@function
                          2373		.size	_XorPixel,.-_XorPixel
                          2374		.align	4
                          2375	 #pDev	$19	local
                          2376	 #hUsage	$18	local
                          2377	 #pData	$20	local
                          2378	
                          2379	 #x	$16	param
                          2380	 #y	$17	param
                          2381	
                          2382		.data
                          2383	.L2875:
                          2384		.text
                          2385		.align	4
                          2386		.align	4
                          2387	_GetPixelIndex:
        27bdfff8 00001f94 2388		addiu	$sp, $sp, -8
                          2389	 #	    .bf
        afbf0004 00001f98 2390		sw	$ra, 4($sp)
        0c000000 00001f9c 2391		jal	_XY2PTR
        00000000 00001fa0 2392		nop
                          2393	 #	    .ef
        8fbf0004 00001fa4 2394		lw	$ra, 4($sp)
        27bd0008 00001fa8 2395		addiu	$sp, $sp, 8
        03e00008 00001fac 2396		jr	$ra
        90420000 00001fb0 2397		lbu	$2, 0($2)
                          2398		.type	_GetPixelIndex,@function
                          2399		.size	_GetPixelIndex,.-_GetPixelIndex
                          2400		.align	4
                          2401	
                          2402	 #x	none	param
                          2403	 #y	none	param
                          2404	
                          2405		.data
                          2406	.L2897:
                          2407		.text
                          2408		.align	4
                          2409	 #LCD_aMirror	LCD_aMirror	import

                                   Tue Apr 07 08:57:48 2015           Page 45
                                   Tue Apr 07 08:57:47 2015       gh_2i0a8.s
                          2410	 #GUI_Context	GUI_Context	import
                          2411	 #aID	.L423	static
                          2412	
                          2413		.section ".rodata","a"
                          2414	.L2904:
                          2415		.globl	GUI_MEMDEV__APIList8
        00000000 00000020 2416	GUI_MEMDEV__APIList8:	.word	GUI_MEMDEV__Color2Index
        00000000 00000024 2417		.word	GUI_MEMDEV__Index2Color
        00000000 00000028 2418		.word	GUI_MEMDEV__GetIndexMask
        00000000 0000002c 2419		.word	_DrawBitmap
        00000000 00000030 2420		.word	_DrawHLine
        00000000 00000034 2421		.word	_DrawVLine
        00000000 00000038 2422		.word	_FillRect
        00000000 0000003c 2423		.word	_GetPixelIndex
        00000000 00000040 2424		.word	GUI_MEMDEV__GetRect
        00000000 00000044 2425		.word	_SetPixelIndex
        00000000 00000048 2426		.word	_XorPixel
        00000000 0000004c 2427		.space	4
        00000000 00000050 2428		.space	4
        00000000 00000054 2429		.space	4
        00000000 00000058 2430		.space	4
        00000000 0000005c 2431		.space	4
        00000008 00000060 2432		.byte	8,0,0,0
                          2433		.type	GUI_MEMDEV__APIList8,@object
                          2434		.size	GUI_MEMDEV__APIList8,68
                          2435		.data
                          2436		.section ".rodata","a"
                          2437		.align	4
                          2438		.text
