
                                   Tue Apr 07 08:57:50 2015           Page 1
                                   Tue Apr 07 08:57:50 2015       gh_2i0aa.s
Command Line:   C:\GHS\V35\mips35\asmips.exe -noundefined -elf -b0
                -IC:\local\Workspace\DC_V04.01.00_int\cu3x1Platform_SRC\emWinColour
                -IC:\local\Workspace\DC_V04.01.00_int\cu3x1Platform_SRC\platform\include
                -IC:\local\Workspace\DC_V04.01.00_int\cu3x1Platform_SRC\platform\common
                -IC:\local\Workspace\DC_V04.01.00_int\cu3x1Platform_SRC\platform\hardware
                -IC:\local\Workspace\DC_V04.01.00_int\cu3x1Platform_SRC\platform\hardware\D3018X
                -IC:\local\Workspace\DC_V04.01.00_int\cu3x1Platform_SRC\embos\inc
                -IC:\local\Workspace\DC_V04.01.00_int\cu3x1Platform_SRC\emWinColour\config
                -IC:\local\Workspace\DC_V04.01.00_int\cu3x1Platform_SRC\emWinColour\gui\ConvertMono
                -IC:\local\Workspace\DC_V04.01.00_int\cu3x1Platform_SRC\emWinColour\gui\Core
                -IC:\local\Workspace\DC_V04.01.00_int\cu3x1Platform_SRC\emWinColour\gui\Font
                -IC:\local\Workspace\DC_V04.01.00_int\cu3x1Platform_SRC\emWinColour\gui\LCDDriver
                -IC:\local\Workspace\DC_V04.01.00_int\cu3x1Platform_SRC\emWinColour\gui\MemDev
                -IC:\local\Workspace\DC_V04.01.00_int\cu3x1Platform_SRC\emWinColour\gui\VNC
                -IC:\local\Workspace\DC_V04.01.00_int\cu3x1Platform_SRC\emWinColour\gui\Widget
                -IC:\local\Workspace\DC_V04.01.00_int\cu3x1Platform_SRC\emWinColour\gui\wm
                -IC:\local\Workspace\DC_V04.01.00_int\cu3x1App_SRC\Control\source
                -IC:\local\Workspace\DC_V04.01.00_int\cu3x1App_SRC\Control\source\include
                -IC:\local\Workspace\DC_V04.01.00_int\cu3x1App_SRC\Control\source\util
                -IC:\local\Workspace\DC_V04.01.00_int\cu3x1App_SRC\Control\source\datapoint
                -IC:\local\Workspace\DC_V04.01.00_int\cu3x1App_SRC\Control\source\factory
                -IC:\local\Workspace\DC_V04.01.00_int\cu3x1Platform_SRC\embos
                -IC:\local\Workspace\DC_V04.01.00_int\cu3x1Platform_SRC\emWinColour\gui\core
                -IC:\local\Workspace\DC_V04.01.00_int\cu3x1App_SRC\Control\source\rtip\webpage
                -IC:\local\Workspace\DC_V04.01.00_int\cu3x1App_SRC\Control\source\rtip\config
                -IC:\local\Workspace\DC_V04.01.00_int\cu3x1App_SRC\Control\source\rtip\xnet
                -IC:\local\Workspace\DC_V04.01.00_int\cu3x1App_SRC\Control\source\stub
                -IC:\local\Workspace\DC_V04.01.00_int\cu3x1App_SRC\Control\source\test
                -IC:\local\Workspace\DC_V04.01.00_int\cu3x1App_SRC\Control\source\GENIpro
                -IC:\local\Workspace\DC_V04.01.00_int\cu3x1App_SRC\Control\source\GENIpro\GENI_sys
                -IC:\local\Workspace\DC_V04.01.00_int\cu3x1App_SRC\Control\source\GENIpro\GENIusb\emUSB\USB\Driver
                -IC:\local\Workspace\DC_V04.01.00_int\cu3x1App_SRC\Control\source\application\intercom
                -IC:\local\Workspace\DC_V04.01.00_int\cu3x1App_SRC\Control\source\application\controller
                -IC:\local\Workspace\DC_V04.01.00_int\cu3x1App_SRC\Control\source\application\driver
                -IC:\local\Workspace\DC_V04.01.00_int\cu3x1App_SRC\Control\source\application\webif
                -IC:\local\Workspace\DC_V04.01.00_int\cu3x1App_SRC\Control\source\application\relay
                -IC:\local\Workspace\DC_V04.01.00_int\cu3x1App_SRC\Control\source\application\GENIApp
                -IC:\local\Workspace\DC_V04.01.00_int\cu3x1App_SRC\Control\source\application\alarm
                -IC:\local\Workspace\DC_V04.01.00_int\cu3x1App_SRC\Control\source\application\config
                -IC:\local\Workspace\DC_V04.01.00_int\cu3x1App_SRC\Control\source\application\AnaInConfigCtrl
                -IC:\local\Workspace\DC_V04.01.00_int\cu3x1App_SRC\Control\source\application\Sms
                -IC:\local\Workspace\DC_V04.01.00_int\cu3x1App_SRC\Control\source\application\display
                -IC:\local\Workspace\DC_V04.01.00_int\cu3x1App_SRC\Control\source\application\display\display_task
                -IC:\local\Workspace\DC_V04.01.00_int\cu3x1App_SRC\Control\source\application\display\gui_utility
                -IC:\local\Workspace\DC_V04.01.00_int\cu3x1App_SRC\Control\source\application\display\mpcunit
                -IC:\local\Workspace\DC_V04.01.00_int\cu3x1App_SRC\Control\source\GeniPro
                -IC:\local\Workspace\DC_V04.01.00_int\cu3x1App_SRC\Control\source\GeniPro\GENI_sys
                -IC:\local\Workspace\DC_V04.01.00_int\cu3x1App_SRC\Control\source\GeniPro\GENIbus
                -IC:\local\Workspace\DC_V04.01.00_int\cu3x1App_SRC\Control\source\GeniPro\GENIcom
                -IC:\local\Workspace\DC_V04.01.00_int\cu3x1App_SRC\Control\source\GeniPro\GENIrs232
                -IC:\local\Workspace\DC_V04.01.00_int\cu3x1App_SRC\Control\source\GeniPro\Virtual
                -IC:\local\Workspace\DC_V04.01.00_int\cu3x1Platform_SRC\Platform\common
                -IC:\local\Workspace\DC_V04.01.00_int\cu3x1Platform_SRC\Platform\hardware
                -IC:\local\Workspace\DC_V04.01.00_int\cu3x1Platform_SRC\Platform\hardware\D3018X
                -IC:\local\Workspace\DC_V04.01.00_int\cu3x1App_SRC\Control\source\application\display\imagesTFT
                -IC:\GHS\V35\mips35\mipsl_sf -r4121 -source=GUIDEV_Banding.c -o
                objs\gh_2i0aa.o -list=objs\GUIDEV_Banding.lst
                C:\Users\55602\AppData\Local\Temp\gh_2i0aa.s
Source File:    C:\Users\55602\AppData\Local\Temp\gh_2i0aa.s
Directory:      C:\local\Workspace\DC_V04.01.00_int\cu3x1App_SRC\Control\source
Host OS:        GHS_WIN32
Version:        AS-MIPS 3.5#11 
Release:        MULTI 2000, MIPS v3.5
Revision Date:  Wed Feb 27 12:19:03 2002
Release Date:   Sat Mar 02 02:57:59 2002
                             1	 #Source File:   C:\local\Workspace\DC_V04.01.00_int\cu3x1Platform_SRC\emWinColour\GUI\MemDev\GUIDEV_Banding.c

                                   Tue Apr 07 08:57:50 2015           Page 2
                                   Tue Apr 07 08:57:50 2015       gh_2i0aa.s
                             2	 #Directory:     
                             3	 #		C:\local\Workspace\DC_V04.01.00_int\cu3x1App_SRC\Control\source
                             4	 #Compile Date:  Tue Apr 07 08:57:50 2015
                             5	 #Host OS:       Win32
                             6	 #Version:       C-MIPS 3.5#11 RELEASE VERSION
                             7	 #Release:       MULTI 2000, MIPS v3.5
                             8	 #Revision Date: Fri Mar 01 11:32:40 2002
                             9	 #Release Date:  Sat Mar 02 02:58:48 2002
                            10		.set	noat
                            11		.set	noreorder
                            12		.set	nomacro
                            13		.text
                            14		.align	4
                            15	_Min:
        00a4c82a 00000000   16		slt	$25, $5, $4
                            17	 #	    .bf
        17200003 00000004   18		bne	$25, $0, .L4
        00000000 00000008   19		nop
        03e00008 0000000c   20		jr	$ra
        00801025 00000010   21		move	$2, $4
                            22	.L4:
                            23	 #	    .ef
        03e00008 00000014   24		jr	$ra
        00a01025 00000018   25		move	$2, $5
                            26		.type	_Min,@function
                            27		.size	_Min,.-_Min
                            28		.align	4
                            29	
                            30	 #v0	$4	param
                            31	 #v1	$5	param
                            32	
                            33		.data
                            34	.L24:
                            35		.text
                            36		.align	4
                            37		.align	4
                            38		.globl	GUI_MEMDEV_Draw
                            39	GUI_MEMDEV_Draw:
        27bdffd0 0000001c   40		addiu	$sp, $sp, -48
        afb40010 00000020   41		sw	$20, 16($sp)
                            42	 #	    .bf
        0100a025 00000024   43		move	$20, $8
        afbe0020 00000028   44		sw	$fp, 32($sp)
        afb7001c 0000002c   45		sw	$23, 28($sp)
        afb60018 00000030   46		sw	$22, 24($sp)
        afb50014 00000034   47		sw	$21, 20($sp)
        afb00000 00000038   48		sw	$16, 0($sp)
        00808025 0000003c   49		move	$16, $4
        afb10004 00000040   50		sw	$17, 4($sp)
        00a08825 00000044   51		move	$17, $5
        afb20008 00000048   52		sw	$18, 8($sp)
        00c09025 0000004c   53		move	$18, $6
        afb3000c 00000050   54		sw	$19, 12($sp)
        00e09825 00000054   55		move	$19, $7
        12000020 00000058   56		beq	$16, $0, .L35
        afbf002c 0000005c   57		sw	$ra, 44($sp)

                                   Tue Apr 07 08:57:50 2015           Page 3
                                   Tue Apr 07 08:57:50 2015       gh_2i0aa.s
        86180000 00000060   58		lh	$24, 0($16)
        340f0000 00000064   59		ori	$15, $0, 0
        0300b825 00000068   60		move	$23, $24
        02ef702a 0000006c   61		slt	$14, $23, $15
        11c00002 00000070   62		beq	$14, $0, .L118
        00000000 00000074   63		nop
        34170000 00000078   64		ori	$23, $0, 0
                            65	.L118:
        860d0002 0000007c   66		lh	$13, 2($16)
        34190000 00000080   67		ori	$25, $0, 0
        01a0a825 00000084   68		move	$21, $13
        02b9c02a 00000088   69		slt	$24, $21, $25
        13000002 0000008c   70		beq	$24, $0, .L119
        00000000 00000090   71		nop
        34150000 00000094   72		ori	$21, $0, 0
                            73	.L119:
        0c000000 00000098   74		jal	LCD_GetVXSize
        00000000 0000009c   75		nop
        2445ffff 000000a0   76		addiu	$5, $2, -1
        0c000000 000000a4   77		jal	_Min
        86040004 000000a8   78		lh	$4, 4($16)
        0c000000 000000ac   79		jal	LCD_GetVYSize
        0040b025 000000b0   80		move	$22, $2
        2445ffff 000000b4   81		addiu	$5, $2, -1
        0c000000 000000b8   82		jal	_Min
        86040006 000000bc   83		lh	$4, 6($16)
        00557023 000000c0   84		subu	$14, $2, $21
        25de0001 000000c4   85		addiu	$fp, $14, 1
        02d77823 000000c8   86		subu	$15, $22, $23
        1660000b 000000cc   87		bne	$19, $0, .L38
        25f00001 000000d0   88		addiu	$16, $15, 1
        08000000 000000d4   89		j	.L1000039
        001e9823 000000d8   90		subu	$19, $0, $fp
                            91	.L35:
        0c000000 000000dc   92		jal	LCD_GetVXSize
        34170000 000000e0   93		ori	$23, $0, 0
        34150000 000000e4   94		ori	$21, $0, 0
        0c000000 000000e8   95		jal	LCD_GetVYSize
        00408025 000000ec   96		move	$16, $2
        16600002 000000f0   97		bne	$19, $0, .L38
        0040f025 000000f4   98		move	$fp, $2
        001e9823 000000f8   99		subu	$19, $0, $fp
                           100	.L1000039:
                           101	.L38:
        5a000004 000000fc  102		blezl	$16, .L1000041
        8fbe0020 00000100  103		lw	$fp, 32($sp)
        5fc0000e 00000104  104		bgtzl	$fp, .L1000040
        02e02025 00000108  105		move	$4, $23
        8fbe0020 0000010c  106		lw	$fp, 32($sp)
                           107	.L1000041:
        8fb7001c 00000110  108		lw	$23, 28($sp)
        8fbf002c 00000114  109		lw	$ra, 44($sp)
        8fb00000 00000118  110		lw	$16, 0($sp)
        8fb10004 0000011c  111		lw	$17, 4($sp)
        8fb20008 00000120  112		lw	$18, 8($sp)
        8fb3000c 00000124  113		lw	$19, 12($sp)

                                   Tue Apr 07 08:57:50 2015           Page 4
                                   Tue Apr 07 08:57:50 2015       gh_2i0aa.s
        8fb40010 00000128  114		lw	$20, 16($sp)
        8fb50014 0000012c  115		lw	$21, 20($sp)
        8fb60018 00000130  116		lw	$22, 24($sp)
        27bd0030 00000134  117		addiu	$sp, $sp, 48
        03e00008 00000138  118		jr	$ra
        34020000 0000013c  119		ori	$2, $0, 0
                           120	.L1000040:
        02a02825 00000140  121		move	$5, $21
        02003025 00000144  122		move	$6, $16
        02603825 00000148  123		move	$7, $19
        0c000000 0000014c  124		jal	GUI_MEMDEV_CreateEx
        02804025 00000150  125		move	$8, $20
        00408025 00000154  126		move	$16, $2
        16000010 00000158  127		bne	$16, $0, .L44
        00000000 0000015c  128		nop
        0220f809 00000160  129		jalr	$17
        02402025 00000164  130		move	$4, $18
        8fbe0020 00000168  131		lw	$fp, 32($sp)
        8fb7001c 0000016c  132		lw	$23, 28($sp)
        8fbf002c 00000170  133		lw	$ra, 44($sp)
        8fb00000 00000174  134		lw	$16, 0($sp)
        8fb10004 00000178  135		lw	$17, 4($sp)
        8fb20008 0000017c  136		lw	$18, 8($sp)
        8fb3000c 00000180  137		lw	$19, 12($sp)
        8fb40010 00000184  138		lw	$20, 16($sp)
        8fb50014 00000188  139		lw	$21, 20($sp)
        8fb60018 0000018c  140		lw	$22, 24($sp)
        27bd0030 00000190  141		addiu	$sp, $sp, 48
        03e00008 00000194  142		jr	$ra
        34020001 00000198  143		ori	$2, $0, 1
                           144	.L44:
        0c000000 0000019c  145		jal	GUI_MEMDEV_GetYSize
        02002025 000001a0  146		move	$4, $16
        02002025 000001a4  147		move	$4, $16
        0c000000 000001a8  148		jal	GUI_MEMDEV_Select
        00409825 000001ac  149		move	$19, $2
        00136023 000001b0  150		subu	$12, $0, $19
        afac0024 000001b4  151		sw	$12, 36($sp)
        34140000 000001b8  152		ori	$20, $0, 0
        029ec82a 000001bc  153		slt	$25, $20, $fp
        13200019 000001c0  154		beq	$25, $0, .L47
        03c0b025 000001c4  155		move	$22, $fp
                           156	.L49:
        02c01825 000001c8  157		move	$3, $22
        0073702a 000001cc  158		slt	$14, $3, $19
        11c00003 000001d0  159		beq	$14, $0, .L51
        02002025 000001d4  160		move	$4, $16
        0c000000 000001d8  161		jal	GUI_MEMDEV_ReduceYSize
        00602825 000001dc  162		move	$5, $3
                           163	.L51:
        12800007 000001e0  164		beq	$20, $0, .L53
        00000000 000001e4  165		nop
        02002025 000001e8  166		move	$4, $16
        02e02825 000001ec  167		move	$5, $23
        0c000000 000001f0  168		jal	GUI_MEMDEV_SetOrg
        02a03025 000001f4  169		move	$6, $21

                                   Tue Apr 07 08:57:50 2015           Page 5
                                   Tue Apr 07 08:57:50 2015       gh_2i0aa.s
        0c000000 000001f8  170		jal	GUI_MEMDEV_Clear
        02002025 000001fc  171		move	$4, $16
                           172	.L53:
        0220f809 00000200  173		jalr	$17
        02402025 00000204  174		move	$4, $18
        0c000000 00000208  175		jal	GUI_MEMDEV_CopyToLCD
        02002025 0000020c  176		move	$4, $16
        8fac0024 00000210  177		lw	$12, 36($sp)
        0293a021 00000214  178		addu	$20, $20, $19
        029ec82a 00000218  179		slt	$25, $20, $fp
        02ccb021 0000021c  180		addu	$22, $22, $12
        1720ffe9 00000220  181		bne	$25, $0, .L49
        02b3a821 00000224  182		addu	$21, $21, $19
                           183	.L47:
        0c000000 00000228  184		jal	GUI_MEMDEV_Delete
        02002025 0000022c  185		move	$4, $16
        0c000000 00000230  186		jal	GUI_MEMDEV_Select
        34040000 00000234  187		ori	$4, $0, 0
                           188	 #	    .ef
        8fbe0020 00000238  189		lw	$fp, 32($sp)
        8fb7001c 0000023c  190		lw	$23, 28($sp)
        8fbf002c 00000240  191		lw	$ra, 44($sp)
        8fb00000 00000244  192		lw	$16, 0($sp)
        8fb10004 00000248  193		lw	$17, 4($sp)
        8fb20008 0000024c  194		lw	$18, 8($sp)
        8fb3000c 00000250  195		lw	$19, 12($sp)
        8fb40010 00000254  196		lw	$20, 16($sp)
        8fb50014 00000258  197		lw	$21, 20($sp)
        8fb60018 0000025c  198		lw	$22, 24($sp)
        27bd0030 00000260  199		addiu	$sp, $sp, 48
        03e00008 00000264  200		jr	$ra
        34020000 00000268  201		ori	$2, $0, 0
                           202		.type	GUI_MEMDEV_Draw,@function
                           203		.size	GUI_MEMDEV_Draw,.-GUI_MEMDEV_Draw
                           204		.align	4
                           205	 #x0	$23	local
                           206	 #y0	$21	local
                           207	 #x1	$22	local
                           208	 #xsize	$16	local
                           209	 #ysize	$fp	local
                           210	 #hMD	$16	local
                           211	 #i	$20	local
                           212	 #RemLines	$3	local
                           213	
                           214	 #pRect	$16	param
                           215	 #pfDraw	$17	param
                           216	 #pData	$18	param
                           217	 #NumLines	$19	param
                           218	 #Flags	$20	param
                           219	
                           220		.data
                           221	.L117:
                           222		.text
                           223		.align	4
                           224	
                           225		.data

                                   Tue Apr 07 08:57:50 2015           Page 6
                                   Tue Apr 07 08:57:50 2015       gh_2i0aa.s
                           226		.text
