
                                   Tue Apr 07 08:56:44 2015           Page 1
                                   Tue Apr 07 08:56:44 2015       gh_2i08s.s
Command Line:   C:\GHS\V35\mips35\asmips.exe -noundefined -elf -b0
                -IC:\local\Workspace\DC_V04.01.00_int\cu3x1Platform_SRC\emWinColour
                -IC:\local\Workspace\DC_V04.01.00_int\cu3x1Platform_SRC\platform\include
                -IC:\local\Workspace\DC_V04.01.00_int\cu3x1Platform_SRC\platform\common
                -IC:\local\Workspace\DC_V04.01.00_int\cu3x1Platform_SRC\platform\hardware
                -IC:\local\Workspace\DC_V04.01.00_int\cu3x1Platform_SRC\platform\hardware\D3018X
                -IC:\local\Workspace\DC_V04.01.00_int\cu3x1Platform_SRC\embos\inc
                -IC:\local\Workspace\DC_V04.01.00_int\cu3x1Platform_SRC\emWinColour\config
                -IC:\local\Workspace\DC_V04.01.00_int\cu3x1Platform_SRC\emWinColour\gui\ConvertMono
                -IC:\local\Workspace\DC_V04.01.00_int\cu3x1Platform_SRC\emWinColour\gui\Core
                -IC:\local\Workspace\DC_V04.01.00_int\cu3x1Platform_SRC\emWinColour\gui\Font
                -IC:\local\Workspace\DC_V04.01.00_int\cu3x1Platform_SRC\emWinColour\gui\LCDDriver
                -IC:\local\Workspace\DC_V04.01.00_int\cu3x1Platform_SRC\emWinColour\gui\MemDev
                -IC:\local\Workspace\DC_V04.01.00_int\cu3x1Platform_SRC\emWinColour\gui\VNC
                -IC:\local\Workspace\DC_V04.01.00_int\cu3x1Platform_SRC\emWinColour\gui\Widget
                -IC:\local\Workspace\DC_V04.01.00_int\cu3x1Platform_SRC\emWinColour\gui\wm
                -IC:\local\Workspace\DC_V04.01.00_int\cu3x1App_SRC\Control\source
                -IC:\local\Workspace\DC_V04.01.00_int\cu3x1App_SRC\Control\source\include
                -IC:\local\Workspace\DC_V04.01.00_int\cu3x1App_SRC\Control\source\util
                -IC:\local\Workspace\DC_V04.01.00_int\cu3x1App_SRC\Control\source\datapoint
                -IC:\local\Workspace\DC_V04.01.00_int\cu3x1App_SRC\Control\source\factory
                -IC:\local\Workspace\DC_V04.01.00_int\cu3x1Platform_SRC\embos
                -IC:\local\Workspace\DC_V04.01.00_int\cu3x1Platform_SRC\emWinColour\gui\core
                -IC:\local\Workspace\DC_V04.01.00_int\cu3x1App_SRC\Control\source\rtip\webpage
                -IC:\local\Workspace\DC_V04.01.00_int\cu3x1App_SRC\Control\source\rtip\config
                -IC:\local\Workspace\DC_V04.01.00_int\cu3x1App_SRC\Control\source\rtip\xnet
                -IC:\local\Workspace\DC_V04.01.00_int\cu3x1App_SRC\Control\source\stub
                -IC:\local\Workspace\DC_V04.01.00_int\cu3x1App_SRC\Control\source\test
                -IC:\local\Workspace\DC_V04.01.00_int\cu3x1App_SRC\Control\source\GENIpro
                -IC:\local\Workspace\DC_V04.01.00_int\cu3x1App_SRC\Control\source\GENIpro\GENI_sys
                -IC:\local\Workspace\DC_V04.01.00_int\cu3x1App_SRC\Control\source\GENIpro\GENIusb\emUSB\USB\Driver
                -IC:\local\Workspace\DC_V04.01.00_int\cu3x1App_SRC\Control\source\application\intercom
                -IC:\local\Workspace\DC_V04.01.00_int\cu3x1App_SRC\Control\source\application\controller
                -IC:\local\Workspace\DC_V04.01.00_int\cu3x1App_SRC\Control\source\application\driver
                -IC:\local\Workspace\DC_V04.01.00_int\cu3x1App_SRC\Control\source\application\webif
                -IC:\local\Workspace\DC_V04.01.00_int\cu3x1App_SRC\Control\source\application\relay
                -IC:\local\Workspace\DC_V04.01.00_int\cu3x1App_SRC\Control\source\application\GENIApp
                -IC:\local\Workspace\DC_V04.01.00_int\cu3x1App_SRC\Control\source\application\alarm
                -IC:\local\Workspace\DC_V04.01.00_int\cu3x1App_SRC\Control\source\application\config
                -IC:\local\Workspace\DC_V04.01.00_int\cu3x1App_SRC\Control\source\application\AnaInConfigCtrl
                -IC:\local\Workspace\DC_V04.01.00_int\cu3x1App_SRC\Control\source\application\Sms
                -IC:\local\Workspace\DC_V04.01.00_int\cu3x1App_SRC\Control\source\application\display
                -IC:\local\Workspace\DC_V04.01.00_int\cu3x1App_SRC\Control\source\application\display\display_task
                -IC:\local\Workspace\DC_V04.01.00_int\cu3x1App_SRC\Control\source\application\display\gui_utility
                -IC:\local\Workspace\DC_V04.01.00_int\cu3x1App_SRC\Control\source\application\display\mpcunit
                -IC:\local\Workspace\DC_V04.01.00_int\cu3x1App_SRC\Control\source\GeniPro
                -IC:\local\Workspace\DC_V04.01.00_int\cu3x1App_SRC\Control\source\GeniPro\GENI_sys
                -IC:\local\Workspace\DC_V04.01.00_int\cu3x1App_SRC\Control\source\GeniPro\GENIbus
                -IC:\local\Workspace\DC_V04.01.00_int\cu3x1App_SRC\Control\source\GeniPro\GENIcom
                -IC:\local\Workspace\DC_V04.01.00_int\cu3x1App_SRC\Control\source\GeniPro\GENIrs232
                -IC:\local\Workspace\DC_V04.01.00_int\cu3x1App_SRC\Control\source\GeniPro\Virtual
                -IC:\local\Workspace\DC_V04.01.00_int\cu3x1Platform_SRC\Platform\common
                -IC:\local\Workspace\DC_V04.01.00_int\cu3x1Platform_SRC\Platform\hardware
                -IC:\local\Workspace\DC_V04.01.00_int\cu3x1Platform_SRC\Platform\hardware\D3018X
                -IC:\local\Workspace\DC_V04.01.00_int\cu3x1App_SRC\Control\source\application\display\imagesTFT
                -IC:\GHS\V35\mips35\mipsl_sf -r4121 -source=GUIValf.c -o
                objs\gh_2i08s.o -list=objs\GUIValf.lst
                C:\Users\55602\AppData\Local\Temp\gh_2i08s.s
Source File:    C:\Users\55602\AppData\Local\Temp\gh_2i08s.s
Directory:      C:\local\Workspace\DC_V04.01.00_int\cu3x1App_SRC\Control\source
Host OS:        GHS_WIN32
Version:        AS-MIPS 3.5#11 
Release:        MULTI 2000, MIPS v3.5
Revision Date:  Wed Feb 27 12:19:03 2002
Release Date:   Sat Mar 02 02:57:59 2002
                             1	 #Source File:   C:\local\Workspace\DC_V04.01.00_int\cu3x1Platform_SRC\emWinColour\GUI\Core\GUIValf.c

                                   Tue Apr 07 08:56:44 2015           Page 2
                                   Tue Apr 07 08:56:44 2015       gh_2i08s.s
                             2	 #Directory:     
                             3	 #		C:\local\Workspace\DC_V04.01.00_int\cu3x1App_SRC\Control\source
                             4	 #Compile Date:  Tue Apr 07 08:56:44 2015
                             5	 #Host OS:       Win32
                             6	 #Version:       C-MIPS 3.5#11 RELEASE VERSION
                             7	 #Release:       MULTI 2000, MIPS v3.5
                             8	 #Revision Date: Fri Mar 01 11:32:40 2002
                             9	 #Release Date:  Sat Mar 02 02:58:48 2002
                            10		.set	noat
                            11		.set	noreorder
                            12		.set	nomacro
                            13		.text
                            14		.align	4
                            15	_DispFloatFix:
        27bdffe8 00000000   16		addiu	$sp, $sp, -24
                            17	 #	    .bf
        afbf0014 00000004   18		sw	$ra, 20($sp)
        afb00000 00000008   19		sw	$16, 0($sp)
        00808025 0000000c   20		move	$16, $4
        afb10004 00000010   21		sw	$17, 4($sp)
        00058e00 00000014   22		sll	$17, $5, 24
        00118e03 00000018   23		sra	$17, $17, 24
        afb3000c 0000001c   24		sw	$19, 12($sp)
        00e09825 00000020   25		move	$19, $7
        afb20008 00000024   26		sw	$18, 8($sp)
        00069600 00000028   27		sll	$18, $6, 24
        00129603 0000002c   28		sra	$18, $18, 24
        0012c880 00000030   29		sll	$25, $18, 2
        3c0f0000 00000034   30		lui	$15, %hi(GUI_Pow10)
        25ef0000 00000038   31		addiu	$15, $15, %lo(GUI_Pow10)
        01f9c021 0000003c   32		addu	$24, $15, $25
        0c000000 00000040   33		jal	__utof
        8f040000 00000044   34		lw	$4, 0($24)
        02002025 00000048   35		move	$4, $16
        0c000000 0000004c   36		jal	__fmul
        00402825 00000050   37		move	$5, $2
        0c000000 00000054   38		jal	__ftod
        00402025 00000058   39		move	$4, $2
        00602825 0000005c   40		move	$5, $3
        00402025 00000060   41		move	$4, $2
        3c010000 00000064   42		lui	$1, %hi(.L25)
        8c260000 00000068   43		lw	$6, %lo(.L25)($1)
        0c000000 0000006c   44		jal	__dadd
        8c270000 00000070   45		lw	$7, %lo(.L25+4)($1)
        00602825 00000074   46		move	$5, $3
        0c000000 00000078   47		jal	__dtof
        00402025 0000007c   48		move	$4, $2
        0c000000 00000080   49		jal	__ftod
        00402025 00000084   50		move	$4, $2
        00602825 00000088   51		move	$5, $3
        0c000000 0000008c   52		jal	floor
        00402025 00000090   53		move	$4, $2
        00602825 00000094   54		move	$5, $3
        0c000000 00000098   55		jal	__dtof
        00402025 0000009c   56		move	$4, $2
        1260000e 000000a0   57		beq	$19, $0, .L4

                                   Tue Apr 07 08:56:44 2015           Page 3
                                   Tue Apr 07 08:56:44 2015       gh_2i08s.s
        00408025 000000a4   58		move	$16, $2
        0c000000 000000a8   59		jal	__ftoi
        02002025 000000ac   60		move	$4, $16
        00402025 000000b0   61		move	$4, $2
        322500ff 000000b4   62		andi	$5, $17, 255
        0c000000 000000b8   63		jal	GUI_DispSDecShift
        324600ff 000000bc   64		andi	$6, $18, 255
        8fb10004 000000c0   65		lw	$17, 4($sp)
        8fb00000 000000c4   66		lw	$16, 0($sp)
        8fbf0014 000000c8   67		lw	$ra, 20($sp)
        8fb20008 000000cc   68		lw	$18, 8($sp)
        8fb3000c 000000d0   69		lw	$19, 12($sp)
        03e00008 000000d4   70		jr	$ra
        27bd0018 000000d8   71		addiu	$sp, $sp, 24
                            72	.L4:
        0c000000 000000dc   73		jal	__ftoi
        02002025 000000e0   74		move	$4, $16
        00402025 000000e4   75		move	$4, $2
        322500ff 000000e8   76		andi	$5, $17, 255
        0c000000 000000ec   77		jal	GUI_DispDecShift
        324600ff 000000f0   78		andi	$6, $18, 255
                            79	 #	    .ef
        8fb10004 000000f4   80		lw	$17, 4($sp)
        8fb00000 000000f8   81		lw	$16, 0($sp)
        8fbf0014 000000fc   82		lw	$ra, 20($sp)
        8fb20008 00000100   83		lw	$18, 8($sp)
        8fb3000c 00000104   84		lw	$19, 12($sp)
        03e00008 00000108   85		jr	$ra
        27bd0018 0000010c   86		addiu	$sp, $sp, 24
                            87		.type	_DispFloatFix,@function
                            88		.size	_DispFloatFix,.-_DispFloatFix
                            89		.align	4
                            90	
                            91	 #f	$16	param
                            92	 #Len	$17	param
                            93	 #Decs	$18	param
                            94	 #DrawPlusSign	$19	param
                            95	
                            96		.data
                            97	.L24:
                            98		.section ".rodata","a"
        00000000 00000000   99	.L25:	.byte	0,0,0,0
        3fe00000 00000004  100		.byte	0,0,224,63
                           101		.data
                           102		.text
                           103		.align	4
                           104		.align	4
                           105		.globl	GUI_DispFloatFix
                           106	GUI_DispFloatFix:
        34070000 00000110  107		ori	$7, $0, 0
                           108	 #	    .bf
        00052e00 00000114  109		sll	$5, $5, 24
        00063600 00000118  110		sll	$6, $6, 24
        00063603 0000011c  111		sra	$6, $6, 24
        08000000 00000120  112		j	_DispFloatFix
        00052e03 00000124  113		sra	$5, $5, 24

                                   Tue Apr 07 08:56:44 2015           Page 4
                                   Tue Apr 07 08:56:44 2015       gh_2i08s.s
                           114	 #	    .ef
                           115		.type	GUI_DispFloatFix,@function
                           116		.size	GUI_DispFloatFix,.-GUI_DispFloatFix
                           117		.align	4
                           118	
                           119	 #f	none	param
                           120	 #Len	$5	param
                           121	 #Decs	$6	param
                           122	
                           123		.data
                           124	.L47:
                           125		.text
                           126		.align	4
                           127		.align	4
                           128		.globl	GUI_DispFloatMin
                           129	GUI_DispFloatMin:
        27bdfff0 00000128  130		addiu	$sp, $sp, -16
        afbf000c 0000012c  131		sw	$ra, 12($sp)
        afb00000 00000130  132		sw	$16, 0($sp)
        afb10004 00000134  133		sw	$17, 4($sp)
        00058e00 00000138  134		sll	$17, $5, 24
        00118e03 0000013c  135		sra	$17, $17, 24
                           136	 #	    .bf
        0c000000 00000140  137		jal	__ftoi
        00808025 00000144  138		move	$16, $4
        0c000000 00000148  139		jal	GUI_Long2Len
        00402025 0000014c  140		move	$4, $2
        00021e00 00000150  141		sll	$3, $2, 24
        3c198000 00000154  142		lui	$25, 32768
        0330c02b 00000158  143		sltu	$24, $25, $16
        13000009 0000015c  144		beq	$24, $0, .L55
        00031e03 00000160  145		sra	$3, $3, 24
        02191026 00000164  146		xor	$2, $16, $25
        3c0e4080 00000168  147		lui	$14, 16512
        004e682a 0000016c  148		slt	$13, $2, $14
        51a00005 00000170  149		beql	$13, $0, .L1000055
        02002025 00000174  150		move	$4, $16
        24630001 00000178  151		addiu	$3, $3, 1
        00031e00 0000017c  152		sll	$3, $3, 24
        00031e03 00000180  153		sra	$3, $3, 24
                           154	.L55:
        02002025 00000184  155		move	$4, $16
                           156	.L1000055:
        0071c821 00000188  157		addu	$25, $3, $17
        0011c02b 0000018c  158		sltu	$24, $0, $17
        03387821 00000190  159		addu	$15, $25, $24
        000f2e00 00000194  160		sll	$5, $15, 24
        00052e03 00000198  161		sra	$5, $5, 24
        02203025 0000019c  162		move	$6, $17
        0c000000 000001a0  163		jal	_DispFloatFix
        34070000 000001a4  164		ori	$7, $0, 0
                           165	 #	    .ef
        8fbf000c 000001a8  166		lw	$ra, 12($sp)
        8fb00000 000001ac  167		lw	$16, 0($sp)
        8fb10004 000001b0  168		lw	$17, 4($sp)
        03e00008 000001b4  169		jr	$ra

                                   Tue Apr 07 08:56:44 2015           Page 5
                                   Tue Apr 07 08:56:44 2015       gh_2i08s.s
        27bd0010 000001b8  170		addiu	$sp, $sp, 16
                           171		.type	GUI_DispFloatMin,@function
                           172		.size	GUI_DispFloatMin,.-GUI_DispFloatMin
                           173		.align	4
                           174	 #Len	$3	local
                           175	
                           176	 #f	$16	param
                           177	 #Fract	$17	param
                           178	
                           179		.data
                           180	.L78:
                           181		.text
                           182		.align	4
                           183		.align	4
                           184		.globl	GUI_DispFloat
                           185	GUI_DispFloat:
        27bdfff0 000001bc  186		addiu	$sp, $sp, -16
        afbf000c 000001c0  187		sw	$ra, 12($sp)
        afb00000 000001c4  188		sw	$16, 0($sp)
        afb10004 000001c8  189		sw	$17, 4($sp)
        00058e00 000001cc  190		sll	$17, $5, 24
        00118e03 000001d0  191		sra	$17, $17, 24
                           192	 #	    .bf
        0c000000 000001d4  193		jal	__ftoi
        00808025 000001d8  194		move	$16, $4
        0c000000 000001dc  195		jal	GUI_Long2Len
        00402025 000001e0  196		move	$4, $2
        02221823 000001e4  197		subu	$3, $17, $2
        3c198000 000001e8  198		lui	$25, 32768
        0330c02b 000001ec  199		sltu	$24, $25, $16
        13000006 000001f0  200		beq	$24, $0, .L93
        2463ffff 000001f4  201		addiu	$3, $3, -1
        02191026 000001f8  202		xor	$2, $16, $25
        3c0e4080 000001fc  203		lui	$14, 16512
        004e682a 00000200  204		slt	$13, $2, $14
        55a00001 00000204  205		bnel	$13, $0, .L93
        2463ffff 00000208  206		addiu	$3, $3, -1
                           207	.L93:
        04620001 0000020c  208		bltzl	$3, .L96
        34030000 00000210  209		ori	$3, $0, 0
                           210	.L96:
        02002025 00000214  211		move	$4, $16
        02202825 00000218  212		move	$5, $17
        00033600 0000021c  213		sll	$6, $3, 24
        00063603 00000220  214		sra	$6, $6, 24
        0c000000 00000224  215		jal	_DispFloatFix
        34070000 00000228  216		ori	$7, $0, 0
                           217	 #	    .ef
        8fbf000c 0000022c  218		lw	$ra, 12($sp)
        8fb00000 00000230  219		lw	$16, 0($sp)
        8fb10004 00000234  220		lw	$17, 4($sp)
        03e00008 00000238  221		jr	$ra
        27bd0010 0000023c  222		addiu	$sp, $sp, 16
                           223		.type	GUI_DispFloat,@function
                           224		.size	GUI_DispFloat,.-GUI_DispFloat
                           225		.align	4

                                   Tue Apr 07 08:56:44 2015           Page 6
                                   Tue Apr 07 08:56:44 2015       gh_2i08s.s
                           226	 #Decs	$3	local
                           227	
                           228	 #f	$16	param
                           229	 #Len	$17	param
                           230	
                           231		.data
                           232	.L124:
                           233		.text
                           234		.align	4
                           235		.align	4
                           236		.globl	GUI_DispSFloatFix
                           237	GUI_DispSFloatFix:
        34070001 00000240  238		ori	$7, $0, 1
                           239	 #	    .bf
        00052e00 00000244  240		sll	$5, $5, 24
        00063600 00000248  241		sll	$6, $6, 24
        00063603 0000024c  242		sra	$6, $6, 24
        08000000 00000250  243		j	_DispFloatFix
        00052e03 00000254  244		sra	$5, $5, 24
                           245	 #	    .ef
                           246		.type	GUI_DispSFloatFix,@function
                           247		.size	GUI_DispSFloatFix,.-GUI_DispSFloatFix
                           248		.align	4
                           249	
                           250	 #f	none	param
                           251	 #Len	$5	param
                           252	 #Fract	$6	param
                           253	
                           254		.data
                           255	.L153:
                           256		.text
                           257		.align	4
                           258		.align	4
                           259		.globl	GUI_DispSFloatMin
                           260	GUI_DispSFloatMin:
        27bdfff0 00000258  261		addiu	$sp, $sp, -16
        afbf000c 0000025c  262		sw	$ra, 12($sp)
        afb00000 00000260  263		sw	$16, 0($sp)
        afb10004 00000264  264		sw	$17, 4($sp)
        00058e00 00000268  265		sll	$17, $5, 24
        00118e03 0000026c  266		sra	$17, $17, 24
                           267	 #	    .bf
        0c000000 00000270  268		jal	__ftoi
        00808025 00000274  269		move	$16, $4
        0c000000 00000278  270		jal	GUI_Long2Len
        00402025 0000027c  271		move	$4, $2
        00021e00 00000280  272		sll	$3, $2, 24
        3c198000 00000284  273		lui	$25, 32768
        0330c02b 00000288  274		sltu	$24, $25, $16
        13000009 0000028c  275		beq	$24, $0, .L161
        00031e03 00000290  276		sra	$3, $3, 24
        02191026 00000294  277		xor	$2, $16, $25
        3c0e4080 00000298  278		lui	$14, 16512
        004e682a 0000029c  279		slt	$13, $2, $14
        11a00004 000002a0  280		beq	$13, $0, .L161
        00000000 000002a4  281		nop

                                   Tue Apr 07 08:56:44 2015           Page 7
                                   Tue Apr 07 08:56:44 2015       gh_2i08s.s
        24630001 000002a8  282		addiu	$3, $3, 1
        00031e00 000002ac  283		sll	$3, $3, 24
        00031e03 000002b0  284		sra	$3, $3, 24
                           285	.L161:
        5a000005 000002b4  286		blezl	$16, .L1000164
        02002025 000002b8  287		move	$4, $16
        24630001 000002bc  288		addiu	$3, $3, 1
        00031e00 000002c0  289		sll	$3, $3, 24
        00031e03 000002c4  290		sra	$3, $3, 24
        02002025 000002c8  291		move	$4, $16
                           292	.L1000164:
        0071c021 000002cc  293		addu	$24, $3, $17
        0011782b 000002d0  294		sltu	$15, $0, $17
        030f7021 000002d4  295		addu	$14, $24, $15
        000e2e00 000002d8  296		sll	$5, $14, 24
        00052e03 000002dc  297		sra	$5, $5, 24
        02203025 000002e0  298		move	$6, $17
        0c000000 000002e4  299		jal	_DispFloatFix
        34070001 000002e8  300		ori	$7, $0, 1
                           301	 #	    .ef
        8fbf000c 000002ec  302		lw	$ra, 12($sp)
        8fb00000 000002f0  303		lw	$16, 0($sp)
        8fb10004 000002f4  304		lw	$17, 4($sp)
        03e00008 000002f8  305		jr	$ra
        27bd0010 000002fc  306		addiu	$sp, $sp, 16
                           307		.type	GUI_DispSFloatMin,@function
                           308		.size	GUI_DispSFloatMin,.-GUI_DispSFloatMin
                           309		.align	4
                           310	 #Len	$3	local
                           311	
                           312	 #f	$16	param
                           313	 #Fract	$17	param
                           314	
                           315		.data
                           316	.L192:
                           317		.text
                           318		.align	4
                           319	 #GUI_Pow10	GUI_Pow10	import
                           320	
                           321		.data
                           322		.section ".rodata","a"
                           323		.align	8
                           324		.text
