
                                   Tue Apr 07 08:56:45 2015           Page 1
                                   Tue Apr 07 08:56:45 2015       gh_2i08t.s
Command Line:   C:\GHS\V35\mips35\asmips.exe -noundefined -elf -b0
                -IC:\local\Workspace\DC_V04.01.00_int\cu3x1Platform_SRC\emWinColour
                -IC:\local\Workspace\DC_V04.01.00_int\cu3x1Platform_SRC\platform\include
                -IC:\local\Workspace\DC_V04.01.00_int\cu3x1Platform_SRC\platform\common
                -IC:\local\Workspace\DC_V04.01.00_int\cu3x1Platform_SRC\platform\hardware
                -IC:\local\Workspace\DC_V04.01.00_int\cu3x1Platform_SRC\platform\hardware\D3018X
                -IC:\local\Workspace\DC_V04.01.00_int\cu3x1Platform_SRC\embos\inc
                -IC:\local\Workspace\DC_V04.01.00_int\cu3x1Platform_SRC\emWinColour\config
                -IC:\local\Workspace\DC_V04.01.00_int\cu3x1Platform_SRC\emWinColour\gui\ConvertMono
                -IC:\local\Workspace\DC_V04.01.00_int\cu3x1Platform_SRC\emWinColour\gui\Core
                -IC:\local\Workspace\DC_V04.01.00_int\cu3x1Platform_SRC\emWinColour\gui\Font
                -IC:\local\Workspace\DC_V04.01.00_int\cu3x1Platform_SRC\emWinColour\gui\LCDDriver
                -IC:\local\Workspace\DC_V04.01.00_int\cu3x1Platform_SRC\emWinColour\gui\MemDev
                -IC:\local\Workspace\DC_V04.01.00_int\cu3x1Platform_SRC\emWinColour\gui\VNC
                -IC:\local\Workspace\DC_V04.01.00_int\cu3x1Platform_SRC\emWinColour\gui\Widget
                -IC:\local\Workspace\DC_V04.01.00_int\cu3x1Platform_SRC\emWinColour\gui\wm
                -IC:\local\Workspace\DC_V04.01.00_int\cu3x1App_SRC\Control\source
                -IC:\local\Workspace\DC_V04.01.00_int\cu3x1App_SRC\Control\source\include
                -IC:\local\Workspace\DC_V04.01.00_int\cu3x1App_SRC\Control\source\util
                -IC:\local\Workspace\DC_V04.01.00_int\cu3x1App_SRC\Control\source\datapoint
                -IC:\local\Workspace\DC_V04.01.00_int\cu3x1App_SRC\Control\source\factory
                -IC:\local\Workspace\DC_V04.01.00_int\cu3x1Platform_SRC\embos
                -IC:\local\Workspace\DC_V04.01.00_int\cu3x1Platform_SRC\emWinColour\gui\core
                -IC:\local\Workspace\DC_V04.01.00_int\cu3x1App_SRC\Control\source\rtip\webpage
                -IC:\local\Workspace\DC_V04.01.00_int\cu3x1App_SRC\Control\source\rtip\config
                -IC:\local\Workspace\DC_V04.01.00_int\cu3x1App_SRC\Control\source\rtip\xnet
                -IC:\local\Workspace\DC_V04.01.00_int\cu3x1App_SRC\Control\source\stub
                -IC:\local\Workspace\DC_V04.01.00_int\cu3x1App_SRC\Control\source\test
                -IC:\local\Workspace\DC_V04.01.00_int\cu3x1App_SRC\Control\source\GENIpro
                -IC:\local\Workspace\DC_V04.01.00_int\cu3x1App_SRC\Control\source\GENIpro\GENI_sys
                -IC:\local\Workspace\DC_V04.01.00_int\cu3x1App_SRC\Control\source\GENIpro\GENIusb\emUSB\USB\Driver
                -IC:\local\Workspace\DC_V04.01.00_int\cu3x1App_SRC\Control\source\application\intercom
                -IC:\local\Workspace\DC_V04.01.00_int\cu3x1App_SRC\Control\source\application\controller
                -IC:\local\Workspace\DC_V04.01.00_int\cu3x1App_SRC\Control\source\application\driver
                -IC:\local\Workspace\DC_V04.01.00_int\cu3x1App_SRC\Control\source\application\webif
                -IC:\local\Workspace\DC_V04.01.00_int\cu3x1App_SRC\Control\source\application\relay
                -IC:\local\Workspace\DC_V04.01.00_int\cu3x1App_SRC\Control\source\application\GENIApp
                -IC:\local\Workspace\DC_V04.01.00_int\cu3x1App_SRC\Control\source\application\alarm
                -IC:\local\Workspace\DC_V04.01.00_int\cu3x1App_SRC\Control\source\application\config
                -IC:\local\Workspace\DC_V04.01.00_int\cu3x1App_SRC\Control\source\application\AnaInConfigCtrl
                -IC:\local\Workspace\DC_V04.01.00_int\cu3x1App_SRC\Control\source\application\Sms
                -IC:\local\Workspace\DC_V04.01.00_int\cu3x1App_SRC\Control\source\application\display
                -IC:\local\Workspace\DC_V04.01.00_int\cu3x1App_SRC\Control\source\application\display\display_task
                -IC:\local\Workspace\DC_V04.01.00_int\cu3x1App_SRC\Control\source\application\display\gui_utility
                -IC:\local\Workspace\DC_V04.01.00_int\cu3x1App_SRC\Control\source\application\display\mpcunit
                -IC:\local\Workspace\DC_V04.01.00_int\cu3x1App_SRC\Control\source\GeniPro
                -IC:\local\Workspace\DC_V04.01.00_int\cu3x1App_SRC\Control\source\GeniPro\GENI_sys
                -IC:\local\Workspace\DC_V04.01.00_int\cu3x1App_SRC\Control\source\GeniPro\GENIbus
                -IC:\local\Workspace\DC_V04.01.00_int\cu3x1App_SRC\Control\source\GeniPro\GENIcom
                -IC:\local\Workspace\DC_V04.01.00_int\cu3x1App_SRC\Control\source\GeniPro\GENIrs232
                -IC:\local\Workspace\DC_V04.01.00_int\cu3x1App_SRC\Control\source\GeniPro\Virtual
                -IC:\local\Workspace\DC_V04.01.00_int\cu3x1Platform_SRC\Platform\common
                -IC:\local\Workspace\DC_V04.01.00_int\cu3x1Platform_SRC\Platform\hardware
                -IC:\local\Workspace\DC_V04.01.00_int\cu3x1Platform_SRC\Platform\hardware\D3018X
                -IC:\local\Workspace\DC_V04.01.00_int\cu3x1App_SRC\Control\source\application\display\imagesTFT
                -IC:\GHS\V35\mips35\mipsl_sf -r4121 -source=LCD.c -o
                objs\gh_2i08t.o -list=objs\LCD.lst
                C:\Users\55602\AppData\Local\Temp\gh_2i08t.s
Source File:    C:\Users\55602\AppData\Local\Temp\gh_2i08t.s
Directory:      C:\local\Workspace\DC_V04.01.00_int\cu3x1App_SRC\Control\source
Host OS:        GHS_WIN32
Version:        AS-MIPS 3.5#11 
Release:        MULTI 2000, MIPS v3.5
Revision Date:  Wed Feb 27 12:19:03 2002
Release Date:   Sat Mar 02 02:57:59 2002
                             1	 #Source File:   C:\local\Workspace\DC_V04.01.00_int\cu3x1Platform_SRC\emWinColour\GUI\Core\LCD.c

                                   Tue Apr 07 08:56:45 2015           Page 2
                                   Tue Apr 07 08:56:45 2015       gh_2i08t.s
                             2	 #Directory:     
                             3	 #		C:\local\Workspace\DC_V04.01.00_int\cu3x1App_SRC\Control\source
                             4	 #Compile Date:  Tue Apr 07 08:56:45 2015
                             5	 #Host OS:       Win32
                             6	 #Version:       C-MIPS 3.5#11 RELEASE VERSION
                             7	 #Release:       MULTI 2000, MIPS v3.5
                             8	 #Revision Date: Fri Mar 01 11:32:40 2002
                             9	 #Release Date:  Sat Mar 02 02:58:48 2002
                            10		.set	noat
                            11		.set	noreorder
                            12		.set	nomacro
                            13		.text
                            14		.align	4
                            15	_GetColorIndex:
        3c010000 00000000   16		lui	$1, %hi(GUI_Context+16)
                            17	 #	    .bf
        90380000 00000004   18		lbu	$24, %lo(GUI_Context+16)($1)
        33190004 00000008   19		andi	$25, $24, 4
        13200003 0000000c   20		beq	$25, $0, .L4
        00000000 00000010   21		nop
        03e00008 00000014   22		jr	$ra
        2482ffff 00000018   23		addiu	$2, $4, -1
                            24	.L4:
                            25	 #	    .ef
        03e00008 0000001c   26		jr	$ra
        00801025 00000020   27		move	$2, $4
                            28		.type	_GetColorIndex,@function
                            29		.size	_GetColorIndex,.-_GetColorIndex
                            30		.align	4
                            31	
                            32	 #i	$4	param
                            33	
                            34		.data
                            35	.L27:
                            36		.text
                            37		.align	4
                            38		.align	4
                            39		.globl	LCD_SetColorIndex
                            40	LCD_SetColorIndex:
        27bdfff0 00000024   41		addiu	$sp, $sp, -16
        afbf000c 00000028   42		sw	$ra, 12($sp)
        afb00000 0000002c   43		sw	$16, 0($sp)
        00808025 00000030   44		move	$16, $4
                            45	 #	    .bf
        0c000000 00000034   46		jal	_GetColorIndex
        34040001 00000038   47		ori	$4, $0, 1
        00021840 0000003c   48		sll	$3, $2, 1
        3c020000 00000040   49		lui	$2, %hi(GUI_Context)
        24420000 00000044   50		addiu	$2, $2, %lo(GUI_Context)
        00431821 00000048   51		addu	$3, $2, $3
        a4700000 0000004c   52		sh	$16, 0($3)
                            53	 #	    .ef
        8fbf000c 00000050   54		lw	$ra, 12($sp)
        8fb00000 00000054   55		lw	$16, 0($sp)
        03e00008 00000058   56		jr	$ra
        27bd0010 0000005c   57		addiu	$sp, $sp, 16

                                   Tue Apr 07 08:56:45 2015           Page 3
                                   Tue Apr 07 08:56:45 2015       gh_2i08t.s
                            58		.type	LCD_SetColorIndex,@function
                            59		.size	LCD_SetColorIndex,.-LCD_SetColorIndex
                            60		.align	4
                            61	
                            62	 #Index	$16	param
                            63	
                            64		.data
                            65	.L50:
                            66		.text
                            67		.align	4
                            68		.align	4
                            69		.globl	LCD_SetBkColorIndex
                            70	LCD_SetBkColorIndex:
        27bdfff0 00000060   71		addiu	$sp, $sp, -16
        afbf000c 00000064   72		sw	$ra, 12($sp)
        afb00000 00000068   73		sw	$16, 0($sp)
        00808025 0000006c   74		move	$16, $4
                            75	 #	    .bf
        0c000000 00000070   76		jal	_GetColorIndex
        34040000 00000074   77		ori	$4, $0, 0
        00021840 00000078   78		sll	$3, $2, 1
        3c020000 0000007c   79		lui	$2, %hi(GUI_Context)
        24420000 00000080   80		addiu	$2, $2, %lo(GUI_Context)
        00431821 00000084   81		addu	$3, $2, $3
        a4700000 00000088   82		sh	$16, 0($3)
                            83	 #	    .ef
        8fbf000c 0000008c   84		lw	$ra, 12($sp)
        8fb00000 00000090   85		lw	$16, 0($sp)
        03e00008 00000094   86		jr	$ra
        27bd0010 00000098   87		addiu	$sp, $sp, 16
                            88		.type	LCD_SetBkColorIndex,@function
                            89		.size	LCD_SetBkColorIndex,.-LCD_SetBkColorIndex
                            90		.align	4
                            91	
                            92	 #Index	$16	param
                            93	
                            94		.data
                            95	.L69:
                            96		.text
                            97		.align	4
                            98		.align	4
                            99		.globl	LCD_SetDrawMode
                           100	LCD_SetDrawMode:
        3c030000 0000009c  101		lui	$3, %hi(GUI_Context)
                           102	 #	    .bf
        24630000 000000a0  103		addiu	$3, $3, %lo(GUI_Context)
        906f0010 000000a4  104		lbu	$15, 16($3)
        246d0010 000000a8  105		addiu	$13, $3, 16
        01e4c826 000000ac  106		xor	$25, $15, $4
        33380004 000000b0  107		andi	$24, $25, 4
        53000006 000000b4  108		beql	$24, $0, .L1000077
        01e01025 000000b8  109		move	$2, $15
        946e0002 000000bc  110		lhu	$14, 2($3)
        94620000 000000c0  111		lhu	$2, 0($3)
        a46e0000 000000c4  112		sh	$14, 0($3)
        a4620002 000000c8  113		sh	$2, 2($3)

                                   Tue Apr 07 08:56:45 2015           Page 4
                                   Tue Apr 07 08:56:45 2015       gh_2i08t.s
        01e01025 000000cc  114		move	$2, $15
                           115	.L1000077:
                           116	 #	    .ef
        03e00008 000000d0  117		jr	$ra
        a1a40000 000000d4  118		sb	$4, 0($13)
                           119		.type	LCD_SetDrawMode,@function
                           120		.size	LCD_SetDrawMode,.-LCD_SetDrawMode
                           121		.align	4
                           122	 #OldDM	$15	local
                           123	 #temp	$2	local
                           124	
                           125	 #dm	$4	param
                           126	
                           127		.data
                           128	.L96:
                           129		.text
                           130		.align	4
                           131		.align	4
                           132		.globl	LCD_DrawPixel
                           133	LCD_DrawPixel:
        27bdfff0 000000d8  134		addiu	$sp, $sp, -16
                           135	 #	    .bf
        afbf000c 000000dc  136		sw	$ra, 12($sp)
        afb00000 000000e0  137		sw	$16, 0($sp)
        3c100000 000000e4  138		lui	$16, %hi(GUI_Context)
        26100000 000000e8  139		addiu	$16, $16, %lo(GUI_Context)
        02001825 000000ec  140		move	$3, $16
        8479000a 000000f0  141		lh	$25, 10($3)
        24620008 000000f4  142		addiu	$2, $3, 8
        00b9c02a 000000f8  143		slt	$24, $5, $25
        5700001d 000000fc  144		bnel	$24, $0, .L1000107
        8fb00000 00000100  145		lw	$16, 0($sp)
        844f0006 00000104  146		lh	$15, 6($2)
        01e5702a 00000108  147		slt	$14, $15, $5
        55c00019 0000010c  148		bnel	$14, $0, .L1000107
        8fb00000 00000110  149		lw	$16, 0($sp)
        844d0000 00000114  150		lh	$13, 0($2)
        008dc82a 00000118  151		slt	$25, $4, $13
        57200015 0000011c  152		bnel	$25, $0, .L1000107
        8fb00000 00000120  153		lw	$16, 0($sp)
        84580004 00000124  154		lh	$24, 4($2)
        0304782a 00000128  155		slt	$15, $24, $4
        55e00011 0000012c  156		bnel	$15, $0, .L1000107
        8fb00000 00000130  157		lw	$16, 0($sp)
        906d0010 00000134  158		lbu	$13, 16($3)
        31ae0001 00000138  159		andi	$14, $13, 1
        51c00009 0000013c  160		beql	$14, $0, .L1000121
        8e0f004c 00000140  161		lw	$15, 76($16)
        8e18004c 00000144  162		lw	$24, 76($16)
        8f180028 00000148  163		lw	$24, 40($24)
        0300f809 0000014c  164		jalr	$24
        00000000 00000150  165		nop
        8fbf000c 00000154  166		lw	$ra, 12($sp)
        8fb00000 00000158  167		lw	$16, 0($sp)
        03e00008 0000015c  168		jr	$ra
        27bd0010 00000160  169		addiu	$sp, $sp, 16

                                   Tue Apr 07 08:56:45 2015           Page 5
                                   Tue Apr 07 08:56:45 2015       gh_2i08t.s
                           170	.L1000121:
        8def0024 00000164  171		lw	$15, 36($15)
        01e0f809 00000168  172		jalr	$15
        94660002 0000016c  173		lhu	$6, 2($3)
        8fb00000 00000170  174		lw	$16, 0($sp)
                           175	.L1000107:
                           176	 #	    .ef
        8fbf000c 00000174  177		lw	$ra, 12($sp)
        03e00008 00000178  178		jr	$ra
        27bd0010 0000017c  179		addiu	$sp, $sp, 16
                           180		.type	LCD_DrawPixel,@function
                           181		.size	LCD_DrawPixel,.-LCD_DrawPixel
                           182		.align	4
                           183	
                           184	 #x	$4	param
                           185	 #y	$5	param
                           186	
                           187		.data
                           188	.L153:
                           189		.text
                           190		.align	4
                           191		.align	4
                           192		.globl	LCD_DrawHLine
                           193	LCD_DrawHLine:
        3c030000 00000180  194		lui	$3, %hi(GUI_Context+8)
                           195	 #	    .bf
        24630000 00000184  196		addiu	$3, $3, %lo(GUI_Context+8)
        84790002 00000188  197		lh	$25, 2($3)
        00b9c02a 0000018c  198		slt	$24, $5, $25
        17000014 00000190  199		bne	$24, $0, .L175
        00000000 00000194  200		nop
        846f0006 00000198  201		lh	$15, 6($3)
        01e5702a 0000019c  202		slt	$14, $15, $5
        15c00010 000001a0  203		bne	$14, $0, .L175
        00000000 000001a4  204		nop
        84620000 000001a8  205		lh	$2, 0($3)
        0082682a 000001ac  206		slt	$13, $4, $2
        55a00001 000001b0  207		bnel	$13, $0, .L183
        00402025 000001b4  208		move	$4, $2
                           209	.L183:
        84630004 000001b8  210		lh	$3, 4($3)
        0066c82a 000001bc  211		slt	$25, $3, $6
        57200001 000001c0  212		bnel	$25, $0, .L185
        00603025 000001c4  213		move	$6, $3
                           214	.L185:
        00c4c02a 000001c8  215		slt	$24, $6, $4
        17000005 000001cc  216		bne	$24, $0, .L175
        3c010000 000001d0  217		lui	$1, %hi(GUI_Context+76)
        8c2f0000 000001d4  218		lw	$15, %lo(GUI_Context+76)($1)
        8def0010 000001d8  219		lw	$15, 16($15)
        01e00008 000001dc  220		j	$15
        00000000 000001e0  221		nop
                           222	.L175:
                           223	 #	    .ef
        03e00008 000001e4  224		jr	$ra
        00000000 000001e8  225		nop

                                   Tue Apr 07 08:56:45 2015           Page 6
                                   Tue Apr 07 08:56:45 2015       gh_2i08t.s
                           226		.type	LCD_DrawHLine,@function
                           227		.size	LCD_DrawHLine,.-LCD_DrawHLine
                           228		.align	4
                           229	
                           230	 #x0	$4	param
                           231	 #y	$5	param
                           232	 #x1	$6	param
                           233	
                           234		.data
                           235	.L222:
                           236		.text
                           237		.align	4
                           238		.align	4
                           239		.globl	LCD_FillRect
                           240	LCD_FillRect:
        3c030000 000001ec  241		lui	$3, %hi(GUI_Context+8)
                           242	 #	    .bf
        84620000 000001f0  243		lh	$2, %lo(GUI_Context+8)($3)
        24630000 000001f4  244		addiu	$3, $3, %lo(GUI_Context+8)
        0082c82a 000001f8  245		slt	$25, $4, $2
        57200001 000001fc  246		bnel	$25, $0, .L246
        00402025 00000200  247		move	$4, $2
                           248	.L246:
        84620004 00000204  249		lh	$2, 4($3)
        0046c02a 00000208  250		slt	$24, $2, $6
        57000001 0000020c  251		bnel	$24, $0, .L248
        00403025 00000210  252		move	$6, $2
                           253	.L248:
        00c4782a 00000214  254		slt	$15, $6, $4
        15e00010 00000218  255		bne	$15, $0, .L244
        00000000 0000021c  256		nop
        84620002 00000220  257		lh	$2, 2($3)
        00a2702a 00000224  258		slt	$14, $5, $2
        55c00001 00000228  259		bnel	$14, $0, .L253
        00402825 0000022c  260		move	$5, $2
                           261	.L253:
        84630006 00000230  262		lh	$3, 6($3)
        0067682a 00000234  263		slt	$13, $3, $7
        55a00001 00000238  264		bnel	$13, $0, .L255
        00603825 0000023c  265		move	$7, $3
                           266	.L255:
        00e5c82a 00000240  267		slt	$25, $7, $5
        17200005 00000244  268		bne	$25, $0, .L244
        3c010000 00000248  269		lui	$1, %hi(GUI_Context+76)
        8c380000 0000024c  270		lw	$24, %lo(GUI_Context+76)($1)
        8f180018 00000250  271		lw	$24, 24($24)
        03000008 00000254  272		j	$24
        00000000 00000258  273		nop
                           274	.L244:
                           275	 #	    .ef
        03e00008 0000025c  276		jr	$ra
        00000000 00000260  277		nop
                           278		.type	LCD_FillRect,@function
                           279		.size	LCD_FillRect,.-LCD_FillRect
                           280		.align	4
                           281	

                                   Tue Apr 07 08:56:45 2015           Page 7
                                   Tue Apr 07 08:56:45 2015       gh_2i08t.s
                           282	 #x0	$4	param
                           283	 #y0	$5	param
                           284	 #x1	$6	param
                           285	 #y1	$7	param
                           286	
                           287		.data
                           288	.L301:
                           289		.text
                           290		.align	4
                           291		.align	4
                           292		.globl	LCD_DrawBitmap
                           293	LCD_DrawBitmap:
        27bdff80 00000264  294		addiu	$sp, $sp, -128
                           295	 #	    .bf
        a3a00033 00000268  296		sb	$0, 51($sp)
        afb00008 0000026c  297		sw	$16, 8($sp)
        00808025 00000270  298		move	$16, $4
        afb1000c 00000274  299		sw	$17, 12($sp)
        00c08825 00000278  300		move	$17, $6
        afb20010 0000027c  301		sw	$18, 16($sp)
        00e09025 00000280  302		move	$18, $7
        afb30014 00000284  303		sw	$19, 20($sp)
        01009825 00000288  304		move	$19, $8
        afb40018 0000028c  305		sw	$20, 24($sp)
        0120a025 00000290  306		move	$20, $9
        afb5001c 00000294  307		sw	$21, 28($sp)
        0140a825 00000298  308		move	$21, $10
        afb60020 0000029c  309		sw	$22, 32($sp)
        0160b025 000002a0  310		move	$22, $11
        afb70024 000002a4  311		sw	$23, 36($sp)
        8fb70080 000002a8  312		lw	$23, 128($sp)
        8f990000 000002ac  313		lw	$25, %sdaoff(GUI_pLCD_APIList)($28)
        afbe0028 000002b0  314		sw	$fp, 40($sp)
        8fbe0084 000002b4  315		lw	$fp, 132($sp)
        13200012 000002b8  316		beq	$25, $0, .L331
        afbf007c 000002bc  317		sw	$ra, 124($sp)
        afbe0004 000002c0  318		sw	$fp, 4($sp)
        afb70000 000002c4  319		sw	$23, 0($sp)
        8f2f0000 000002c8  320		lw	$15, 0($25)
        01e0f809 000002cc  321		jalr	$15
        00000000 000002d0  322		nop
        8fb60020 000002d4  323		lw	$22, 32($sp)
        8fb5001c 000002d8  324		lw	$21, 28($sp)
        8fb40018 000002dc  325		lw	$20, 24($sp)
        8fb30014 000002e0  326		lw	$19, 20($sp)
        8fb20010 000002e4  327		lw	$18, 16($sp)
        8fb1000c 000002e8  328		lw	$17, 12($sp)
        8fb00008 000002ec  329		lw	$16, 8($sp)
        8fbf007c 000002f0  330		lw	$ra, 124($sp)
        8fb70024 000002f4  331		lw	$23, 36($sp)
        8fbe0028 000002f8  332		lw	$fp, 40($sp)
        03e00008 000002fc  333		jr	$ra
        27bd0080 00000300  334		addiu	$sp, $sp, 128
                           335	.L331:
        02116821 00000304  336		addu	$13, $16, $17
        25afffff 00000308  337		addiu	$15, $13, -1

                                   Tue Apr 07 08:56:45 2015           Page 8
                                   Tue Apr 07 08:56:45 2015       gh_2i08t.s
        3c020000 0000030c  338		lui	$2, %hi(GUI_Context)
        00b27021 00000310  339		addu	$14, $5, $18
        25ceffff 00000314  340		addiu	$14, $14, -1
        0274c825 00000318  341		or	$25, $19, $20
        34180001 0000031c  342		ori	$24, $0, 1
        17380067 00000320  343		bne	$25, $24, .L334
        24420000 00000324  344		addiu	$2, $2, %lo(GUI_Context)
        8459000a 00000328  345		lh	$25, 10($2)
        24430008 0000032c  346		addiu	$3, $2, 8
        03255823 00000330  347		subu	$11, $25, $5
        59600007 00000334  348		blezl	$11, .L1000336
        84790006 00000338  349		lh	$25, 6($3)
        024b9023 0000033c  350		subu	$18, $18, $11
        1a4000e9 00000340  351		blez	$18, .L329
        03202825 00000344  352		move	$5, $25
        02e00013 00000348  353		mtlo	$23
        0176b828 0000034c  354		macc	$23, $11, $22
        84790006 00000350  355		lh	$25, 6($3)
                           356	.L1000336:
        01d95823 00000354  357		subu	$11, $14, $25
        59600005 00000358  358		blezl	$11, .L1000341
        846e0004 0000035c  359		lh	$14, 4($3)
        024b9023 00000360  360		subu	$18, $18, $11
        5a4000e1 00000364  361		blezl	$18, .L1000329
        8fbe0028 00000368  362		lw	$fp, 40($sp)
        846e0004 0000036c  363		lh	$14, 4($3)
                           364	.L1000341:
        01ee5823 00000370  365		subu	$11, $15, $14
        5d600001 00000374  366		bgtzl	$11, .L346
        022b8823 00000378  367		subu	$17, $17, $11
                           368	.L346:
        84630000 0000037c  369		lh	$3, 0($3)
        340b0000 00000380  370		ori	$11, $0, 0
        0203c82a 00000384  371		slt	$25, $16, $3
        13200036 00000388  372		beq	$25, $0, .L348
        00000000 0000038c  373		nop
        00705823 00000390  374		subu	$11, $3, $16
        02a01825 00000394  375		move	$3, $21
        2c780004 00000398  376		sltiu	$24, $3, 4
        13000008 0000039c  377		beq	$24, $0, .L494
        022b8823 000003a0  378		subu	$17, $17, $11
        2463ffff 000003a4  379		addiu	$3, $3, -1
        1060000e 000003a8  380		beq	$3, $0, .L352
        2463ffff 000003ac  381		addiu	$3, $3, -1
        50600014 000003b0  382		beql	$3, $0, .L1000353
        000b1883 000003b4  383		sra	$3, $11, 2
        08000000 000003b8  384		j	.L348
        00000000 000003bc  385		nop
                           386	.L494:
        2463fffc 000003c0  387		addiu	$3, $3, -4
        10600016 000003c4  388		beq	$3, $0, .L354
        2463fffc 000003c8  389		addiu	$3, $3, -4
        1060001c 000003cc  390		beq	$3, $0, .L355
        2463fff8 000003d0  391		addiu	$3, $3, -8
        50600020 000003d4  392		beql	$3, $0, .L1000356
        000b6840 000003d8  393		sll	$13, $11, 1

                                   Tue Apr 07 08:56:45 2015           Page 9
                                   Tue Apr 07 08:56:45 2015       gh_2i08t.s
        08000000 000003dc  394		j	.L348
        00000000 000003e0  395		nop
                           396	.L352:
        000b18c3 000003e4  397		sra	$3, $11, 3
        316b0007 000003e8  398		andi	$11, $11, 7
        0003c0c0 000003ec  399		sll	$24, $3, 3
        02188021 000003f0  400		addu	$16, $16, $24
        1e20001c 000003f4  401		bgtz	$17, .L357
        02e3b821 000003f8  402		addu	$23, $23, $3
        08000000 000003fc  403		j	.L1000329
        8fbe0028 00000400  404		lw	$fp, 40($sp)
                           405	.L1000353:
        316b0003 00000404  406		andi	$11, $11, 3
        00037880 00000408  407		sll	$15, $3, 2
        020f8021 0000040c  408		addu	$16, $16, $15
        1e200015 00000410  409		bgtz	$17, .L357
        02e3b821 00000414  410		addu	$23, $23, $3
        08000000 00000418  411		j	.L1000329
        8fbe0028 0000041c  412		lw	$fp, 40($sp)
                           413	.L354:
        000b1843 00000420  414		sra	$3, $11, 1
        316b0001 00000424  415		andi	$11, $11, 1
        00037040 00000428  416		sll	$14, $3, 1
        020e8021 0000042c  417		addu	$16, $16, $14
        1e20000d 00000430  418		bgtz	$17, .L357
        02e3b821 00000434  419		addu	$23, $23, $3
        08000000 00000438  420		j	.L1000329
        8fbe0028 0000043c  421		lw	$fp, 40($sp)
                           422	.L355:
        02ebb821 00000440  423		addu	$23, $23, $11
        020b8021 00000444  424		addu	$16, $16, $11
        1e200007 00000448  425		bgtz	$17, .L357
        340b0000 0000044c  426		ori	$11, $0, 0
        08000000 00000450  427		j	.L1000329
        8fbe0028 00000454  428		lw	$fp, 40($sp)
                           429	.L1000356:
        02edb821 00000458  430		addu	$23, $23, $13
        020b8021 0000045c  431		addu	$16, $16, $11
        340b0000 00000460  432		ori	$11, $0, 0
                           433	.L348:
        1a2000a0 00000464  434		blez	$17, .L329
                           435	.L357:
        02002025 00000468  436		move	$4, $16
        02203025 0000046c  437		move	$6, $17
        8c58004c 00000470  438		lw	$24, 76($2)
        afbe0000 00000474  439		sw	$fp, 0($sp)
        02403825 00000478  440		move	$7, $18
        8f18000c 0000047c  441		lw	$24, 12($24)
        02c04825 00000480  442		move	$9, $22
        02a04025 00000484  443		move	$8, $21
        0300f809 00000488  444		jalr	$24
        02e05025 0000048c  445		move	$10, $23
        8fbe0028 00000490  446		lw	$fp, 40($sp)
        8fb70024 00000494  447		lw	$23, 36($sp)
        8fbf007c 00000498  448		lw	$ra, 124($sp)
        8fb00008 0000049c  449		lw	$16, 8($sp)

                                   Tue Apr 07 08:56:45 2015           Page 10
                                   Tue Apr 07 08:56:45 2015       gh_2i08t.s
        8fb1000c 000004a0  450		lw	$17, 12($sp)
        8fb20010 000004a4  451		lw	$18, 16($sp)
        8fb30014 000004a8  452		lw	$19, 20($sp)
        8fb40018 000004ac  453		lw	$20, 24($sp)
        8fb5001c 000004b0  454		lw	$21, 28($sp)
        8fb60020 000004b4  455		lw	$22, 32($sp)
        03e00008 000004b8  456		jr	$ra
        27bd0080 000004bc  457		addiu	$sp, $sp, 128
                           458	.L334:
        340f0008 000004c0  459		ori	$15, $0, 8
        01f56023 000004c4  460		subu	$12, $15, $21
        afac0050 000004c8  461		sw	$12, 80($sp)
        00b47021 000004cc  462		addu	$14, $5, $20
        25ccffff 000004d0  463		addiu	$12, $14, -1
        afac0058 000004d4  464		sw	$12, 88($sp)
        2fcc0001 000004d8  465		sltiu	$12, $fp, 1
        afac0064 000004dc  466		sw	$12, 100($sp)
        244c0002 000004e0  467		addiu	$12, $2, 2
        afac005c 000004e4  468		sw	$12, 92($sp)
        afa00054 000004e8  469		sw	$0, 84($sp)
        afa20060 000004ec  470		sw	$2, 96($sp)
        0012682a 000004f0  471		slt	$13, $0, $18
        11a0007c 000004f4  472		beq	$13, $0, .L329
        afa5006c 000004f8  473		sw	$5, 108($sp)
        8fad005c 000004fc  474		lw	$13, 92($sp)
                           475	.L1000363:
        8fac0058 00000500  476		lw	$12, 88($sp)
        85ad0008 00000504  477		lh	$13, 8($13)
        afac0068 00000508  478		sw	$12, 104($sp)
        018dc82a 0000050c  479		slt	$25, $12, $13
        57200068 00000510  480		bnel	$25, $0, .L1000362
        8fa10054 00000514  481		lw	$1, 84($sp)
        8fb8005c 00000518  482		lw	$24, 92($sp)
        8fac006c 0000051c  483		lw	$12, 108($sp)
        8718000c 00000520  484		lh	$24, 12($24)
        030c782a 00000524  485		slt	$15, $24, $12
        55e00062 00000528  486		bnel	$15, $0, .L1000362
        8fa10054 0000052c  487		lw	$1, 84($sp)
        8fac005c 00000530  488		lw	$12, 92($sp)
        02137021 00000534  489		addu	$14, $16, $19
        afb70040 00000538  490		sw	$23, 64($sp)
        afac0038 0000053c  491		sw	$12, 56($sp)
        8fac0060 00000540  492		lw	$12, 96($sp)
        afb00074 00000544  493		sw	$16, 116($sp)
        afa0003c 00000548  494		sw	$0, 60($sp)
        afac0048 0000054c  495		sw	$12, 72($sp)
        25ccffff 00000550  496		addiu	$12, $14, -1
        afac0070 00000554  497		sw	$12, 112($sp)
        8fac0064 00000558  498		lw	$12, 100($sp)
        0011702a 0000055c  499		slt	$14, $0, $17
        afa00034 00000560  500		sw	$0, 52($sp)
        11c00052 00000564  501		beq	$14, $0, .L362
        afac004c 00000568  502		sw	$12, 76($sp)
        8fa10034 0000056c  503		lw	$1, 52($sp)
                           504	.L1000370:
        54200009 00000570  505		bnel	$1, $0, .L1000372

                                   Tue Apr 07 08:56:45 2015           Page 11
                                   Tue Apr 07 08:56:45 2015       gh_2i08t.s
        93a10033 00000574  506		lbu	$1, 51($sp)
        8fa10040 00000578  507		lw	$1, 64($sp)
        902c0000 0000057c  508		lbu	$12, 0($1)
        24210001 00000580  509		addiu	$1, $1, 1
        afa10040 00000584  510		sw	$1, 64($sp)
        a3ac0033 00000588  511		sb	$12, 51($sp)
        340c0008 0000058c  512		ori	$12, $0, 8
        afac0034 00000590  513		sw	$12, 52($sp)
        93a10033 00000594  514		lbu	$1, 51($sp)
                           515	.L1000372:
        8fac0050 00000598  516		lw	$12, 80($sp)
        01811807 0000059c  517		srav	$3, $1, $12
        02a16004 000005a0  518		sllv	$12, $1, $21
        8fa10034 000005a4  519		lw	$1, 52($sp)
        a3ac0033 000005a8  520		sb	$12, 51($sp)
        306300ff 000005ac  521		andi	$3, $3, 255
        00356023 000005b0  522		subu	$12, $1, $21
        14600006 000005b4  523		bne	$3, $0, .L375
        afac0034 000005b8  524		sw	$12, 52($sp)
        8faf0048 000005bc  525		lw	$15, 72($sp)
        91ef0010 000005c0  526		lbu	$15, 16($15)
        31f80002 000005c4  527		andi	$24, $15, 2
        5700002d 000005c8  528		bnel	$24, $0, .L1000369
        8fa1003c 000005cc  529		lw	$1, 60($sp)
                           530	.L375:
        8fac0038 000005d0  531		lw	$12, 56($sp)
        8fa1004c 000005d4  532		lw	$1, 76($sp)
        958c0000 000005d8  533		lhu	$12, 0($12)
        1420001d 000005dc  534		bne	$1, $0, .L377
        a7ac0046 000005e0  535		sh	$12, 70($sp)
        0003c840 000005e4  536		sll	$25, $3, 1
        8fa10038 000005e8  537		lw	$1, 56($sp)
        03d9c021 000005ec  538		addu	$24, $fp, $25
        970f0000 000005f0  539		lhu	$15, 0($24)
        8fa40074 000005f4  540		lw	$4, 116($sp)
        8fa5006c 000005f8  541		lw	$5, 108($sp)
        a42f0000 000005fc  542		sh	$15, 0($1)
        8fa60070 00000600  543		lw	$6, 112($sp)
        0c000000 00000604  544		jal	LCD_FillRect
        8fa70068 00000608  545		lw	$7, 104($sp)
        8fa10038 0000060c  546		lw	$1, 56($sp)
        97ac0046 00000610  547		lhu	$12, 70($sp)
        a42c0000 00000614  548		sh	$12, 0($1)
        8fa1003c 00000618  549		lw	$1, 60($sp)
        242c0001 0000061c  550		addiu	$12, $1, 1
        8fa10070 00000620  551		lw	$1, 112($sp)
        afac003c 00000624  552		sw	$12, 60($sp)
        00336021 00000628  553		addu	$12, $1, $19
        8fa10074 0000062c  554		lw	$1, 116($sp)
        afac0070 00000630  555		sw	$12, 112($sp)
        00336021 00000634  556		addu	$12, $1, $19
        8fa1003c 00000638  557		lw	$1, 60($sp)
        afac0074 0000063c  558		sw	$12, 116($sp)
        0031702a 00000640  559		slt	$14, $1, $17
        55c0ffca 00000644  560		bnel	$14, $0, .L1000370
        8fa10034 00000648  561		lw	$1, 52($sp)

                                   Tue Apr 07 08:56:45 2015           Page 12
                                   Tue Apr 07 08:56:45 2015       gh_2i08t.s
        08000000 0000064c  562		j	.L1000362
        8fa10054 00000650  563		lw	$1, 84($sp)
                           564	.L377:
        8fa10038 00000654  565		lw	$1, 56($sp)
        8fa40074 00000658  566		lw	$4, 116($sp)
        8fa5006c 0000065c  567		lw	$5, 108($sp)
        a4230000 00000660  568		sh	$3, 0($1)
        8fa60070 00000664  569		lw	$6, 112($sp)
        0c000000 00000668  570		jal	LCD_FillRect
        8fa70068 0000066c  571		lw	$7, 104($sp)
        8fa10038 00000670  572		lw	$1, 56($sp)
        97ac0046 00000674  573		lhu	$12, 70($sp)
        a42c0000 00000678  574		sh	$12, 0($1)
        8fa1003c 0000067c  575		lw	$1, 60($sp)
                           576	.L1000369:
        242c0001 00000680  577		addiu	$12, $1, 1
        8fa10070 00000684  578		lw	$1, 112($sp)
        afac003c 00000688  579		sw	$12, 60($sp)
        00336021 0000068c  580		addu	$12, $1, $19
        8fa10074 00000690  581		lw	$1, 116($sp)
        afac0070 00000694  582		sw	$12, 112($sp)
        00336021 00000698  583		addu	$12, $1, $19
        8fa1003c 0000069c  584		lw	$1, 60($sp)
        afac0074 000006a0  585		sw	$12, 116($sp)
        0031702a 000006a4  586		slt	$14, $1, $17
        55c0ffb1 000006a8  587		bnel	$14, $0, .L1000370
        8fa10034 000006ac  588		lw	$1, 52($sp)
                           589	.L362:
        8fa10054 000006b0  590		lw	$1, 84($sp)
                           591	.L1000362:
        242c0001 000006b4  592		addiu	$12, $1, 1
        8fa10058 000006b8  593		lw	$1, 88($sp)
        afac0054 000006bc  594		sw	$12, 84($sp)
        00346021 000006c0  595		addu	$12, $1, $20
        8fa1006c 000006c4  596		lw	$1, 108($sp)
        afac0058 000006c8  597		sw	$12, 88($sp)
        00346021 000006cc  598		addu	$12, $1, $20
        8fa10054 000006d0  599		lw	$1, 84($sp)
        afac006c 000006d4  600		sw	$12, 108($sp)
        02f6b821 000006d8  601		addu	$23, $23, $22
        0032682a 000006dc  602		slt	$13, $1, $18
        55a0ff87 000006e0  603		bnel	$13, $0, .L1000363
        8fad005c 000006e4  604		lw	$13, 92($sp)
                           605	.L329:
        8fbe0028 000006e8  606		lw	$fp, 40($sp)
                           607	.L1000329:
                           608	 #	    .ef
        8fb70024 000006ec  609		lw	$23, 36($sp)
        8fbf007c 000006f0  610		lw	$ra, 124($sp)
        8fb00008 000006f4  611		lw	$16, 8($sp)
        8fb1000c 000006f8  612		lw	$17, 12($sp)
        8fb20010 000006fc  613		lw	$18, 16($sp)
        8fb30014 00000700  614		lw	$19, 20($sp)
        8fb40018 00000704  615		lw	$20, 24($sp)
        8fb5001c 00000708  616		lw	$21, 28($sp)
        8fb60020 0000070c  617		lw	$22, 32($sp)

                                   Tue Apr 07 08:56:45 2015           Page 13
                                   Tue Apr 07 08:56:45 2015       gh_2i08t.s
        03e00008 00000710  618		jr	$ra
        27bd0080 00000714  619		addiu	$sp, $sp, 128
                           620		.type	LCD_DrawBitmap,@function
                           621		.size	LCD_DrawBitmap,.-LCD_DrawBitmap
                           622		.align	4
                           623	 #Data	51($sp)	local
                           624	 #x1	$15	local
                           625	 #y1	$14	local
                           626	 #Diff	$11	local
                           627	 #x	116($sp)	local
                           628	 #y	108($sp)	local
                           629	 #yi	84($sp)	local
                           630	 #Shift	80($sp)	local
                           631	 #yMax	104($sp)	local
                           632	 #BitsLeft	52($sp)	local
                           633	 #xi	60($sp)	local
                           634	 #pDataLine	64($sp)	local
                           635	 #Index	$3	local
                           636	 #OldColor	70($sp)	local
                           637	
                           638	 #x0	$16	param
                           639	 #y0	$5	param
                           640	 #xsize	$17	param
                           641	 #ysize	$18	param
                           642	 #xMul	$19	param
                           643	 #yMul	$20	param
                           644	 #BitsPerPixel	$21	param
                           645	 #BytesPerLine	$22	param
                           646	 #pPixel	$23	param
                           647	 #pTrans	$fp	param
                           648	
                           649		.data
                           650	.L493:
                           651		.text
                           652		.align	4
                           653		.align	4
                           654		.globl	LCD_SetClipRectMax
                           655	LCD_SetClipRectMax:
        3c010000 00000718  656		lui	$1, %hi(GUI_Context+76)
                           657	 #	    .bf
        8c390000 0000071c  658		lw	$25, %lo(GUI_Context+76)($1)
        3c040000 00000720  659		lui	$4, %hi(GUI_Context+8)
        8f390020 00000724  660		lw	$25, 32($25)
        24840000 00000728  661		addiu	$4, $4, %lo(GUI_Context+8)
        03200008 0000072c  662		j	$25
        00000000 00000730  663		nop
                           664	 #	    .ef
                           665		.type	LCD_SetClipRectMax,@function
                           666		.size	LCD_SetClipRectMax,.-LCD_SetClipRectMax
                           667		.align	4
                           668	
                           669		.data
                           670	.L587:
                           671		.text
                           672		.align	4
                           673		.align	4

                                   Tue Apr 07 08:56:45 2015           Page 14
                                   Tue Apr 07 08:56:45 2015       gh_2i08t.s
                           674		.globl	LCD_Init
                           675	LCD_Init:
        27bdfff0 00000734  676		addiu	$sp, $sp, -16
        afbf000c 00000738  677		sw	$ra, 12($sp)
                           678	 #	    .bf
        0c000000 0000073c  679		jal	LCD_SetClipRectMax
        afb00000 00000740  680		sw	$16, 0($sp)
        0c000000 00000744  681		jal	LCD_L0_Init
        00000000 00000748  682		nop
        0c000000 0000074c  683		jal	LCD_InitLUT
        00408025 00000750  684		move	$16, $2
        0c000000 00000754  685		jal	LCD_SetDrawMode
        34040004 00000758  686		ori	$4, $0, 4
        34040000 0000075c  687		ori	$4, $0, 0
        34050000 00000760  688		ori	$5, $0, 0
        34060fff 00000764  689		ori	$6, $0, 4095
        0c000000 00000768  690		jal	LCD_FillRect
        34070fff 0000076c  691		ori	$7, $0, 4095
        0c000000 00000770  692		jal	LCD_SetDrawMode
        34040000 00000774  693		ori	$4, $0, 0
        0c000000 00000778  694		jal	LCD_L0_On
        00000000 0000077c  695		nop
                           696	 #	    .ef
        02001025 00000780  697		move	$2, $16
        8fbf000c 00000784  698		lw	$ra, 12($sp)
        8fb00000 00000788  699		lw	$16, 0($sp)
        03e00008 0000078c  700		jr	$ra
        27bd0010 00000790  701		addiu	$sp, $sp, 16
                           702		.type	LCD_Init,@function
                           703		.size	LCD_Init,.-LCD_Init
                           704		.align	4
                           705	
                           706		.data
                           707	.L606:
                           708		.text
                           709		.align	4
                           710		.align	4
                           711		.globl	LCD_Color2Index
                           712	LCD_Color2Index:
        3c010000 00000794  713		lui	$1, %hi(GUI_Context+76)
                           714	 #	    .bf
        8c390000 00000798  715		lw	$25, %lo(GUI_Context+76)($1)
        8f390000 0000079c  716		lw	$25, 0($25)
        03200008 000007a0  717		j	$25
        00000000 000007a4  718		nop
                           719	 #	    .ef
                           720		.type	LCD_Color2Index,@function
                           721		.size	LCD_Color2Index,.-LCD_Color2Index
                           722		.align	4
                           723	
                           724	 #Color	none	param
                           725	
                           726		.data
                           727	.L625:
                           728		.text
                           729		.align	4

                                   Tue Apr 07 08:56:45 2015           Page 15
                                   Tue Apr 07 08:56:45 2015       gh_2i08t.s
                           730		.align	4
                           731		.globl	LCD_Index2Color
                           732	LCD_Index2Color:
        3c010000 000007a8  733		lui	$1, %hi(GUI_Context+76)
                           734	 #	    .bf
        8c390000 000007ac  735		lw	$25, %lo(GUI_Context+76)($1)
        8f390004 000007b0  736		lw	$25, 4($25)
        03200008 000007b4  737		j	$25
        00000000 000007b8  738		nop
                           739	 #	    .ef
                           740		.type	LCD_Index2Color,@function
                           741		.size	LCD_Index2Color,.-LCD_Index2Color
                           742		.align	4
                           743	
                           744	 #Index	none	param
                           745	
                           746		.data
                           747	.L644:
                           748		.text
                           749		.align	4
                           750		.align	4
                           751		.globl	LCD_SetBkColor
                           752	LCD_SetBkColor:
        3c030000 000007bc  753		lui	$3, %hi(GUI_Context+56)
                           754	 #	    .bf
        8c790000 000007c0  755		lw	$25, %lo(GUI_Context+56)($3)
        24630000 000007c4  756		addiu	$3, $3, %lo(GUI_Context+56)
        27bdfff8 000007c8  757		addiu	$sp, $sp, -8
        13240005 000007cc  758		beq	$25, $4, .L650
        afbf0004 000007d0  759		sw	$ra, 4($sp)
        0c000000 000007d4  760		jal	LCD_Color2Index
        ac640000 000007d8  761		sw	$4, 0($3)
        0c000000 000007dc  762		jal	LCD_SetBkColorIndex
        00402025 000007e0  763		move	$4, $2
                           764	.L650:
        8fbf0004 000007e4  765		lw	$ra, 4($sp)
                           766	 #	    .ef
        03e00008 000007e8  767		jr	$ra
        27bd0008 000007ec  768		addiu	$sp, $sp, 8
                           769		.type	LCD_SetBkColor,@function
                           770		.size	LCD_SetBkColor,.-LCD_SetBkColor
                           771		.align	4
                           772	
                           773	 #color	$4	param
                           774	
                           775		.data
                           776	.L668:
                           777		.text
                           778		.align	4
                           779		.align	4
                           780		.globl	LCD_SetColor
                           781	LCD_SetColor:
        3c030000 000007f0  782		lui	$3, %hi(GUI_Context+52)
                           783	 #	    .bf
        8c790000 000007f4  784		lw	$25, %lo(GUI_Context+52)($3)
        24630000 000007f8  785		addiu	$3, $3, %lo(GUI_Context+52)

                                   Tue Apr 07 08:56:45 2015           Page 16
                                   Tue Apr 07 08:56:45 2015       gh_2i08t.s
        27bdfff8 000007fc  786		addiu	$sp, $sp, -8
        13240005 00000800  787		beq	$25, $4, .L678
        afbf0004 00000804  788		sw	$ra, 4($sp)
        0c000000 00000808  789		jal	LCD_Color2Index
        ac640000 0000080c  790		sw	$4, 0($3)
        0c000000 00000810  791		jal	LCD_SetColorIndex
        00402025 00000814  792		move	$4, $2
                           793	.L678:
        8fbf0004 00000818  794		lw	$ra, 4($sp)
                           795	 #	    .ef
        03e00008 0000081c  796		jr	$ra
        27bd0008 00000820  797		addiu	$sp, $sp, 8
                           798		.type	LCD_SetColor,@function
                           799		.size	LCD_SetColor,.-LCD_SetColor
                           800		.align	4
                           801	
                           802	 #color	$4	param
                           803	
                           804		.data
                           805	.L696:
                           806		.text
                           807		.align	4
                           808	 #GUI_Context	GUI_Context	import
                           809	 #GUI_pLCD_APIList	%sdaoff(GUI_pLCD_APIList)	import
                           810	
                           811		.data
                           812		.text
