
                                   Tue Apr 07 08:56:50 2015           Page 1
                                   Tue Apr 07 08:56:49 2015       gh_2i090.s
Command Line:   C:\GHS\V35\mips35\asmips.exe -noundefined -elf -b0
                -IC:\local\Workspace\DC_V04.01.00_int\cu3x1Platform_SRC\emWinColour
                -IC:\local\Workspace\DC_V04.01.00_int\cu3x1Platform_SRC\platform\include
                -IC:\local\Workspace\DC_V04.01.00_int\cu3x1Platform_SRC\platform\common
                -IC:\local\Workspace\DC_V04.01.00_int\cu3x1Platform_SRC\platform\hardware
                -IC:\local\Workspace\DC_V04.01.00_int\cu3x1Platform_SRC\platform\hardware\D3018X
                -IC:\local\Workspace\DC_V04.01.00_int\cu3x1Platform_SRC\embos\inc
                -IC:\local\Workspace\DC_V04.01.00_int\cu3x1Platform_SRC\emWinColour\config
                -IC:\local\Workspace\DC_V04.01.00_int\cu3x1Platform_SRC\emWinColour\gui\ConvertMono
                -IC:\local\Workspace\DC_V04.01.00_int\cu3x1Platform_SRC\emWinColour\gui\Core
                -IC:\local\Workspace\DC_V04.01.00_int\cu3x1Platform_SRC\emWinColour\gui\Font
                -IC:\local\Workspace\DC_V04.01.00_int\cu3x1Platform_SRC\emWinColour\gui\LCDDriver
                -IC:\local\Workspace\DC_V04.01.00_int\cu3x1Platform_SRC\emWinColour\gui\MemDev
                -IC:\local\Workspace\DC_V04.01.00_int\cu3x1Platform_SRC\emWinColour\gui\VNC
                -IC:\local\Workspace\DC_V04.01.00_int\cu3x1Platform_SRC\emWinColour\gui\Widget
                -IC:\local\Workspace\DC_V04.01.00_int\cu3x1Platform_SRC\emWinColour\gui\wm
                -IC:\local\Workspace\DC_V04.01.00_int\cu3x1App_SRC\Control\source
                -IC:\local\Workspace\DC_V04.01.00_int\cu3x1App_SRC\Control\source\include
                -IC:\local\Workspace\DC_V04.01.00_int\cu3x1App_SRC\Control\source\util
                -IC:\local\Workspace\DC_V04.01.00_int\cu3x1App_SRC\Control\source\datapoint
                -IC:\local\Workspace\DC_V04.01.00_int\cu3x1App_SRC\Control\source\factory
                -IC:\local\Workspace\DC_V04.01.00_int\cu3x1Platform_SRC\embos
                -IC:\local\Workspace\DC_V04.01.00_int\cu3x1Platform_SRC\emWinColour\gui\core
                -IC:\local\Workspace\DC_V04.01.00_int\cu3x1App_SRC\Control\source\rtip\webpage
                -IC:\local\Workspace\DC_V04.01.00_int\cu3x1App_SRC\Control\source\rtip\config
                -IC:\local\Workspace\DC_V04.01.00_int\cu3x1App_SRC\Control\source\rtip\xnet
                -IC:\local\Workspace\DC_V04.01.00_int\cu3x1App_SRC\Control\source\stub
                -IC:\local\Workspace\DC_V04.01.00_int\cu3x1App_SRC\Control\source\test
                -IC:\local\Workspace\DC_V04.01.00_int\cu3x1App_SRC\Control\source\GENIpro
                -IC:\local\Workspace\DC_V04.01.00_int\cu3x1App_SRC\Control\source\GENIpro\GENI_sys
                -IC:\local\Workspace\DC_V04.01.00_int\cu3x1App_SRC\Control\source\GENIpro\GENIusb\emUSB\USB\Driver
                -IC:\local\Workspace\DC_V04.01.00_int\cu3x1App_SRC\Control\source\application\intercom
                -IC:\local\Workspace\DC_V04.01.00_int\cu3x1App_SRC\Control\source\application\controller
                -IC:\local\Workspace\DC_V04.01.00_int\cu3x1App_SRC\Control\source\application\driver
                -IC:\local\Workspace\DC_V04.01.00_int\cu3x1App_SRC\Control\source\application\webif
                -IC:\local\Workspace\DC_V04.01.00_int\cu3x1App_SRC\Control\source\application\relay
                -IC:\local\Workspace\DC_V04.01.00_int\cu3x1App_SRC\Control\source\application\GENIApp
                -IC:\local\Workspace\DC_V04.01.00_int\cu3x1App_SRC\Control\source\application\alarm
                -IC:\local\Workspace\DC_V04.01.00_int\cu3x1App_SRC\Control\source\application\config
                -IC:\local\Workspace\DC_V04.01.00_int\cu3x1App_SRC\Control\source\application\AnaInConfigCtrl
                -IC:\local\Workspace\DC_V04.01.00_int\cu3x1App_SRC\Control\source\application\Sms
                -IC:\local\Workspace\DC_V04.01.00_int\cu3x1App_SRC\Control\source\application\display
                -IC:\local\Workspace\DC_V04.01.00_int\cu3x1App_SRC\Control\source\application\display\display_task
                -IC:\local\Workspace\DC_V04.01.00_int\cu3x1App_SRC\Control\source\application\display\gui_utility
                -IC:\local\Workspace\DC_V04.01.00_int\cu3x1App_SRC\Control\source\application\display\mpcunit
                -IC:\local\Workspace\DC_V04.01.00_int\cu3x1App_SRC\Control\source\GeniPro
                -IC:\local\Workspace\DC_V04.01.00_int\cu3x1App_SRC\Control\source\GeniPro\GENI_sys
                -IC:\local\Workspace\DC_V04.01.00_int\cu3x1App_SRC\Control\source\GeniPro\GENIbus
                -IC:\local\Workspace\DC_V04.01.00_int\cu3x1App_SRC\Control\source\GeniPro\GENIcom
                -IC:\local\Workspace\DC_V04.01.00_int\cu3x1App_SRC\Control\source\GeniPro\GENIrs232
                -IC:\local\Workspace\DC_V04.01.00_int\cu3x1App_SRC\Control\source\GeniPro\Virtual
                -IC:\local\Workspace\DC_V04.01.00_int\cu3x1Platform_SRC\Platform\common
                -IC:\local\Workspace\DC_V04.01.00_int\cu3x1Platform_SRC\Platform\hardware
                -IC:\local\Workspace\DC_V04.01.00_int\cu3x1Platform_SRC\Platform\hardware\D3018X
                -IC:\local\Workspace\DC_V04.01.00_int\cu3x1App_SRC\Control\source\application\display\imagesTFT
                -IC:\GHS\V35\mips35\mipsl_sf -r4121 -source=LCD_DrawBitmap_888.c
                -o objs\gh_2i090.o -list=objs\LCD_DrawBitmap_888.lst
                C:\Users\55602\AppData\Local\Temp\gh_2i090.s
Source File:    C:\Users\55602\AppData\Local\Temp\gh_2i090.s
Directory:      C:\local\Workspace\DC_V04.01.00_int\cu3x1App_SRC\Control\source
Host OS:        GHS_WIN32
Version:        AS-MIPS 3.5#11 
Release:        MULTI 2000, MIPS v3.5
Revision Date:  Wed Feb 27 12:19:03 2002
Release Date:   Sat Mar 02 02:57:59 2002
                             1	 #Source File:   C:\local\Workspace\DC_V04.01.00_int\cu3x1Platform_SRC\emWinColour\GUI\Core\LCD_DrawBitmap_888.c

                                   Tue Apr 07 08:56:50 2015           Page 2
                                   Tue Apr 07 08:56:49 2015       gh_2i090.s
                             2	 #Directory:     
                             3	 #		C:\local\Workspace\DC_V04.01.00_int\cu3x1App_SRC\Control\source
                             4	 #Compile Date:  Tue Apr 07 08:56:49 2015
                             5	 #Host OS:       Win32
                             6	 #Version:       C-MIPS 3.5#11 RELEASE VERSION
                             7	 #Release:       MULTI 2000, MIPS v3.5
                             8	 #Revision Date: Fri Mar 01 11:32:40 2002
                             9	 #Release Date:  Sat Mar 02 02:58:48 2002
                            10		.set	noat
                            11		.set	noreorder
                            12		.set	nomacro
                            13		.text
                            14		.align	4
                            15	_DrawBitmap:
        27bdff70 00000000   16		addiu	$sp, $sp, -144
                            17	 #	    .bf
        afbf008c 00000004   18		sw	$ra, 140($sp)
        afb70024 00000008   19		sw	$23, 36($sp)
        afb00008 0000000c   20		sw	$16, 8($sp)
        00808025 00000010   21		move	$16, $4
        afb1000c 00000014   22		sw	$17, 12($sp)
        00a08825 00000018   23		move	$17, $5
        afb20010 0000001c   24		sw	$18, 16($sp)
        00c09025 00000020   25		move	$18, $6
        afb30014 00000024   26		sw	$19, 20($sp)
        00e09825 00000028   27		move	$19, $7
        afb40018 0000002c   28		sw	$20, 24($sp)
        0100a025 00000030   29		move	$20, $8
        afb5001c 00000034   30		sw	$21, 28($sp)
        0140a825 00000038   31		move	$21, $10
        afb60020 0000003c   32		sw	$22, 32($sp)
        0160b025 00000040   33		move	$22, $11
        afa00060 00000044   34		sw	$0, 96($sp)
        0c000000 00000048   35		jal	LCD_GetColorIndex
        afbe0028 0000004c   36		sw	$fp, 40($sp)
        afa20068 00000050   37		sw	$2, 104($sp)
        3c170fff 00000054   38		lui	$23, 4095
        36f7ffff 00000058   39		ori	$23, $23, 65535
        afb40038 0000005c   40		sw	$20, 56($sp)
        3c1e0000 00000060   41		lui	$fp, %hi(GUI_Context)
        27de0000 00000064   42		addiu	$fp, $fp, %lo(GUI_Context)
        0c000000 00000068   43		jal	LCD_GetFixedPaletteEx
        93c40011 0000006c   44		lbu	$4, 17($fp)
        afa20064 00000070   45		sw	$2, 100($sp)
        0c000000 00000074   46		jal	LCD_GetSwapRBEx
        93c40011 00000078   47		lbu	$4, 17($fp)
        8fc3004c 0000007c   48		lw	$3, 76($fp)
        00126080 00000080   49		sll	$12, $18, 2
        afac006c 00000084   50		sw	$12, 108($sp)
        8c63003c 00000088   51		lw	$3, 60($3)
        0040c025 0000008c   52		move	$24, $2
        02b61025 00000090   53		or	$2, $21, $22
        50600016 00000094   54		beql	$3, $0, .L1000004
        8fa10060 00000098   55		lw	$1, 96($sp)
        87d90050 0000009c   56		lh	$25, 80($fp)
        13200006 000000a0   57		beq	$25, $0, .L9

                                   Tue Apr 07 08:56:50 2015           Page 3
                                   Tue Apr 07 08:56:49 2015       gh_2i090.s
        00000000 000000a4   58		nop
        8c6e0004 000000a8   59		lw	$14, 4($3)
        3c0d0000 000000ac   60		lui	$13, %hi(LCD_Index2Color_888)
        25ad0000 000000b0   61		addiu	$13, $13, %lo(LCD_Index2Color_888)
        51cd000b 000000b4   62		beql	$14, $13, .L1000008
        34190001 000000b8   63		ori	$25, $0, 1
                            64	.L9:
        5720000c 000000bc   65		bnel	$25, $0, .L1000004
        8fa10060 000000c0   66		lw	$1, 96($sp)
        8fa10064 000000c4   67		lw	$1, 100($sp)
        340f0378 000000c8   68		ori	$15, $0, 888
        542f0008 000000cc   69		bnel	$1, $15, .L1000004
        8fa10060 000000d0   70		lw	$1, 96($sp)
        938e0000 000000d4   71		lbu	$14, %sdaoff(_BitmapSwapRB)($28)
        570e0005 000000d8   72		bnel	$24, $14, .L1000004
        8fa10060 000000dc   73		lw	$1, 96($sp)
        34190001 000000e0   74		ori	$25, $0, 1
                            75	.L1000008:
        50590001 000000e4   76		beql	$2, $25, .L4
        afb90060 000000e8   77		sw	$25, 96($sp)
                            78	.L4:
        8fa10060 000000ec   79		lw	$1, 96($sp)
                            80	.L1000004:
        10200017 000000f0   81		beq	$1, $0, .L13
        02002025 000000f4   82		move	$4, $16
        afa00004 000000f8   83		sw	$0, 4($sp)
        afb40000 000000fc   84		sw	$20, 0($sp)
        02202825 00000100   85		move	$5, $17
        02403025 00000104   86		move	$6, $18
        02603825 00000108   87		move	$7, $19
        8fab006c 0000010c   88		lw	$11, 108($sp)
        34080001 00000110   89		ori	$8, $0, 1
        34090001 00000114   90		ori	$9, $0, 1
        0c000000 00000118   91		jal	LCD_DrawBitmap
        340a0018 0000011c   92		ori	$10, $0, 24
        8fbe0028 00000120   93		lw	$fp, 40($sp)
        8fb70024 00000124   94		lw	$23, 36($sp)
        8fbf008c 00000128   95		lw	$ra, 140($sp)
        8fb00008 0000012c   96		lw	$16, 8($sp)
        8fb1000c 00000130   97		lw	$17, 12($sp)
        8fb20010 00000134   98		lw	$18, 16($sp)
        8fb30014 00000138   99		lw	$19, 20($sp)
        8fb40018 0000013c  100		lw	$20, 24($sp)
        8fb5001c 00000140  101		lw	$21, 28($sp)
        8fb60020 00000144  102		lw	$22, 32($sp)
        03e00008 00000148  103		jr	$ra
        27bd0090 0000014c  104		addiu	$sp, $sp, 144
                           105	.L13:
        340f0001 00000150  106		ori	$15, $0, 1
        144f0122 00000154  107		bne	$2, $15, .L16
        27c20008 00000158  108		addiu	$2, $fp, 8
        02337021 0000015c  109		addu	$14, $17, $19
        87d8000a 00000160  110		lh	$24, 10($fp)
        02126821 00000164  111		addu	$13, $16, $18
        25a6ffff 00000168  112		addiu	$6, $13, -1
        03001825 0000016c  113		move	$3, $24

                                   Tue Apr 07 08:56:50 2015           Page 4
                                   Tue Apr 07 08:56:49 2015       gh_2i090.s
        0223c82a 00000170  114		slt	$25, $17, $3
        1320000c 00000174  115		beq	$25, $0, .L18
        25c5ffff 00000178  116		addiu	$5, $14, -1
        8fac006c 0000017c  117		lw	$12, 108($sp)
        00711823 00000180  118		subu	$3, $3, $17
        03008825 00000184  119		move	$17, $24
        006c0018 00000188  120		mult	$3, $12
        0000c012 0000018c  121		mflo	$24
        8fa10038 00000190  122		lw	$1, 56($sp)
        02639823 00000194  123		subu	$19, $19, $3
        00187882 00000198  124		srl	$15, $24, 2
        000f7080 0000019c  125		sll	$14, $15, 2
        002e6021 000001a0  126		addu	$12, $1, $14
        afac0038 000001a4  127		sw	$12, 56($sp)
                           128	.L18:
        844d0006 000001a8  129		lh	$13, 6($2)
        00ad1823 000001ac  130		subu	$3, $5, $13
        5c600001 000001b0  131		bgtzl	$3, .L20
        02639823 000001b4  132		subu	$19, $19, $3
                           133	.L20:
        5a600179 000001b8  134		blezl	$19, .L1000002
        8fbe0028 000001bc  135		lw	$fp, 40($sp)
        844f0004 000001c0  136		lh	$15, 4($2)
        00cf1823 000001c4  137		subu	$3, $6, $15
        5c600001 000001c8  138		bgtzl	$3, .L25
        02439023 000001cc  139		subu	$18, $18, $3
                           140	.L25:
        84430000 000001d0  141		lh	$3, 0($2)
        0203682a 000001d4  142		slt	$13, $16, $3
        11a00008 000001d8  143		beq	$13, $0, .L27
        00000000 000001dc  144		nop
        00701823 000001e0  145		subu	$3, $3, $16
        8fa10038 000001e4  146		lw	$1, 56($sp)
        02439023 000001e8  147		subu	$18, $18, $3
        0003c880 000001ec  148		sll	$25, $3, 2
        00396021 000001f0  149		addu	$12, $1, $25
        afac0038 000001f4  150		sw	$12, 56($sp)
        02038021 000001f8  151		addu	$16, $16, $3
                           152	.L27:
        5a400168 000001fc  153		blezl	$18, .L1000002
        8fbe0028 00000200  154		lw	$fp, 40($sp)
        8fa1006c 00000204  155		lw	$1, 108($sp)
        afbe0050 00000208  156		sw	$fp, 80($sp)
        0013702a 0000020c  157		slt	$14, $0, $19
        00017fc3 00000210  158		sra	$15, $1, 31
        000f1f82 00000214  159		srl	$3, $15, 30
        00611821 00000218  160		addu	$3, $3, $1
        00031883 0000021c  161		sra	$3, $3, 2
        00036080 00000220  162		sll	$12, $3, 2
        afac0058 00000224  163		sw	$12, 88($sp)
        11c0015a 00000228  164		beq	$14, $0, .L45
        afa00040 0000022c  165		sw	$0, 64($sp)
                           166	.L34:
        34010000 00000230  167		ori	$1, $0, 0
        afa0004c 00000234  168		sw	$0, 76($sp)
        afa0003c 00000238  169		sw	$0, 60($sp)

                                   Tue Apr 07 08:56:50 2015           Page 5
                                   Tue Apr 07 08:56:49 2015       gh_2i090.s
        0032702a 0000023c  170		slt	$14, $1, $18
        11c00002 00000240  171		beq	$14, $0, .L363
        8fb50038 00000244  172		lw	$21, 56($sp)
        afb2003c 00000248  173		sw	$18, 60($sp)
                           174	.L363:
        8fa1003c 0000024c  175		lw	$1, 60($sp)
        0001f082 00000250  176		srl	$fp, $1, 2
        53c000a3 00000254  177		beql	$fp, $0, .L1000160
        8fa1003c 00000258  178		lw	$1, 60($sp)
        8fa10050 0000025c  179		lw	$1, 80($sp)
        24360002 00000260  180		addiu	$22, $1, 2
        8fa10040 00000264  181		lw	$1, 64($sp)
        00316021 00000268  182		addu	$12, $1, $17
        afac0080 0000026c  183		sw	$12, 128($sp)
        260c0003 00000270  184		addiu	$12, $16, 3
        afac0084 00000274  185		sw	$12, 132($sp)
        001e6080 00000278  186		sll	$12, $fp, 2
        afac004c 0000027c  187		sw	$12, 76($sp)
                           188	.L161:
        8eb40000 00000280  189		lw	$20, 0($21)
        26b50004 00000284  190		addiu	$21, $21, 4
        5297001c 00000288  191		beql	$20, $23, .L1000168
        8ece004a 0000028c  192		lw	$14, 74($22)
        93980000 00000290  193		lbu	$24, %sdaoff(_BitmapSwapRB)($28)
        13000013 00000294  194		beq	$24, $0, .L164
        00000000 00000298  195		nop
        0c000000 0000029c  196		jal	LCD_Index2Color_M888
        02802025 000002a0  197		move	$4, $20
        0c000000 000002a4  198		jal	LCD_SetColor
        00402025 000002a8  199		move	$4, $2
        8ece004a 000002ac  200		lw	$14, 74($22)
        0280b825 000002b0  201		move	$23, $20
        8fa10084 000002b4  202		lw	$1, 132($sp)
        8dce0024 000002b8  203		lw	$14, 36($14)
        8fa50080 000002bc  204		lw	$5, 128($sp)
        2424fffd 000002c0  205		addiu	$4, $1, -3
        01c0f809 000002c4  206		jalr	$14
        96c60000 000002c8  207		lhu	$6, 0($22)
        8eb40000 000002cc  208		lw	$20, 0($21)
        26b50004 000002d0  209		addiu	$21, $21, 4
        5297002e 000002d4  210		beql	$20, $23, .L1000175
        8ecf004a 000002d8  211		lw	$15, 74($22)
        08000000 000002dc  212		j	.L1000169
        93990000 000002e0  213		lbu	$25, %sdaoff(_BitmapSwapRB)($28)
                           214	.L164:
        0c000000 000002e4  215		jal	LCD_Index2Color_888
        02802025 000002e8  216		move	$4, $20
        0c000000 000002ec  217		jal	LCD_SetColor
        00402025 000002f0  218		move	$4, $2
        0280b825 000002f4  219		move	$23, $20
        8ece004a 000002f8  220		lw	$14, 74($22)
                           221	.L1000168:
        8fa10084 000002fc  222		lw	$1, 132($sp)
        8dce0024 00000300  223		lw	$14, 36($14)
        2424fffd 00000304  224		addiu	$4, $1, -3
        8fa50080 00000308  225		lw	$5, 128($sp)

                                   Tue Apr 07 08:56:50 2015           Page 6
                                   Tue Apr 07 08:56:49 2015       gh_2i090.s
        01c0f809 0000030c  226		jalr	$14
        96c60000 00000310  227		lhu	$6, 0($22)
        8eb40000 00000314  228		lw	$20, 0($21)
        26b50004 00000318  229		addiu	$21, $21, 4
        5297001c 0000031c  230		beql	$20, $23, .L1000175
        8ecf004a 00000320  231		lw	$15, 74($22)
        93990000 00000324  232		lbu	$25, %sdaoff(_BitmapSwapRB)($28)
                           233	.L1000169:
        13200013 00000328  234		beq	$25, $0, .L171
        00000000 0000032c  235		nop
        0c000000 00000330  236		jal	LCD_Index2Color_M888
        02802025 00000334  237		move	$4, $20
        0c000000 00000338  238		jal	LCD_SetColor
        00402025 0000033c  239		move	$4, $2
        8ecf004a 00000340  240		lw	$15, 74($22)
        0280b825 00000344  241		move	$23, $20
        8fa10084 00000348  242		lw	$1, 132($sp)
        8def0024 0000034c  243		lw	$15, 36($15)
        8fa50080 00000350  244		lw	$5, 128($sp)
        2424fffe 00000354  245		addiu	$4, $1, -2
        01e0f809 00000358  246		jalr	$15
        96c60000 0000035c  247		lhu	$6, 0($22)
        8eb40000 00000360  248		lw	$20, 0($21)
        26b50004 00000364  249		addiu	$21, $21, 4
        5297002e 00000368  250		beql	$20, $23, .L1000182
        8ed8004a 0000036c  251		lw	$24, 74($22)
        08000000 00000370  252		j	.L1000176
        938d0000 00000374  253		lbu	$13, %sdaoff(_BitmapSwapRB)($28)
                           254	.L171:
        0c000000 00000378  255		jal	LCD_Index2Color_888
        02802025 0000037c  256		move	$4, $20
        0c000000 00000380  257		jal	LCD_SetColor
        00402025 00000384  258		move	$4, $2
        0280b825 00000388  259		move	$23, $20
        8ecf004a 0000038c  260		lw	$15, 74($22)
                           261	.L1000175:
        8fa10084 00000390  262		lw	$1, 132($sp)
        8def0024 00000394  263		lw	$15, 36($15)
        2424fffe 00000398  264		addiu	$4, $1, -2
        8fa50080 0000039c  265		lw	$5, 128($sp)
        01e0f809 000003a0  266		jalr	$15
        96c60000 000003a4  267		lhu	$6, 0($22)
        8eb40000 000003a8  268		lw	$20, 0($21)
        26b50004 000003ac  269		addiu	$21, $21, 4
        5297001c 000003b0  270		beql	$20, $23, .L1000182
        8ed8004a 000003b4  271		lw	$24, 74($22)
        938d0000 000003b8  272		lbu	$13, %sdaoff(_BitmapSwapRB)($28)
                           273	.L1000176:
        11a00013 000003bc  274		beq	$13, $0, .L178
        00000000 000003c0  275		nop
        0c000000 000003c4  276		jal	LCD_Index2Color_M888
        02802025 000003c8  277		move	$4, $20
        0c000000 000003cc  278		jal	LCD_SetColor
        00402025 000003d0  279		move	$4, $2
        8ed8004a 000003d4  280		lw	$24, 74($22)
        0280b825 000003d8  281		move	$23, $20

                                   Tue Apr 07 08:56:50 2015           Page 7
                                   Tue Apr 07 08:56:49 2015       gh_2i090.s
        8fa10084 000003dc  282		lw	$1, 132($sp)
        8f180024 000003e0  283		lw	$24, 36($24)
        8fa50080 000003e4  284		lw	$5, 128($sp)
        2424ffff 000003e8  285		addiu	$4, $1, -1
        0300f809 000003ec  286		jalr	$24
        96c60000 000003f0  287		lhu	$6, 0($22)
        8eb40000 000003f4  288		lw	$20, 0($21)
        26b50004 000003f8  289		addiu	$21, $21, 4
        5297002e 000003fc  290		beql	$20, $23, .L1000188
        8ed9004a 00000400  291		lw	$25, 74($22)
        08000000 00000404  292		j	.L1000183
        938e0000 00000408  293		lbu	$14, %sdaoff(_BitmapSwapRB)($28)
                           294	.L178:
        0c000000 0000040c  295		jal	LCD_Index2Color_888
        02802025 00000410  296		move	$4, $20
        0c000000 00000414  297		jal	LCD_SetColor
        00402025 00000418  298		move	$4, $2
        0280b825 0000041c  299		move	$23, $20
        8ed8004a 00000420  300		lw	$24, 74($22)
                           301	.L1000182:
        8fa10084 00000424  302		lw	$1, 132($sp)
        8f180024 00000428  303		lw	$24, 36($24)
        2424ffff 0000042c  304		addiu	$4, $1, -1
        8fa50080 00000430  305		lw	$5, 128($sp)
        0300f809 00000434  306		jalr	$24
        96c60000 00000438  307		lhu	$6, 0($22)
        8eb40000 0000043c  308		lw	$20, 0($21)
        26b50004 00000440  309		addiu	$21, $21, 4
        5297001c 00000444  310		beql	$20, $23, .L1000188
        8ed9004a 00000448  311		lw	$25, 74($22)
        938e0000 0000044c  312		lbu	$14, %sdaoff(_BitmapSwapRB)($28)
                           313	.L1000183:
        11c00013 00000450  314		beq	$14, $0, .L185
        00000000 00000454  315		nop
        0c000000 00000458  316		jal	LCD_Index2Color_M888
        02802025 0000045c  317		move	$4, $20
        0c000000 00000460  318		jal	LCD_SetColor
        00402025 00000464  319		move	$4, $2
        8ed9004a 00000468  320		lw	$25, 74($22)
        8f390024 0000046c  321		lw	$25, 36($25)
        8fa40084 00000470  322		lw	$4, 132($sp)
        8fa50080 00000474  323		lw	$5, 128($sp)
        0320f809 00000478  324		jalr	$25
        96c60000 0000047c  325		lhu	$6, 0($22)
        8fa10084 00000480  326		lw	$1, 132($sp)
        0280b825 00000484  327		move	$23, $20
        27deffff 00000488  328		addiu	$fp, $fp, -1
        242c0004 0000048c  329		addiu	$12, $1, 4
        17c0ff7b 00000490  330		bne	$fp, $0, .L161
        afac0084 00000494  331		sw	$12, 132($sp)
        08000000 00000498  332		j	.L1000160
        8fa1003c 0000049c  333		lw	$1, 60($sp)
                           334	.L185:
        0c000000 000004a0  335		jal	LCD_Index2Color_888
        02802025 000004a4  336		move	$4, $20
        0c000000 000004a8  337		jal	LCD_SetColor

                                   Tue Apr 07 08:56:50 2015           Page 8
                                   Tue Apr 07 08:56:49 2015       gh_2i090.s
        00402025 000004ac  338		move	$4, $2
        0280b825 000004b0  339		move	$23, $20
        8ed9004a 000004b4  340		lw	$25, 74($22)
                           341	.L1000188:
        8f390024 000004b8  342		lw	$25, 36($25)
        8fa40084 000004bc  343		lw	$4, 132($sp)
        8fa50080 000004c0  344		lw	$5, 128($sp)
        0320f809 000004c4  345		jalr	$25
        96c60000 000004c8  346		lhu	$6, 0($22)
        8fa10084 000004cc  347		lw	$1, 132($sp)
        27deffff 000004d0  348		addiu	$fp, $fp, -1
        242c0004 000004d4  349		addiu	$12, $1, 4
        17c0ff69 000004d8  350		bne	$fp, $0, .L161
        afac0084 000004dc  351		sw	$12, 132($sp)
        8fa1003c 000004e0  352		lw	$1, 60($sp)
                           353	.L1000160:
        303e0003 000004e4  354		andi	$fp, $1, 3
        53c00033 000004e8  355		beql	$fp, $0, .L1000036
        8fa10038 000004ec  356		lw	$1, 56($sp)
        8fa10050 000004f0  357		lw	$1, 80($sp)
        242c0002 000004f4  358		addiu	$12, $1, 2
        8fa10040 000004f8  359		lw	$1, 64($sp)
        afac0034 000004fc  360		sw	$12, 52($sp)
        00316021 00000500  361		addu	$12, $1, $17
        8fa1004c 00000504  362		lw	$1, 76($sp)
        afac0070 00000508  363		sw	$12, 112($sp)
        0030b021 0000050c  364		addu	$22, $1, $16
        8eb40000 00000510  365		lw	$20, 0($21)
                           366	.L1000191:
        26b50004 00000514  367		addiu	$21, $21, 4
        5297001c 00000518  368		beql	$20, $23, .L1000197
        8fa10034 0000051c  369		lw	$1, 52($sp)
        938d0000 00000520  370		lbu	$13, %sdaoff(_BitmapSwapRB)($28)
        11a00013 00000524  371		beq	$13, $0, .L194
        00000000 00000528  372		nop
        0c000000 0000052c  373		jal	LCD_Index2Color_M888
        02802025 00000530  374		move	$4, $20
        0c000000 00000534  375		jal	LCD_SetColor
        00402025 00000538  376		move	$4, $2
        8fa10034 0000053c  377		lw	$1, 52($sp)
        0280b825 00000540  378		move	$23, $20
        8c38004a 00000544  379		lw	$24, 74($1)
        02c02025 00000548  380		move	$4, $22
        8fa50070 0000054c  381		lw	$5, 112($sp)
        8f180024 00000550  382		lw	$24, 36($24)
        27deffff 00000554  383		addiu	$fp, $fp, -1
        94260000 00000558  384		lhu	$6, 0($1)
        0300f809 0000055c  385		jalr	$24
        26d60001 00000560  386		addiu	$22, $22, 1
        57c0ffeb 00000564  387		bnel	$fp, $0, .L1000191
        8eb40000 00000568  388		lw	$20, 0($21)
        08000000 0000056c  389		j	.L1000036
        8fa10038 00000570  390		lw	$1, 56($sp)
                           391	.L194:
        0c000000 00000574  392		jal	LCD_Index2Color_888
        02802025 00000578  393		move	$4, $20

                                   Tue Apr 07 08:56:50 2015           Page 9
                                   Tue Apr 07 08:56:49 2015       gh_2i090.s
        0c000000 0000057c  394		jal	LCD_SetColor
        00402025 00000580  395		move	$4, $2
        0280b825 00000584  396		move	$23, $20
        8fa10034 00000588  397		lw	$1, 52($sp)
                           398	.L1000197:
        8c38004a 0000058c  399		lw	$24, 74($1)
        02c02025 00000590  400		move	$4, $22
        8fa50070 00000594  401		lw	$5, 112($sp)
        8f180024 00000598  402		lw	$24, 36($24)
        27deffff 0000059c  403		addiu	$fp, $fp, -1
        94260000 000005a0  404		lhu	$6, 0($1)
        0300f809 000005a4  405		jalr	$24
        26d60001 000005a8  406		addiu	$22, $22, 1
        57c0ffd9 000005ac  407		bnel	$fp, $0, .L1000191
        8eb40000 000005b0  408		lw	$20, 0($21)
        8fa10038 000005b4  409		lw	$1, 56($sp)
                           410	.L1000036:
        8fac0058 000005b8  411		lw	$12, 88($sp)
        002c6021 000005bc  412		addu	$12, $1, $12
        8fa10040 000005c0  413		lw	$1, 64($sp)
        afac0038 000005c4  414		sw	$12, 56($sp)
        242c0001 000005c8  415		addiu	$12, $1, 1
        0193702a 000005cc  416		slt	$14, $12, $19
        15c0ff17 000005d0  417		bne	$14, $0, .L34
        afac0040 000005d4  418		sw	$12, 64($sp)
        08000000 000005d8  419		j	.L45
        00000000 000005dc  420		nop
                           421	.L16:
        8fa1006c 000005e0  422		lw	$1, 108($sp)
        02366821 000005e4  423		addu	$13, $17, $22
        afa00044 000005e8  424		sw	$0, 68($sp)
        00011fc3 000005ec  425		sra	$3, $1, 31
        00031f82 000005f0  426		srl	$3, $3, 30
        00611821 000005f4  427		addu	$3, $3, $1
        00031883 000005f8  428		sra	$3, $3, 2
        00036080 000005fc  429		sll	$12, $3, 2
        afac005c 00000600  430		sw	$12, 92($sp)
        25acffff 00000604  431		addiu	$12, $13, -1
        afac0048 00000608  432		sw	$12, 72($sp)
        afbe0054 0000060c  433		sw	$fp, 84($sp)
        0013682a 00000610  434		slt	$13, $0, $19
        11a0005f 00000614  435		beq	$13, $0, .L45
        afb10078 00000618  436		sw	$17, 120($sp)
        8fb90054 0000061c  437		lw	$25, 84($sp)
                           438	.L1000048:
        8fac0048 00000620  439		lw	$12, 72($sp)
        8739000a 00000624  440		lh	$25, 10($25)
        afac0074 00000628  441		sw	$12, 116($sp)
        0199c02a 0000062c  442		slt	$24, $12, $25
        57000046 00000630  443		bnel	$24, $0, .L1000050
        8fac005c 00000634  444		lw	$12, 92($sp)
        8faf0054 00000638  445		lw	$15, 84($sp)
        8fac0078 0000063c  446		lw	$12, 120($sp)
        85ef000e 00000640  447		lh	$15, 14($15)
        01ec702a 00000644  448		slt	$14, $15, $12
        55c00040 00000648  449		bnel	$14, $0, .L1000050

                                   Tue Apr 07 08:56:50 2015           Page 10
                                   Tue Apr 07 08:56:49 2015       gh_2i090.s
        8fac005c 0000064c  450		lw	$12, 92($sp)
        8fac0038 00000650  451		lw	$12, 56($sp)
        0200f025 00000654  452		move	$fp, $16
        03d56821 00000658  453		addu	$13, $fp, $21
        afac0030 0000065c  454		sw	$12, 48($sp)
        25acffff 00000660  455		addiu	$12, $13, -1
        afac007c 00000664  456		sw	$12, 124($sp)
        0012702a 00000668  457		slt	$14, $0, $18
        11c00036 0000066c  458		beq	$14, $0, .L50
        afa0002c 00000670  459		sw	$0, 44($sp)
        8fa10030 00000674  460		lw	$1, 48($sp)
                           461	.L1000055:
        8c310000 00000678  462		lw	$17, 0($1)
        24210004 0000067c  463		addiu	$1, $1, 4
        afa10030 00000680  464		sw	$1, 48($sp)
        52370021 00000684  465		beql	$17, $23, .L1000057
        03c02025 00000688  466		move	$4, $fp
        93980000 0000068c  467		lbu	$24, %sdaoff(_BitmapSwapRB)($28)
        13000018 00000690  468		beq	$24, $0, .L59
        00000000 00000694  469		nop
        0c000000 00000698  470		jal	LCD_Index2Color_M888
        02202025 0000069c  471		move	$4, $17
        0c000000 000006a0  472		jal	LCD_SetColor
        00402025 000006a4  473		move	$4, $2
        0220b825 000006a8  474		move	$23, $17
        03c02025 000006ac  475		move	$4, $fp
        8fa50078 000006b0  476		lw	$5, 120($sp)
        8fa6007c 000006b4  477		lw	$6, 124($sp)
        0c000000 000006b8  478		jal	LCD_FillRect
        8fa70074 000006bc  479		lw	$7, 116($sp)
        8fa1002c 000006c0  480		lw	$1, 44($sp)
        242c0001 000006c4  481		addiu	$12, $1, 1
        8fa1007c 000006c8  482		lw	$1, 124($sp)
        afac002c 000006cc  483		sw	$12, 44($sp)
        00356021 000006d0  484		addu	$12, $1, $21
        8fa1002c 000006d4  485		lw	$1, 44($sp)
        afac007c 000006d8  486		sw	$12, 124($sp)
        03d5f021 000006dc  487		addu	$fp, $fp, $21
        0032702a 000006e0  488		slt	$14, $1, $18
        55c0ffe4 000006e4  489		bnel	$14, $0, .L1000055
        8fa10030 000006e8  490		lw	$1, 48($sp)
        08000000 000006ec  491		j	.L1000050
        8fac005c 000006f0  492		lw	$12, 92($sp)
                           493	.L59:
        0c000000 000006f4  494		jal	LCD_Index2Color_888
        02202025 000006f8  495		move	$4, $17
        0c000000 000006fc  496		jal	LCD_SetColor
        00402025 00000700  497		move	$4, $2
        0220b825 00000704  498		move	$23, $17
        03c02025 00000708  499		move	$4, $fp
                           500	.L1000057:
        8fa50078 0000070c  501		lw	$5, 120($sp)
        8fa6007c 00000710  502		lw	$6, 124($sp)
        0c000000 00000714  503		jal	LCD_FillRect
        8fa70074 00000718  504		lw	$7, 116($sp)
        8fa1002c 0000071c  505		lw	$1, 44($sp)

                                   Tue Apr 07 08:56:50 2015           Page 11
                                   Tue Apr 07 08:56:49 2015       gh_2i090.s
        242c0001 00000720  506		addiu	$12, $1, 1
        8fa1007c 00000724  507		lw	$1, 124($sp)
        afac002c 00000728  508		sw	$12, 44($sp)
        00356021 0000072c  509		addu	$12, $1, $21
        8fa1002c 00000730  510		lw	$1, 44($sp)
        afac007c 00000734  511		sw	$12, 124($sp)
        03d5f021 00000738  512		addu	$fp, $fp, $21
        0032702a 0000073c  513		slt	$14, $1, $18
        55c0ffcd 00000740  514		bnel	$14, $0, .L1000055
        8fa10030 00000744  515		lw	$1, 48($sp)
                           516	.L50:
        8fac005c 00000748  517		lw	$12, 92($sp)
                           518	.L1000050:
        8fa10038 0000074c  519		lw	$1, 56($sp)
        002c6021 00000750  520		addu	$12, $1, $12
        8fa10044 00000754  521		lw	$1, 68($sp)
        afac0038 00000758  522		sw	$12, 56($sp)
        242c0001 0000075c  523		addiu	$12, $1, 1
        8fa10048 00000760  524		lw	$1, 72($sp)
        afac0044 00000764  525		sw	$12, 68($sp)
        00366021 00000768  526		addu	$12, $1, $22
        8fa10078 0000076c  527		lw	$1, 120($sp)
        afac0048 00000770  528		sw	$12, 72($sp)
        00366021 00000774  529		addu	$12, $1, $22
        afac0078 00000778  530		sw	$12, 120($sp)
        8fac006c 0000077c  531		lw	$12, 108($sp)
        8fa10044 00000780  532		lw	$1, 68($sp)
        028ca021 00000784  533		addu	$20, $20, $12
        0033682a 00000788  534		slt	$13, $1, $19
        55a0ffa4 0000078c  535		bnel	$13, $0, .L1000048
        8fb90054 00000790  536		lw	$25, 84($sp)
                           537	.L45:
        0c000000 00000794  538		jal	GUI_SetColorIndex
        8fa40068 00000798  539		lw	$4, 104($sp)
        8fbe0028 0000079c  540		lw	$fp, 40($sp)
                           541	.L1000002:
                           542	 #	    .ef
        8fb70024 000007a0  543		lw	$23, 36($sp)
        8fbf008c 000007a4  544		lw	$ra, 140($sp)
        8fb00008 000007a8  545		lw	$16, 8($sp)
        8fb1000c 000007ac  546		lw	$17, 12($sp)
        8fb20010 000007b0  547		lw	$18, 16($sp)
        8fb30014 000007b4  548		lw	$19, 20($sp)
        8fb40018 000007b8  549		lw	$20, 24($sp)
        8fb5001c 000007bc  550		lw	$21, 28($sp)
        8fb60020 000007c0  551		lw	$22, 32($sp)
        03e00008 000007c4  552		jr	$ra
        27bd0090 000007c8  553		addiu	$sp, $sp, 144
                           554		.type	_DrawBitmap,@function
                           555		.size	_DrawBitmap,.-_DrawBitmap
                           556		.align	4
                           557	 #pData	56($sp)	local
                           558	 #y	64($sp)	local
                           559	 #OldIndex	104($sp)	local
                           560	 #Mode	100($sp)	local
                           561	 #SwapRB	$24	local

                                   Tue Apr 07 08:56:50 2015           Page 12
                                   Tue Apr 07 08:56:49 2015       gh_2i090.s
                           562	 #Mag	$2	local
                           563	 #BytesPerLine	108($sp)	local
                           564	 #UseDrawBitmap	96($sp)	local
                           565	 #PrevColor	$23	local
                           566	 #x1	$6	local
                           567	 #y1	$5	local
                           568	 #Diff	$3	local
                           569	 #x	76($sp)	local
                           570	 #p	$21	local
                           571	 #Color	$20	local
                           572	 #x	$fp	local
                           573	 #y	120($sp)	local
                           574	 #yi	68($sp)	local
                           575	 #yMax	116($sp)	local
                           576	 #xi	44($sp)	local
                           577	 #p	48($sp)	local
                           578	 #Color	$17	local
                           579	
                           580	 #x0	$16	param
                           581	 #y0	$17	param
                           582	 #xsize	$18	param
                           583	 #ysize	$19	param
                           584	 #pPixel	$20	param
                           585	 #pLogPal	none	param
                           586	 #xMag	$21	param
                           587	 #yMag	$22	param
                           588	
                           589		.data
                           590	.L362:
                           591		.lsbss	_BitmapSwapRB,1,1
                           592	
                           593		.text
                           594		.align	4
                           595		.align	4
                           596	_DrawBitmap_888:
                           597	 #	    .bf
        08000000 000007cc  598		j	_DrawBitmap
        a3800000 000007d0  599		sb	$0, %sdaoff(_BitmapSwapRB)($28)
                           600	 #	    .ef
                           601		.type	_DrawBitmap_888,@function
                           602		.size	_DrawBitmap_888,.-_DrawBitmap_888
                           603		.align	4
                           604	
                           605	 #x0	none	param
                           606	 #y0	none	param
                           607	 #xsize	none	param
                           608	 #ysize	none	param
                           609	 #pPixel	none	param
                           610	 #pLogPal	none	param
                           611	 #xMag	none	param
                           612	 #yMag	none	param
                           613	
                           614		.data
                           615	.L519:
                           616		.text
                           617		.align	4

                                   Tue Apr 07 08:56:50 2015           Page 13
                                   Tue Apr 07 08:56:49 2015       gh_2i090.s
                           618		.align	4
                           619	_DrawBitmap_M888:
        34190001 000007d4  620		ori	$25, $0, 1
                           621	 #	    .bf
        08000000 000007d8  622		j	_DrawBitmap
        a3990000 000007dc  623		sb	$25, %sdaoff(_BitmapSwapRB)($28)
                           624	 #	    .ef
                           625		.type	_DrawBitmap_M888,@function
                           626		.size	_DrawBitmap_M888,.-_DrawBitmap_M888
                           627		.align	4
                           628	
                           629	 #x0	none	param
                           630	 #y0	none	param
                           631	 #xsize	none	param
                           632	 #ysize	none	param
                           633	 #pPixel	none	param
                           634	 #pLogPal	none	param
                           635	 #xMag	none	param
                           636	 #yMag	none	param
                           637	
                           638		.data
                           639	.L537:
                           640		.text
                           641		.align	4
                           642	 #GUI_Context	GUI_Context	import
                           643	 #_BitmapSwapRB	%sdaoff(_BitmapSwapRB)	static
                           644	
                           645		.section ".rodata","a"
                           646	.L544:
                           647		.globl	GUI_BitmapMethods888
        00000000 00000000  648	GUI_BitmapMethods888:	.word	_DrawBitmap_888
        00000000 00000004  649		.word	LCD_Index2Color_888
                           650		.type	GUI_BitmapMethods888,@object
                           651		.size	GUI_BitmapMethods888,8
                           652	.L545:
                           653		.globl	GUI_BitmapMethodsM888
        00000000 00000008  654	GUI_BitmapMethodsM888:	.word	_DrawBitmap_M888
        00000000 0000000c  655		.word	LCD_Index2Color_M888
                           656		.type	GUI_BitmapMethodsM888,@object
                           657		.size	GUI_BitmapMethodsM888,8
                           658		.data
                           659		.section ".rodata","a"
                           660		.align	4
                           661		.text
