
                                   Tue Apr 07 08:57:32 2015           Page 1
                                   Tue Apr 07 08:57:32 2015       gh_2i09u.s
Command Line:   C:\GHS\V35\mips35\asmips.exe -noundefined -elf -b0
                -IC:\local\Workspace\DC_V04.01.00_int\cu3x1Platform_SRC\emWinColour
                -IC:\local\Workspace\DC_V04.01.00_int\cu3x1Platform_SRC\platform\include
                -IC:\local\Workspace\DC_V04.01.00_int\cu3x1Platform_SRC\platform\common
                -IC:\local\Workspace\DC_V04.01.00_int\cu3x1Platform_SRC\platform\hardware
                -IC:\local\Workspace\DC_V04.01.00_int\cu3x1Platform_SRC\platform\hardware\D3018X
                -IC:\local\Workspace\DC_V04.01.00_int\cu3x1Platform_SRC\embos\inc
                -IC:\local\Workspace\DC_V04.01.00_int\cu3x1Platform_SRC\emWinColour\config
                -IC:\local\Workspace\DC_V04.01.00_int\cu3x1Platform_SRC\emWinColour\gui\ConvertMono
                -IC:\local\Workspace\DC_V04.01.00_int\cu3x1Platform_SRC\emWinColour\gui\Core
                -IC:\local\Workspace\DC_V04.01.00_int\cu3x1Platform_SRC\emWinColour\gui\Font
                -IC:\local\Workspace\DC_V04.01.00_int\cu3x1Platform_SRC\emWinColour\gui\LCDDriver
                -IC:\local\Workspace\DC_V04.01.00_int\cu3x1Platform_SRC\emWinColour\gui\MemDev
                -IC:\local\Workspace\DC_V04.01.00_int\cu3x1Platform_SRC\emWinColour\gui\VNC
                -IC:\local\Workspace\DC_V04.01.00_int\cu3x1Platform_SRC\emWinColour\gui\Widget
                -IC:\local\Workspace\DC_V04.01.00_int\cu3x1Platform_SRC\emWinColour\gui\wm
                -IC:\local\Workspace\DC_V04.01.00_int\cu3x1App_SRC\Control\source
                -IC:\local\Workspace\DC_V04.01.00_int\cu3x1App_SRC\Control\source\include
                -IC:\local\Workspace\DC_V04.01.00_int\cu3x1App_SRC\Control\source\util
                -IC:\local\Workspace\DC_V04.01.00_int\cu3x1App_SRC\Control\source\datapoint
                -IC:\local\Workspace\DC_V04.01.00_int\cu3x1App_SRC\Control\source\factory
                -IC:\local\Workspace\DC_V04.01.00_int\cu3x1Platform_SRC\embos
                -IC:\local\Workspace\DC_V04.01.00_int\cu3x1Platform_SRC\emWinColour\gui\core
                -IC:\local\Workspace\DC_V04.01.00_int\cu3x1App_SRC\Control\source\rtip\webpage
                -IC:\local\Workspace\DC_V04.01.00_int\cu3x1App_SRC\Control\source\rtip\config
                -IC:\local\Workspace\DC_V04.01.00_int\cu3x1App_SRC\Control\source\rtip\xnet
                -IC:\local\Workspace\DC_V04.01.00_int\cu3x1App_SRC\Control\source\stub
                -IC:\local\Workspace\DC_V04.01.00_int\cu3x1App_SRC\Control\source\test
                -IC:\local\Workspace\DC_V04.01.00_int\cu3x1App_SRC\Control\source\GENIpro
                -IC:\local\Workspace\DC_V04.01.00_int\cu3x1App_SRC\Control\source\GENIpro\GENI_sys
                -IC:\local\Workspace\DC_V04.01.00_int\cu3x1App_SRC\Control\source\GENIpro\GENIusb\emUSB\USB\Driver
                -IC:\local\Workspace\DC_V04.01.00_int\cu3x1App_SRC\Control\source\application\intercom
                -IC:\local\Workspace\DC_V04.01.00_int\cu3x1App_SRC\Control\source\application\controller
                -IC:\local\Workspace\DC_V04.01.00_int\cu3x1App_SRC\Control\source\application\driver
                -IC:\local\Workspace\DC_V04.01.00_int\cu3x1App_SRC\Control\source\application\webif
                -IC:\local\Workspace\DC_V04.01.00_int\cu3x1App_SRC\Control\source\application\relay
                -IC:\local\Workspace\DC_V04.01.00_int\cu3x1App_SRC\Control\source\application\GENIApp
                -IC:\local\Workspace\DC_V04.01.00_int\cu3x1App_SRC\Control\source\application\alarm
                -IC:\local\Workspace\DC_V04.01.00_int\cu3x1App_SRC\Control\source\application\config
                -IC:\local\Workspace\DC_V04.01.00_int\cu3x1App_SRC\Control\source\application\AnaInConfigCtrl
                -IC:\local\Workspace\DC_V04.01.00_int\cu3x1App_SRC\Control\source\application\Sms
                -IC:\local\Workspace\DC_V04.01.00_int\cu3x1App_SRC\Control\source\application\display
                -IC:\local\Workspace\DC_V04.01.00_int\cu3x1App_SRC\Control\source\application\display\display_task
                -IC:\local\Workspace\DC_V04.01.00_int\cu3x1App_SRC\Control\source\application\display\gui_utility
                -IC:\local\Workspace\DC_V04.01.00_int\cu3x1App_SRC\Control\source\application\display\mpcunit
                -IC:\local\Workspace\DC_V04.01.00_int\cu3x1App_SRC\Control\source\GeniPro
                -IC:\local\Workspace\DC_V04.01.00_int\cu3x1App_SRC\Control\source\GeniPro\GENI_sys
                -IC:\local\Workspace\DC_V04.01.00_int\cu3x1App_SRC\Control\source\GeniPro\GENIbus
                -IC:\local\Workspace\DC_V04.01.00_int\cu3x1App_SRC\Control\source\GeniPro\GENIcom
                -IC:\local\Workspace\DC_V04.01.00_int\cu3x1App_SRC\Control\source\GeniPro\GENIrs232
                -IC:\local\Workspace\DC_V04.01.00_int\cu3x1App_SRC\Control\source\GeniPro\Virtual
                -IC:\local\Workspace\DC_V04.01.00_int\cu3x1Platform_SRC\Platform\common
                -IC:\local\Workspace\DC_V04.01.00_int\cu3x1Platform_SRC\Platform\hardware
                -IC:\local\Workspace\DC_V04.01.00_int\cu3x1Platform_SRC\Platform\hardware\D3018X
                -IC:\local\Workspace\DC_V04.01.00_int\cu3x1App_SRC\Control\source\application\display\imagesTFT
                -IC:\GHS\V35\mips35\mipsl_sf -r4121 -source=LCDRLE16.c -o
                objs\gh_2i09u.o -list=objs\LCDRLE16.lst
                C:\Users\55602\AppData\Local\Temp\gh_2i09u.s
Source File:    C:\Users\55602\AppData\Local\Temp\gh_2i09u.s
Directory:      C:\local\Workspace\DC_V04.01.00_int\cu3x1App_SRC\Control\source
Host OS:        GHS_WIN32
Version:        AS-MIPS 3.5#11 
Release:        MULTI 2000, MIPS v3.5
Revision Date:  Wed Feb 27 12:19:03 2002
Release Date:   Sat Mar 02 02:57:59 2002
                             1	 #Source File:   C:\local\Workspace\DC_V04.01.00_int\cu3x1Platform_SRC\emWinColour\GUI\Core\LCDRLE16.c

                                   Tue Apr 07 08:57:32 2015           Page 2
                                   Tue Apr 07 08:57:32 2015       gh_2i09u.s
                             2	 #Directory:     
                             3	 #		C:\local\Workspace\DC_V04.01.00_int\cu3x1App_SRC\Control\source
                             4	 #Compile Date:  Tue Apr 07 08:57:32 2015
                             5	 #Host OS:       Win32
                             6	 #Version:       C-MIPS 3.5#11 RELEASE VERSION
                             7	 #Release:       MULTI 2000, MIPS v3.5
                             8	 #Revision Date: Fri Mar 01 11:32:40 2002
                             9	 #Release Date:  Sat Mar 02 02:58:48 2002
                            10		.set	noat
                            11		.set	noreorder
                            12		.set	nomacro
                            13		.text
                            14		.align	4
                            15	_GetPixelIndex:
        27bdfff8 00000000   16		addiu	$sp, $sp, -8
        afbf0004 00000004   17		sw	$ra, 4($sp)
                            18	 #	    .bf
        8c830000 00000008   19		lw	$3, 0($4)
        8f8e0000 0000000c   20		lw	$14, %sdaoff(_DisplayMode)($28)
        340d0235 00000010   21		ori	$13, $0, 565
        90620000 00000014   22		lbu	$2, 0($3)
        90780001 00000018   23		lbu	$24, 1($3)
        24630002 0000001c   24		addiu	$3, $3, 2
        ac830000 00000020   25		sw	$3, 0($4)
        0018ca00 00000024   26		sll	$25, $24, 8
        00591025 00000028   27		or	$2, $2, $25
        15cd0008 0000002c   28		bne	$14, $13, .L15
        3042ffff 00000030   29		andi	$2, $2, 65535
        93980000 00000034   30		lbu	$24, %sdaoff(_BitmapSwapRB)($28)
        93990000 00000038   31		lbu	$25, %sdaoff(_DisplaySwapRB)($28)
        57380005 0000003c   32		bnel	$25, $24, .L1000015
        938e0000 00000040   33		lbu	$14, %sdaoff(_BitmapSwapRB)($28)
        8fbf0004 00000044   34		lw	$ra, 4($sp)
        03e00008 00000048   35		jr	$ra
        27bd0008 0000004c   36		addiu	$sp, $sp, 8
                            37	.L15:
        938e0000 00000050   38		lbu	$14, %sdaoff(_BitmapSwapRB)($28)
                            39	.L1000015:
        11c00009 00000054   40		beq	$14, $0, .L19
        00000000 00000058   41		nop
        0c000000 0000005c   42		jal	LCD_Index2Color_M565
        00402025 00000060   43		move	$4, $2
        0c000000 00000064   44		jal	LCD_Color2Index
        00402025 00000068   45		move	$4, $2
        8fbf0004 0000006c   46		lw	$ra, 4($sp)
        27bd0008 00000070   47		addiu	$sp, $sp, 8
        03e00008 00000074   48		jr	$ra
        3042ffff 00000078   49		andi	$2, $2, 65535
                            50	.L19:
        0c000000 0000007c   51		jal	LCD_Index2Color_565
        00402025 00000080   52		move	$4, $2
        0c000000 00000084   53		jal	LCD_Color2Index
        00402025 00000088   54		move	$4, $2
                            55	 #	    .ef
        8fbf0004 0000008c   56		lw	$ra, 4($sp)
        27bd0008 00000090   57		addiu	$sp, $sp, 8

                                   Tue Apr 07 08:57:32 2015           Page 3
                                   Tue Apr 07 08:57:32 2015       gh_2i09u.s
        03e00008 00000094   58		jr	$ra
        3042ffff 00000098   59		andi	$2, $2, 65535
                            60		.type	_GetPixelIndex,@function
                            61		.size	_GetPixelIndex,.-_GetPixelIndex
                            62		.align	4
                            63	 #Data	$2	local
                            64	 #pData	$3	local
                            65	 #Value	$2	local
                            66	
                            67	 #ppPixel	$4	param
                            68	
                            69		.data
                            70	.L48:
                            71		.bss	_Cache,16,4
                            72	
                            73		.lsbss	_BitmapSwapRB,1,1
                            74	
                            75		.lsbss	_DisplaySwapRB,1,1
                            76	
                            77		.lsbss	_DisplayMode,4,4
                            78	
                            79		.text
                            80		.align	4
                            81		.align	4
                            82	_DrawBitmap_RLE:
        27bdff90 0000009c   83		addiu	$sp, $sp, -112
                            84	 #	    .bf
        afb00000 000000a0   85		sw	$16, 0($sp)
        00808025 000000a4   86		move	$16, $4
        afb10004 000000a8   87		sw	$17, 4($sp)
        00a08825 000000ac   88		move	$17, $5
        afb20008 000000b0   89		sw	$18, 8($sp)
        00c09025 000000b4   90		move	$18, $6
        afb3000c 000000b8   91		sw	$19, 12($sp)
        00e09825 000000bc   92		move	$19, $7
        afbf006c 000000c0   93		sw	$ra, 108($sp)
        afbe0020 000000c4   94		sw	$fp, 32($sp)
        afb60018 000000c8   95		sw	$22, 24($sp)
        afb50014 000000cc   96		sw	$21, 20($sp)
        afb40010 000000d0   97		sw	$20, 16($sp)
        afb7001c 000000d4   98		sw	$23, 28($sp)
        3c170000 000000d8   99		lui	$23, %hi(GUI_Context)
        26f70000 000000dc  100		addiu	$23, $23, %lo(GUI_Context)
        92f80010 000000e0  101		lbu	$24, 16($23)
        0120a025 000000e4  102		move	$20, $9
        0140a825 000000e8  103		move	$21, $10
        33190002 000000ec  104		andi	$25, $24, 2
        2f2c0001 000000f0  105		sltiu	$12, $25, 1
        a3ac0027 000000f4  106		sb	$12, 39($sp)
        02b47825 000000f8  107		or	$15, $21, $20
        39ef0001 000000fc  108		xori	$15, $15, 1
        000f602b 00000100  109		sltu	$12, $0, $15
        a3ac0026 00000104  110		sb	$12, 38($sp)
        96ec0002 00000108  111		lhu	$12, 2($23)
        afa80028 0000010c  112		sw	$8, 40($sp)
        afa80054 00000110  113		sw	$8, 84($sp)

                                   Tue Apr 07 08:57:32 2015           Page 4
                                   Tue Apr 07 08:57:32 2015       gh_2i09u.s
        a7ac005a 00000114  114		sh	$12, 90($sp)
        0c000000 00000118  115		jal	LCD_GetFixedPaletteEx
        92e40011 0000011c  116		lbu	$4, 17($23)
        af820000 00000120  117		sw	$2, %sdaoff(_DisplayMode)($28)
        0c000000 00000124  118		jal	LCD_GetSwapRBEx
        92e40011 00000128  119		lbu	$4, 17($23)
        340d0001 0000012c  120		ori	$13, $0, 1
        16ad0007 00000130  121		bne	$21, $13, .L66
        a3820000 00000134  122		sb	$2, %sdaoff(_DisplaySwapRB)($28)
        86f8000e 00000138  123		lh	$24, 14($23)
        0311c823 0000013c  124		subu	$25, $24, $17
        27230001 00000140  125		addiu	$3, $25, 1
        0073782a 00000144  126		slt	$15, $3, $19
        55e00001 00000148  127		bnel	$15, $0, .L66
        00609825 0000014c  128		move	$19, $3
                           129	.L66:
        83a10026 00000150  130		lb	$1, 38($sp)
        34160000 00000154  131		ori	$22, $0, 0
        341e0000 00000158  132		ori	$fp, $0, 0
        54200013 0000015c  133		bnel	$1, $0, .L1000070
        8fac0054 00000160  134		lw	$12, 84($sp)
        86ed000a 00000164  135		lh	$13, 10($23)
        8fb80028 00000168  136		lw	$24, 40($sp)
        3c030000 0000016c  137		lui	$3, %hi(_Cache)
        24630000 00000170  138		addiu	$3, $3, %lo(_Cache)
        8c79000c 00000174  139		lw	$25, 12($3)
        01b17823 00000178  140		subu	$15, $13, $17
        5738000b 0000017c  141		bnel	$25, $24, .L1000070
        8fac0054 00000180  142		lw	$12, 84($sp)
        8c620004 00000184  143		lw	$2, 4($3)
        004f702a 00000188  144		slt	$14, $2, $15
        51c00007 0000018c  145		beql	$14, $0, .L1000070
        8fac0054 00000190  146		lw	$12, 84($sp)
        0040f025 00000194  147		move	$fp, $2
        8c6d0008 00000198  148		lw	$13, 8($3)
        3c010000 0000019c  149		lui	$1, %hi(_Cache)
        8c360000 000001a0  150		lw	$22, %lo(_Cache)($1)
        afad0028 000001a4  151		sw	$13, 40($sp)
        8fac0054 000001a8  152		lw	$12, 84($sp)
                           153	.L1000070:
        3c010000 000001ac  154		lui	$1, %hi(_Cache+12)
        03d3782a 000001b0  155		slt	$15, $fp, $19
        ac2c0000 000001b4  156		sw	$12, %lo(_Cache+12)($1)
        3c010000 000001b8  157		lui	$1, %hi(_Cache+8)
        ac2c0000 000001bc  158		sw	$12, %lo(_Cache+8)($1)
        3c010000 000001c0  159		lui	$1, %hi(_Cache+4)
        ac200000 000001c4  160		sw	$0, %lo(_Cache+4)($1)
        3c010000 000001c8  161		lui	$1, %hi(_Cache)
        11e000af 000001cc  162		beq	$15, $0, .L75
        ac200000 000001d0  163		sw	$0, %lo(_Cache)($1)
        8fad0028 000001d4  164		lw	$13, 40($sp)
                           165	.L1000077:
        25ae0001 000001d8  166		addiu	$14, $13, 1
        afae0028 000001dc  167		sw	$14, 40($sp)
        91ac0000 000001e0  168		lbu	$12, 0($13)
        11800050 000001e4  169		beq	$12, $0, .L79

                                   Tue Apr 07 08:57:32 2015           Page 5
                                   Tue Apr 07 08:57:32 2015       gh_2i09u.s
        a3ac0025 000001e8  170		sb	$12, 37($sp)
        0c000000 000001ec  171		jal	_GetPixelIndex
        27a40028 000001f0  172		addiu	$4, $sp, 40
        02be0018 000001f4  173		mult	$21, $fp
        8faf0028 000001f8  174		lw	$15, 40($sp)
        00001812 000001fc  175		mflo	$3
        3c010000 00000200  176		lui	$1, %hi(_Cache+8)
        25effffd 00000204  177		addiu	$15, $15, -3
        ac2f0000 00000208  178		sw	$15, %lo(_Cache+8)($1)
        3c010000 0000020c  179		lui	$1, %hi(_Cache)
        ac360000 00000210  180		sw	$22, %lo(_Cache)($1)
        3c010000 00000214  181		lui	$1, %hi(_Cache+4)
        ac3e0000 00000218  182		sw	$fp, %lo(_Cache+4)($1)
        3c010000 0000021c  183		lui	$1, %hi(GUI_Context+2)
        a4220000 00000220  184		sh	$2, %lo(GUI_Context+2)($1)
        83a10027 00000224  185		lb	$1, 39($sp)
        00716021 00000228  186		addu	$12, $3, $17
        afac002c 0000022c  187		sw	$12, 44($sp)
        2c2c0001 00000230  188		sltiu	$12, $1, 1
        afac003c 00000234  189		sw	$12, 60($sp)
        83a10026 00000238  190		lb	$1, 38($sp)
        2c4c0001 0000023c  191		sltiu	$12, $2, 1
        afac0040 00000240  192		sw	$12, 64($sp)
        2c2c0001 00000244  193		sltiu	$12, $1, 1
        afac0044 00000248  194		sw	$12, 68($sp)
        93a10025 0000024c  195		lbu	$1, 37($sp)
        03d16021 00000250  196		addu	$12, $fp, $17
        afac0060 00000254  197		sw	$12, 96($sp)
        5020008a 00000258  198		beql	$1, $0, .L1000078
        03d3782a 0000025c  199		slt	$15, $fp, $19
        93ac0025 00000260  200		lbu	$12, 37($sp)
                           201	.L1000083:
        02ccb821 00000264  202		addu	$23, $22, $12
        02f2702a 00000268  203		slt	$14, $23, $18
        51c00001 0000026c  204		beql	$14, $0, .L84
        0240b825 00000270  205		move	$23, $18
                           206	.L84:
        93a10025 00000274  207		lbu	$1, 37($sp)
        02f61823 00000278  208		subu	$3, $23, $22
        00236023 0000027c  209		subu	$12, $1, $3
        8fa10040 00000280  210		lw	$1, 64($sp)
        a3ac0025 00000284  211		sb	$12, 37($sp)
        50200005 00000288  212		beql	$1, $0, .L1000087
        8fa10044 0000028c  213		lw	$1, 68($sp)
        8fa1003c 00000290  214		lw	$1, 60($sp)
        14200015 00000294  215		bne	$1, $0, .L86
        00000000 00000298  216		nop
        8fa10044 0000029c  217		lw	$1, 68($sp)
                           218	.L1000087:
        5420000e 000002a0  219		bnel	$1, $0, .L1000089
        02162021 000002a4  220		addu	$4, $16, $22
        02000013 000002a8  221		mtlo	$16
        02962028 000002ac  222		macc	$4, $20, $22
        8fa5002c 000002b0  223		lw	$5, 44($sp)
        02836828 000002b4  224		macc	$13, $20, $3
        00b5c821 000002b8  225		addu	$25, $5, $21

                                   Tue Apr 07 08:57:32 2015           Page 6
                                   Tue Apr 07 08:57:32 2015       gh_2i09u.s
        2727ffff 000002bc  226		addiu	$7, $25, -1
        02e0b025 000002c0  227		move	$22, $23
        0c000000 000002c4  228		jal	LCD_FillRect
        25a6ffff 000002c8  229		addiu	$6, $13, -1
        56f20012 000002cc  230		bnel	$23, $18, .L1000081
        93a10025 000002d0  231		lbu	$1, 37($sp)
        08000000 000002d4  232		j	.L1000093
        8fa1002c 000002d8  233		lw	$1, 44($sp)
                           234	.L1000089:
        8fa50060 000002dc  235		lw	$5, 96($sp)
        02f0c021 000002e0  236		addu	$24, $23, $16
        0c000000 000002e4  237		jal	LCD_DrawHLine
        2706ffff 000002e8  238		addiu	$6, $24, -1
                           239	.L86:
        16f20009 000002ec  240		bne	$23, $18, .L81
        02e0b025 000002f0  241		move	$22, $23
        8fa1002c 000002f4  242		lw	$1, 44($sp)
                           243	.L1000093:
        27de0001 000002f8  244		addiu	$fp, $fp, 1
        00356021 000002fc  245		addu	$12, $1, $21
        8fa10060 00000300  246		lw	$1, 96($sp)
        afac002c 00000304  247		sw	$12, 44($sp)
        34160000 00000308  248		ori	$22, $0, 0
        242c0001 0000030c  249		addiu	$12, $1, 1
        afac0060 00000310  250		sw	$12, 96($sp)
                           251	.L81:
        93a10025 00000314  252		lbu	$1, 37($sp)
                           253	.L1000081:
        5420ffd2 00000318  254		bnel	$1, $0, .L1000083
        93ac0025 0000031c  255		lbu	$12, 37($sp)
        08000000 00000320  256		j	.L1000078
        03d3782a 00000324  257		slt	$15, $fp, $19
                           258	.L79:
        25cd0001 00000328  259		addiu	$13, $14, 1
        02be0018 0000032c  260		mult	$21, $fp
        afad0028 00000330  261		sw	$13, 40($sp)
        00001812 00000334  262		mflo	$3
        83a10027 00000338  263		lb	$1, 39($sp)
        00716021 0000033c  264		addu	$12, $3, $17
        afac0030 00000340  265		sw	$12, 48($sp)
        3c0c0000 00000344  266		lui	$12, %hi(GUI_Context)
        258c0000 00000348  267		addiu	$12, $12, %lo(GUI_Context)
        afac0034 0000034c  268		sw	$12, 52($sp)
        27ac0028 00000350  269		addiu	$12, $sp, 40
        afac005c 00000354  270		sw	$12, 92($sp)
        03d16021 00000358  271		addu	$12, $fp, $17
        afac0064 0000035c  272		sw	$12, 100($sp)
        2c2c0001 00000360  273		sltiu	$12, $1, 1
        83a10026 00000364  274		lb	$1, 38($sp)
        91d70000 00000368  275		lbu	$23, 0($14)
        afac0048 0000036c  276		sw	$12, 72($sp)
        2c2c0001 00000370  277		sltiu	$12, $1, 1
        afac004c 00000374  278		sw	$12, 76($sp)
                           279	.L97:
        0c000000 00000378  280		jal	_GetPixelIndex
        8fa4005c 0000037c  281		lw	$4, 92($sp)

                                   Tue Apr 07 08:57:32 2015           Page 7
                                   Tue Apr 07 08:57:32 2015       gh_2i09u.s
        00401825 00000380  282		move	$3, $2
        54600005 00000384  283		bnel	$3, $0, .L1000099
        8fa1004c 00000388  284		lw	$1, 76($sp)
        8fa10048 0000038c  285		lw	$1, 72($sp)
        5420002b 00000390  286		bnel	$1, $0, .L1000098
        26d60001 00000394  287		addiu	$22, $22, 1
        8fa1004c 00000398  288		lw	$1, 76($sp)
                           289	.L1000099:
        02162021 0000039c  290		addu	$4, $16, $22
        54200011 000003a0  291		bnel	$1, $0, .L1000101
        8faf0034 000003a4  292		lw	$15, 52($sp)
        0c000000 000003a8  293		jal	LCD_SetColorIndex
        00602025 000003ac  294		move	$4, $3
        02000013 000003b0  295		mtlo	$16
        02962028 000003b4  296		macc	$4, $20, $22
        8fa50030 000003b8  297		lw	$5, 48($sp)
        00b5c021 000003bc  298		addu	$24, $5, $21
        2707ffff 000003c0  299		addiu	$7, $24, -1
        0094c821 000003c4  300		addu	$25, $4, $20
        0c000000 000003c8  301		jal	LCD_FillRect
        2726ffff 000003cc  302		addiu	$6, $25, -1
        26d60001 000003d0  303		addiu	$22, $22, 1
        02d2682a 000003d4  304		slt	$13, $22, $18
        55a00027 000003d8  305		bnel	$13, $0, .L1000096
        26f7ffff 000003dc  306		addiu	$23, $23, -1
        08000000 000003e0  307		j	.L1000111
        8fa10030 000003e4  308		lw	$1, 48($sp)
                           309	.L1000101:
        8fa10064 000003e8  310		lw	$1, 100($sp)
        85ef000a 000003ec  311		lh	$15, 10($15)
        002f702a 000003f0  312		slt	$14, $1, $15
        55c00012 000003f4  313		bnel	$14, $0, .L1000098
        26d60001 000003f8  314		addiu	$22, $22, 1
        8fad0034 000003fc  315		lw	$13, 52($sp)
        85ad0008 00000400  316		lh	$13, 8($13)
        008dc82a 00000404  317		slt	$25, $4, $13
        5720000d 00000408  318		bnel	$25, $0, .L1000098
        26d60001 0000040c  319		addiu	$22, $22, 1
        8fb80034 00000410  320		lw	$24, 52($sp)
        8718000c 00000414  321		lh	$24, 12($24)
        0304782a 00000418  322		slt	$15, $24, $4
        55e00008 0000041c  323		bnel	$15, $0, .L1000098
        26d60001 00000420  324		addiu	$22, $22, 1
        8fae0034 00000424  325		lw	$14, 52($sp)
        8dce004c 00000428  326		lw	$14, 76($14)
        8dce0024 0000042c  327		lw	$14, 36($14)
        00202825 00000430  328		move	$5, $1
        01c0f809 00000434  329		jalr	$14
        00603025 00000438  330		move	$6, $3
        26d60001 0000043c  331		addiu	$22, $22, 1
                           332	.L1000098:
        02d2682a 00000440  333		slt	$13, $22, $18
        55a0000c 00000444  334		bnel	$13, $0, .L1000096
        26f7ffff 00000448  335		addiu	$23, $23, -1
        8fa10030 0000044c  336		lw	$1, 48($sp)
                           337	.L1000111:

                                   Tue Apr 07 08:57:32 2015           Page 8
                                   Tue Apr 07 08:57:32 2015       gh_2i09u.s
        34160000 00000450  338		ori	$22, $0, 0
        27de0001 00000454  339		addiu	$fp, $fp, 1
        00356021 00000458  340		addu	$12, $1, $21
        8fa10064 0000045c  341		lw	$1, 100($sp)
        afac0030 00000460  342		sw	$12, 48($sp)
        03d3c82a 00000464  343		slt	$25, $fp, $19
        242c0001 00000468  344		addiu	$12, $1, 1
        13200004 0000046c  345		beq	$25, $0, .L78
        afac0064 00000470  346		sw	$12, 100($sp)
        26f7ffff 00000474  347		addiu	$23, $23, -1
                           348	.L1000096:
        32f700ff 00000478  349		andi	$23, $23, 255
        16e0ffbe 0000047c  350		bne	$23, $0, .L97
                           351	.L78:
        03d3782a 00000480  352		slt	$15, $fp, $19
                           353	.L1000078:
        55e0ff54 00000484  354		bnel	$15, $0, .L1000077
        8fad0028 00000488  355		lw	$13, 40($sp)
                           356	.L75:
        8fbe0020 0000048c  357		lw	$fp, 32($sp)
                           358	 #	    .ef
        8fb7001c 00000490  359		lw	$23, 28($sp)
        97ac005a 00000494  360		lhu	$12, 90($sp)
        8fbf006c 00000498  361		lw	$ra, 108($sp)
        8fb00000 0000049c  362		lw	$16, 0($sp)
        8fb10004 000004a0  363		lw	$17, 4($sp)
        8fb20008 000004a4  364		lw	$18, 8($sp)
        8fb3000c 000004a8  365		lw	$19, 12($sp)
        8fb40010 000004ac  366		lw	$20, 16($sp)
        8fb50014 000004b0  367		lw	$21, 20($sp)
        8fb60018 000004b4  368		lw	$22, 24($sp)
        27bd0070 000004b8  369		addiu	$sp, $sp, 112
        3c010000 000004bc  370		lui	$1, %hi(GUI_Context+2)
        03e00008 000004c0  371		jr	$ra
        a42c0000 000004c4  372		sh	$12, %lo(GUI_Context+2)($1)
                           373		.type	_DrawBitmap_RLE,@function
                           374		.size	_DrawBitmap_RLE,.-_DrawBitmap_RLE
                           375		.align	4
                           376	 #OldColorIndex	90($sp)	local
                           377	 #PixelIndex	$3	local
                           378	 #xi	$22	local
                           379	 #y	$fp	local
                           380	 #pPixelOrg	84($sp)	local
                           381	 #NoTrans	39($sp)	local
                           382	 #IsMagnified	38($sp)	local
                           383	 #yDiff	$15	local
                           384	 #NumCompressedPixels	37($sp)	local
                           385	 #xi1	$23	local
                           386	 #NumPixels	$23	local
                           387	 #x	$4	local
                           388	
                           389	 #x0	$16	param
                           390	 #y0	$17	param
                           391	 #xsize	$18	param
                           392	 #ysize	$19	param
                           393	 #pPixel	40($sp)	param

                                   Tue Apr 07 08:57:32 2015           Page 9
                                   Tue Apr 07 08:57:32 2015       gh_2i09u.s
                           394	 #xMag	$20	param
                           395	 #yMag	$21	param
                           396	
                           397		.data
                           398	.L266:
                           399		.text
                           400		.align	4
                           401		.align	4
                           402	_DrawBitmap_RLE16:
        01404825 000004c8  403		move	$9, $10
        a3800000 000004cc  404		sb	$0, %sdaoff(_BitmapSwapRB)($28)
                           405	 #	    .bf
        08000000 000004d0  406		j	_DrawBitmap_RLE
        01605025 000004d4  407		move	$10, $11
                           408	 #	    .ef
                           409		.type	_DrawBitmap_RLE16,@function
                           410		.size	_DrawBitmap_RLE16,.-_DrawBitmap_RLE16
                           411		.align	4
                           412	
                           413	 #x0	none	param
                           414	 #y0	none	param
                           415	 #xsize	none	param
                           416	 #ysize	none	param
                           417	 #pPixel	none	param
                           418	 #pLogPal	none	param
                           419	 #xMag	$3	param
                           420	 #yMag	none	param
                           421	
                           422		.data
                           423	.L363:
                           424		.text
                           425		.align	4
                           426		.align	4
                           427	_DrawBitmap_RLEM16:
        34190001 000004d8  428		ori	$25, $0, 1
                           429	 #	    .bf
        a3990000 000004dc  430		sb	$25, %sdaoff(_BitmapSwapRB)($28)
        01404825 000004e0  431		move	$9, $10
        08000000 000004e4  432		j	_DrawBitmap_RLE
        01605025 000004e8  433		move	$10, $11
                           434	 #	    .ef
                           435		.type	_DrawBitmap_RLEM16,@function
                           436		.size	_DrawBitmap_RLEM16,.-_DrawBitmap_RLEM16
                           437		.align	4
                           438	
                           439	 #x0	none	param
                           440	 #y0	none	param
                           441	 #xsize	none	param
                           442	 #ysize	none	param
                           443	 #pPixel	none	param
                           444	 #pLogPal	none	param
                           445	 #xMag	$3	param
                           446	 #yMag	none	param
                           447	
                           448		.data
                           449	.L381:

                                   Tue Apr 07 08:57:32 2015           Page 10
                                   Tue Apr 07 08:57:32 2015       gh_2i09u.s
                           450		.text
                           451		.align	4
                           452	 #GUI_Context	GUI_Context	import
                           453	 #_Cache	_Cache	static
                           454	 #_DisplayMode	%sdaoff(_DisplayMode)	static
                           455	 #_DisplaySwapRB	%sdaoff(_DisplaySwapRB)	static
                           456	 #_BitmapSwapRB	%sdaoff(_BitmapSwapRB)	static
                           457	
                           458		.section ".rodata","a"
                           459	.L388:
                           460		.globl	GUI_BitmapMethodsRLE16
        00000000 00000000  461	GUI_BitmapMethodsRLE16:	.word	_DrawBitmap_RLE16
        00000000 00000004  462		.space	4
                           463		.type	GUI_BitmapMethodsRLE16,@object
                           464		.size	GUI_BitmapMethodsRLE16,8
                           465	.L389:
                           466		.globl	GUI_BitmapMethodsRLEM16
        00000000 00000008  467	GUI_BitmapMethodsRLEM16:	.word	_DrawBitmap_RLEM16
        00000000 0000000c  468		.space	4
                           469		.type	GUI_BitmapMethodsRLEM16,@object
                           470		.size	GUI_BitmapMethodsRLEM16,8
                           471		.data
                           472		.section ".bss","awb"
                           473		.align	4
                           474		.section ".rodata","a"
                           475		.align	4
                           476		.section ".sbss","awb"
                           477		.align	4
                           478		.text
