
                                   Tue Apr 07 08:51:51 2015           Page 1
                                   Tue Apr 07 08:51:51 2015       gh_2i02h.s
Command Line:   C:\GHS\V35\mips35\asmips.exe -noundefined -elf -b0
                -IC:\local\Workspace\DC_V04.01.00_int\cu3x1Platform_SRC\emWinColour
                -IC:\local\Workspace\DC_V04.01.00_int\cu3x1App_SRC\MPC_control\source\include
                -IC:\local\Workspace\DC_V04.01.00_int\cu3x1Platform_SRC\platform\common
                -IC:\local\Workspace\DC_V04.01.00_int\cu3x1Platform_SRC\platform\hardware
                -IC:\local\Workspace\DC_V04.01.00_int\cu3x1Platform_SRC\platform\hardware\D3018X
                -IC:\local\Workspace\DC_V04.01.00_int\cu3x1Platform_SRC\embos\inc
                -IC:\local\Workspace\DC_V04.01.00_int\cu3x1Platform_SRC\emWinColour\config
                -IC:\local\Workspace\DC_V04.01.00_int\cu3x1Platform_SRC\emWinColour\gui\ConvertMono
                -IC:\local\Workspace\DC_V04.01.00_int\cu3x1Platform_SRC\emWinColour\gui\Core
                -IC:\local\Workspace\DC_V04.01.00_int\cu3x1Platform_SRC\emWinColour\gui\Font
                -IC:\local\Workspace\DC_V04.01.00_int\cu3x1Platform_SRC\emWinColour\gui\LCDDriver
                -IC:\local\Workspace\DC_V04.01.00_int\cu3x1Platform_SRC\emWinColour\gui\MemDev
                -IC:\local\Workspace\DC_V04.01.00_int\cu3x1Platform_SRC\emWinColour\gui\VNC
                -IC:\local\Workspace\DC_V04.01.00_int\cu3x1Platform_SRC\emWinColour\gui\Widget
                -IC:\local\Workspace\DC_V04.01.00_int\cu3x1Platform_SRC\emWinColour\gui\wm
                -IC:\local\Workspace\DC_V04.01.00_int\cu3x1App_SRC\Control\source
                -IC:\local\Workspace\DC_V04.01.00_int\cu3x1App_SRC\Control\source\include
                -IC:\local\Workspace\DC_V04.01.00_int\cu3x1App_SRC\Control\source\util
                -IC:\local\Workspace\DC_V04.01.00_int\cu3x1App_SRC\Control\source\datapoint
                -IC:\local\Workspace\DC_V04.01.00_int\cu3x1App_SRC\Control\source\factory
                -IC:\local\Workspace\DC_V04.01.00_int\cu3x1Platform_SRC\platform\include
                -IC:\local\Workspace\DC_V04.01.00_int\cu3x1Platform_SRC\embos
                -IC:\local\Workspace\DC_V04.01.00_int\cu3x1Platform_SRC\emWinColour\gui\core
                -IC:\local\Workspace\DC_V04.01.00_int\cu3x1App_SRC\Control\source\rtip\webpage
                -IC:\local\Workspace\DC_V04.01.00_int\cu3x1App_SRC\Control\source\rtip\config
                -IC:\local\Workspace\DC_V04.01.00_int\cu3x1App_SRC\Control\source\rtip\xnet
                -IC:\local\Workspace\DC_V04.01.00_int\cu3x1App_SRC\Control\source\stub
                -IC:\local\Workspace\DC_V04.01.00_int\cu3x1App_SRC\Control\source\test
                -IC:\local\Workspace\DC_V04.01.00_int\cu3x1App_SRC\Control\source\GENIpro
                -IC:\local\Workspace\DC_V04.01.00_int\cu3x1App_SRC\Control\source\GENIpro\GENI_sys
                -IC:\local\Workspace\DC_V04.01.00_int\cu3x1App_SRC\Control\source\GENIpro\GENIusb\emUSB\USB\Driver
                -IC:\local\Workspace\DC_V04.01.00_int\cu3x1App_SRC\Control\source\application\intercom
                -IC:\local\Workspace\DC_V04.01.00_int\cu3x1App_SRC\Control\source\application\controller
                -IC:\local\Workspace\DC_V04.01.00_int\cu3x1App_SRC\Control\source\application\driver
                -IC:\local\Workspace\DC_V04.01.00_int\cu3x1App_SRC\Control\source\application\webif
                -IC:\local\Workspace\DC_V04.01.00_int\cu3x1App_SRC\Control\source\application\relay
                -IC:\local\Workspace\DC_V04.01.00_int\cu3x1App_SRC\Control\source\application\GENIApp
                -IC:\local\Workspace\DC_V04.01.00_int\cu3x1App_SRC\Control\source\application\alarm
                -IC:\local\Workspace\DC_V04.01.00_int\cu3x1App_SRC\Control\source\application\config
                -IC:\local\Workspace\DC_V04.01.00_int\cu3x1App_SRC\Control\source\application\AnaInConfigCtrl
                -IC:\local\Workspace\DC_V04.01.00_int\cu3x1App_SRC\Control\source\application\Sms
                -IC:\local\Workspace\DC_V04.01.00_int\cu3x1App_SRC\Control\source\application\display
                -IC:\local\Workspace\DC_V04.01.00_int\cu3x1App_SRC\Control\source\application\display\display_task
                -IC:\local\Workspace\DC_V04.01.00_int\cu3x1App_SRC\Control\source\application\display\gui_utility
                -IC:\local\Workspace\DC_V04.01.00_int\cu3x1App_SRC\Control\source\application\display\mpcunit
                -IC:\local\Workspace\DC_V04.01.00_int\cu3x1App_SRC\Control\source\GeniPro
                -IC:\local\Workspace\DC_V04.01.00_int\cu3x1App_SRC\Control\source\GeniPro\GENI_sys
                -IC:\local\Workspace\DC_V04.01.00_int\cu3x1App_SRC\Control\source\GeniPro\GENIbus
                -IC:\local\Workspace\DC_V04.01.00_int\cu3x1App_SRC\Control\source\GeniPro\GENIcom
                -IC:\local\Workspace\DC_V04.01.00_int\cu3x1App_SRC\Control\source\GeniPro\GENIrs232
                -IC:\local\Workspace\DC_V04.01.00_int\cu3x1App_SRC\Control\source\GeniPro\Virtual
                -IC:\local\Workspace\DC_V04.01.00_int\cu3x1Platform_SRC\Platform\common
                -IC:\local\Workspace\DC_V04.01.00_int\cu3x1Platform_SRC\Platform\hardware
                -IC:\local\Workspace\DC_V04.01.00_int\cu3x1Platform_SRC\Platform\hardware\D3018X
                -IC:\local\Workspace\DC_V04.01.00_int\cu3x1App_SRC\Control\source\application\display\imagesTFT
                -IC:\GHS\V35\mips35\mipsl_sf -r4121 -source=WM_SetScrollbar.c -o
                objs\gh_2i02h.o -list=objs\WM_SetScrollbar.lst
                C:\Users\55602\AppData\Local\Temp\gh_2i02h.s
Source File:    C:\Users\55602\AppData\Local\Temp\gh_2i02h.s
Directory:      C:\local\Workspace\DC_V04.01.00_int\cu3x1App_SRC\Control\source
Host OS:        GHS_WIN32
Version:        AS-MIPS 3.5#11 
Release:        MULTI 2000, MIPS v3.5
Revision Date:  Wed Feb 27 12:19:03 2002
Release Date:   Sat Mar 02 02:57:59 2002
                             1	 #Source File:   C:\local\Workspace\DC_V04.01.00_int\cu3x1Platform_SRC\emWinColour\GUI\WM\WM_SetScrollbar.c

                                   Tue Apr 07 08:51:51 2015           Page 2
                                   Tue Apr 07 08:51:51 2015       gh_2i02h.s
                             2	 #Directory:     
                             3	 #		C:\local\Workspace\DC_V04.01.00_int\cu3x1App_SRC\Control\source
                             4	 #Compile Date:  Tue Apr 07 08:51:51 2015
                             5	 #Host OS:       Win32
                             6	 #Version:       C-MIPS 3.5#11 RELEASE VERSION
                             7	 #Release:       MULTI 2000, MIPS v3.5
                             8	 #Revision Date: Fri Mar 01 11:32:40 2002
                             9	 #Release Date:  Sat Mar 02 02:58:48 2002
                            10		.set	noat
                            11		.set	noreorder
                            12		.set	nomacro
                            13		.text
                            14		.align	4
                            15	_SetScrollbar:
        27bdffe8 00000000   16		addiu	$sp, $sp, -24
                            17	 #	    .bf
        afbf0014 00000004   18		sw	$ra, 20($sp)
        afb3000c 00000008   19		sw	$19, 12($sp)
        afb10004 0000000c   20		sw	$17, 4($sp)
        00a08825 00000010   21		move	$17, $5
        afb20008 00000014   22		sw	$18, 8($sp)
        00e09025 00000018   23		move	$18, $7
        afb00000 0000001c   24		sw	$16, 0($sp)
        00048400 00000020   25		sll	$16, $4, 16
        00108403 00000024   26		sra	$16, $16, 16
        02002025 00000028   27		move	$4, $16
        0c000000 0000002c   28		jal	WM_GetDialogItem
        00c02825 00000030   29		move	$5, $6
        1220000d 00000034   30		beq	$17, $0, .L4
        00409825 00000038   31		move	$19, $2
        16600011 0000003c   32		bne	$19, $0, .L8
        02002025 00000040   33		move	$4, $16
        0c000000 00000044   34		jal	SCROLLBAR_CreateAttached
        02402825 00000048   35		move	$5, $18
        0013102b 0000004c   36		sltu	$2, $0, $19
        8fb10004 00000050   37		lw	$17, 4($sp)
        8fb00000 00000054   38		lw	$16, 0($sp)
        8fbf0014 00000058   39		lw	$ra, 20($sp)
        8fb20008 0000005c   40		lw	$18, 8($sp)
        8fb3000c 00000060   41		lw	$19, 12($sp)
        03e00008 00000064   42		jr	$ra
        27bd0018 00000068   43		addiu	$sp, $sp, 24
                            44	.L4:
        0c000000 0000006c   45		jal	WM_HideWindow
        02602025 00000070   46		move	$4, $19
        52600004 00000074   47		beql	$19, $0, .L1000008
        0013102b 00000078   48		sltu	$2, $0, $19
        0c000000 0000007c   49		jal	WM_DeleteWindow
        02602025 00000080   50		move	$4, $19
                            51	.L8:
        0013102b 00000084   52		sltu	$2, $0, $19
                            53	.L1000008:
                            54	 #	    .ef
        8fb3000c 00000088   55		lw	$19, 12($sp)
        8fb20008 0000008c   56		lw	$18, 8($sp)
        8fbf0014 00000090   57		lw	$ra, 20($sp)

                                   Tue Apr 07 08:51:51 2015           Page 3
                                   Tue Apr 07 08:51:51 2015       gh_2i02h.s
        8fb00000 00000094   58		lw	$16, 0($sp)
        8fb10004 00000098   59		lw	$17, 4($sp)
        03e00008 0000009c   60		jr	$ra
        27bd0018 000000a0   61		addiu	$sp, $sp, 24
                            62		.type	_SetScrollbar,@function
                            63		.size	_SetScrollbar,.-_SetScrollbar
                            64		.align	4
                            65	 #hBar	$19	local
                            66	
                            67	 #hWin	$16	param
                            68	 #OnOff	$17	param
                            69	 #Id	$6	param
                            70	 #Flags	$18	param
                            71	
                            72		.data
                            73	.L37:
                            74		.text
                            75		.align	4
                            76		.align	4
                            77		.globl	WM__SetScrollbarV
                            78	WM__SetScrollbarV:
        34070008 000000a4   79		ori	$7, $0, 8
                            80	 #	    .bf
        00042400 000000a8   81		sll	$4, $4, 16
        340600fe 000000ac   82		ori	$6, $0, 254
        08000000 000000b0   83		j	_SetScrollbar
        00042403 000000b4   84		sra	$4, $4, 16
                            85	 #	    .ef
                            86		.type	WM__SetScrollbarV,@function
                            87		.size	WM__SetScrollbarV,.-WM__SetScrollbarV
                            88		.align	4
                            89	
                            90	 #hWin	$4	param
                            91	 #OnOff	none	param
                            92	
                            93		.data
                            94	.L67:
                            95		.text
                            96		.align	4
                            97		.align	4
                            98		.globl	WM__SetScrollbarH
                            99	WM__SetScrollbarH:
        34070000 000000b8  100		ori	$7, $0, 0
                           101	 #	    .bf
        00042400 000000bc  102		sll	$4, $4, 16
        340600ff 000000c0  103		ori	$6, $0, 255
        08000000 000000c4  104		j	_SetScrollbar
        00042403 000000c8  105		sra	$4, $4, 16
                           106	 #	    .ef
                           107		.type	WM__SetScrollbarH,@function
                           108		.size	WM__SetScrollbarH,.-WM__SetScrollbarH
                           109		.align	4
                           110	
                           111	 #hWin	$4	param
                           112	 #OnOff	none	param
                           113	

                                   Tue Apr 07 08:51:51 2015           Page 4
                                   Tue Apr 07 08:51:51 2015       gh_2i02h.s
                           114		.data
                           115	.L86:
                           116		.text
                           117		.align	4
                           118		.align	4
                           119		.globl	WM_SetScrollbarH
                           120	WM_SetScrollbarH:
        27bdfff0 000000cc  121		addiu	$sp, $sp, -16
        afbf000c 000000d0  122		sw	$ra, 12($sp)
        afb10004 000000d4  123		sw	$17, 4($sp)
        afb00000 000000d8  124		sw	$16, 0($sp)
        00048400 000000dc  125		sll	$16, $4, 16
        00108403 000000e0  126		sra	$16, $16, 16
                           127	 #	    .bf
        0c000000 000000e4  128		jal	GUI_Lock
        00a08825 000000e8  129		move	$17, $5
        02002025 000000ec  130		move	$4, $16
        0c000000 000000f0  131		jal	WM__SetScrollbarH
        02202825 000000f4  132		move	$5, $17
        0c000000 000000f8  133		jal	GUI_Unlock
        00408025 000000fc  134		move	$16, $2
                           135	 #	    .ef
        02001025 00000100  136		move	$2, $16
        8fbf000c 00000104  137		lw	$ra, 12($sp)
        8fb00000 00000108  138		lw	$16, 0($sp)
        8fb10004 0000010c  139		lw	$17, 4($sp)
        03e00008 00000110  140		jr	$ra
        27bd0010 00000114  141		addiu	$sp, $sp, 16
                           142		.type	WM_SetScrollbarH,@function
                           143		.size	WM_SetScrollbarH,.-WM_SetScrollbarH
                           144		.align	4
                           145	
                           146	 #hWin	$16	param
                           147	 #OnOff	$17	param
                           148	
                           149		.data
                           150	.L105:
                           151		.text
                           152		.align	4
                           153		.align	4
                           154		.globl	WM_SetScrollbarV
                           155	WM_SetScrollbarV:
        27bdfff0 00000118  156		addiu	$sp, $sp, -16
        afbf000c 0000011c  157		sw	$ra, 12($sp)
        afb10004 00000120  158		sw	$17, 4($sp)
        afb00000 00000124  159		sw	$16, 0($sp)
        00048400 00000128  160		sll	$16, $4, 16
        00108403 0000012c  161		sra	$16, $16, 16
                           162	 #	    .bf
        0c000000 00000130  163		jal	GUI_Lock
        00a08825 00000134  164		move	$17, $5
        02002025 00000138  165		move	$4, $16
        0c000000 0000013c  166		jal	WM__SetScrollbarV
        02202825 00000140  167		move	$5, $17
        0c000000 00000144  168		jal	GUI_Unlock
        00408025 00000148  169		move	$16, $2

                                   Tue Apr 07 08:51:51 2015           Page 5
                                   Tue Apr 07 08:51:51 2015       gh_2i02h.s
                           170	 #	    .ef
        02001025 0000014c  171		move	$2, $16
        8fbf000c 00000150  172		lw	$ra, 12($sp)
        8fb00000 00000154  173		lw	$16, 0($sp)
        8fb10004 00000158  174		lw	$17, 4($sp)
        03e00008 0000015c  175		jr	$ra
        27bd0010 00000160  176		addiu	$sp, $sp, 16
                           177		.type	WM_SetScrollbarV,@function
                           178		.size	WM_SetScrollbarV,.-WM_SetScrollbarV
                           179		.align	4
                           180	
                           181	 #hWin	$16	param
                           182	 #OnOff	$17	param
                           183	
                           184		.data
                           185	.L124:
                           186		.text
                           187		.align	4
                           188	
                           189		.data
                           190		.text
