
                                   Tue Apr 07 08:52:08 2015           Page 1
                                   Tue Apr 07 08:52:07 2015       gh_2i02t.s
Command Line:   C:\GHS\V35\mips35\asmips.exe -noundefined -elf -b0
                -IC:\local\Workspace\DC_V04.01.00_int\cu3x1Platform_SRC\emWinColour
                -IC:\local\Workspace\DC_V04.01.00_int\cu3x1App_SRC\MPC_control\source\include
                -IC:\local\Workspace\DC_V04.01.00_int\cu3x1Platform_SRC\platform\common
                -IC:\local\Workspace\DC_V04.01.00_int\cu3x1Platform_SRC\platform\hardware
                -IC:\local\Workspace\DC_V04.01.00_int\cu3x1Platform_SRC\platform\hardware\D3018X
                -IC:\local\Workspace\DC_V04.01.00_int\cu3x1Platform_SRC\embos\inc
                -IC:\local\Workspace\DC_V04.01.00_int\cu3x1Platform_SRC\emWinColour\config
                -IC:\local\Workspace\DC_V04.01.00_int\cu3x1Platform_SRC\emWinColour\gui\ConvertMono
                -IC:\local\Workspace\DC_V04.01.00_int\cu3x1Platform_SRC\emWinColour\gui\Core
                -IC:\local\Workspace\DC_V04.01.00_int\cu3x1Platform_SRC\emWinColour\gui\Font
                -IC:\local\Workspace\DC_V04.01.00_int\cu3x1Platform_SRC\emWinColour\gui\LCDDriver
                -IC:\local\Workspace\DC_V04.01.00_int\cu3x1Platform_SRC\emWinColour\gui\MemDev
                -IC:\local\Workspace\DC_V04.01.00_int\cu3x1Platform_SRC\emWinColour\gui\VNC
                -IC:\local\Workspace\DC_V04.01.00_int\cu3x1Platform_SRC\emWinColour\gui\Widget
                -IC:\local\Workspace\DC_V04.01.00_int\cu3x1Platform_SRC\emWinColour\gui\wm
                -IC:\local\Workspace\DC_V04.01.00_int\cu3x1App_SRC\Control\source
                -IC:\local\Workspace\DC_V04.01.00_int\cu3x1App_SRC\Control\source\include
                -IC:\local\Workspace\DC_V04.01.00_int\cu3x1App_SRC\Control\source\util
                -IC:\local\Workspace\DC_V04.01.00_int\cu3x1App_SRC\Control\source\datapoint
                -IC:\local\Workspace\DC_V04.01.00_int\cu3x1App_SRC\Control\source\factory
                -IC:\local\Workspace\DC_V04.01.00_int\cu3x1Platform_SRC\platform\include
                -IC:\local\Workspace\DC_V04.01.00_int\cu3x1Platform_SRC\embos
                -IC:\local\Workspace\DC_V04.01.00_int\cu3x1Platform_SRC\emWinColour\gui\core
                -IC:\local\Workspace\DC_V04.01.00_int\cu3x1App_SRC\Control\source\rtip\webpage
                -IC:\local\Workspace\DC_V04.01.00_int\cu3x1App_SRC\Control\source\rtip\config
                -IC:\local\Workspace\DC_V04.01.00_int\cu3x1App_SRC\Control\source\rtip\xnet
                -IC:\local\Workspace\DC_V04.01.00_int\cu3x1App_SRC\Control\source\stub
                -IC:\local\Workspace\DC_V04.01.00_int\cu3x1App_SRC\Control\source\test
                -IC:\local\Workspace\DC_V04.01.00_int\cu3x1App_SRC\Control\source\GENIpro
                -IC:\local\Workspace\DC_V04.01.00_int\cu3x1App_SRC\Control\source\GENIpro\GENI_sys
                -IC:\local\Workspace\DC_V04.01.00_int\cu3x1App_SRC\Control\source\GENIpro\GENIusb\emUSB\USB\Driver
                -IC:\local\Workspace\DC_V04.01.00_int\cu3x1App_SRC\Control\source\application\intercom
                -IC:\local\Workspace\DC_V04.01.00_int\cu3x1App_SRC\Control\source\application\controller
                -IC:\local\Workspace\DC_V04.01.00_int\cu3x1App_SRC\Control\source\application\driver
                -IC:\local\Workspace\DC_V04.01.00_int\cu3x1App_SRC\Control\source\application\webif
                -IC:\local\Workspace\DC_V04.01.00_int\cu3x1App_SRC\Control\source\application\relay
                -IC:\local\Workspace\DC_V04.01.00_int\cu3x1App_SRC\Control\source\application\GENIApp
                -IC:\local\Workspace\DC_V04.01.00_int\cu3x1App_SRC\Control\source\application\alarm
                -IC:\local\Workspace\DC_V04.01.00_int\cu3x1App_SRC\Control\source\application\config
                -IC:\local\Workspace\DC_V04.01.00_int\cu3x1App_SRC\Control\source\application\AnaInConfigCtrl
                -IC:\local\Workspace\DC_V04.01.00_int\cu3x1App_SRC\Control\source\application\Sms
                -IC:\local\Workspace\DC_V04.01.00_int\cu3x1App_SRC\Control\source\application\display
                -IC:\local\Workspace\DC_V04.01.00_int\cu3x1App_SRC\Control\source\application\display\display_task
                -IC:\local\Workspace\DC_V04.01.00_int\cu3x1App_SRC\Control\source\application\display\gui_utility
                -IC:\local\Workspace\DC_V04.01.00_int\cu3x1App_SRC\Control\source\application\display\mpcunit
                -IC:\local\Workspace\DC_V04.01.00_int\cu3x1App_SRC\Control\source\GeniPro
                -IC:\local\Workspace\DC_V04.01.00_int\cu3x1App_SRC\Control\source\GeniPro\GENI_sys
                -IC:\local\Workspace\DC_V04.01.00_int\cu3x1App_SRC\Control\source\GeniPro\GENIbus
                -IC:\local\Workspace\DC_V04.01.00_int\cu3x1App_SRC\Control\source\GeniPro\GENIcom
                -IC:\local\Workspace\DC_V04.01.00_int\cu3x1App_SRC\Control\source\GeniPro\GENIrs232
                -IC:\local\Workspace\DC_V04.01.00_int\cu3x1App_SRC\Control\source\GeniPro\Virtual
                -IC:\local\Workspace\DC_V04.01.00_int\cu3x1Platform_SRC\Platform\common
                -IC:\local\Workspace\DC_V04.01.00_int\cu3x1Platform_SRC\Platform\hardware
                -IC:\local\Workspace\DC_V04.01.00_int\cu3x1Platform_SRC\Platform\hardware\D3018X
                -IC:\local\Workspace\DC_V04.01.00_int\cu3x1App_SRC\Control\source\application\display\imagesTFT
                -IC:\GHS\V35\mips35\mipsl_sf -r4121 -source=WM_StayOnTop.c -o
                objs\gh_2i02t.o -list=objs\WM_StayOnTop.lst
                C:\Users\55602\AppData\Local\Temp\gh_2i02t.s
Source File:    C:\Users\55602\AppData\Local\Temp\gh_2i02t.s
Directory:      C:\local\Workspace\DC_V04.01.00_int\cu3x1App_SRC\Control\source
Host OS:        GHS_WIN32
Version:        AS-MIPS 3.5#11 
Release:        MULTI 2000, MIPS v3.5
Revision Date:  Wed Feb 27 12:19:03 2002
Release Date:   Sat Mar 02 02:57:59 2002
                             1	 #Source File:   C:\local\Workspace\DC_V04.01.00_int\cu3x1Platform_SRC\emWinColour\GUI\WM\WM_StayOnTop.c

                                   Tue Apr 07 08:52:08 2015           Page 2
                                   Tue Apr 07 08:52:07 2015       gh_2i02t.s
                             2	 #Directory:     
                             3	 #		C:\local\Workspace\DC_V04.01.00_int\cu3x1App_SRC\Control\source
                             4	 #Compile Date:  Tue Apr 07 08:52:07 2015
                             5	 #Host OS:       Win32
                             6	 #Version:       C-MIPS 3.5#11 RELEASE VERSION
                             7	 #Release:       MULTI 2000, MIPS v3.5
                             8	 #Revision Date: Fri Mar 01 11:32:40 2002
                             9	 #Release Date:  Sat Mar 02 02:58:48 2002
                            10		.set	noat
                            11		.set	noreorder
                            12		.set	nomacro
                            13		.text
                            14		.align	4
                            15		.globl	WM_SetStayOnTop
                            16	WM_SetStayOnTop:
        27bdfff0 00000000   17		addiu	$sp, $sp, -16
        afb10004 00000004   18		sw	$17, 4($sp)
                            19	 #	    .bf
        00a08825 00000008   20		move	$17, $5
        afb00000 0000000c   21		sw	$16, 0($sp)
        00048400 00000010   22		sll	$16, $4, 16
        00108403 00000014   23		sra	$16, $16, 16
        12000021 00000018   24		beq	$16, $0, .L2
        afbf000c 0000001c   25		sw	$ra, 12($sp)
        0c000000 00000020   26		jal	GUI_Lock
        00000000 00000024   27		nop
        0c000000 00000028   28		jal	GUI_ALLOC_h2p
        02002025 0000002c   29		move	$4, $16
        00401825 00000030   30		move	$3, $2
        9462001c 00000034   31		lhu	$2, 28($3)
        12200009 00000038   32		beq	$17, $0, .L6
        0040c025 0000003c   33		move	$24, $2
        304f0008 00000040   34		andi	$15, $2, 8
        15e0000c 00000044   35		bne	$15, $0, .L10
        00406825 00000048   36		move	$13, $2
        35ad0008 0000004c   37		ori	$13, $13, 8
        11b80011 00000050   38		beq	$13, $24, .L13
        a46d001c 00000054   39		sh	$13, 28($3)
        08000000 00000058   40		j	.L14
        00000000 0000005c   41		nop
                            42	.L6:
        30590008 00000060   43		andi	$25, $2, 8
        53200005 00000064   44		beql	$25, $0, .L1000010
        946e001c 00000068   45		lhu	$14, 28($3)
        946f001c 0000006c   46		lhu	$15, 28($3)
        31effff7 00000070   47		andi	$15, $15, 65527
        a46f001c 00000074   48		sh	$15, 28($3)
                            49	.L10:
        946e001c 00000078   50		lhu	$14, 28($3)
                            51	.L1000010:
        11d80006 0000007c   52		beq	$14, $24, .L13
        00000000 00000080   53		nop
                            54	.L14:
        0c000000 00000084   55		jal	WM_GetParent
        02002025 00000088   56		move	$4, $16
        00402825 0000008c   57		move	$5, $2

                                   Tue Apr 07 08:52:08 2015           Page 3
                                   Tue Apr 07 08:52:07 2015       gh_2i02t.s
        0c000000 00000090   58		jal	WM_AttachWindow
        02002025 00000094   59		move	$4, $16
                            60	.L13:
        0c000000 00000098   61		jal	GUI_Unlock
        00000000 0000009c   62		nop
                            63	.L2:
        8fb10004 000000a0   64		lw	$17, 4($sp)
                            65	 #	    .ef
        8fb00000 000000a4   66		lw	$16, 0($sp)
        8fbf000c 000000a8   67		lw	$ra, 12($sp)
        03e00008 000000ac   68		jr	$ra
        27bd0010 000000b0   69		addiu	$sp, $sp, 16
                            70		.type	WM_SetStayOnTop,@function
                            71		.size	WM_SetStayOnTop,.-WM_SetStayOnTop
                            72		.align	4
                            73	 #pWin	$3	local
                            74	 #OldStatus	$24	local
                            75	
                            76	 #hWin	$16	param
                            77	 #OnOff	$17	param
                            78	
                            79		.data
                            80	.L50:
                            81		.text
                            82		.align	4
                            83		.align	4
                            84		.globl	WM_GetStayOnTop
                            85	WM_GetStayOnTop:
        27bdfff0 000000b4   86		addiu	$sp, $sp, -16
        afb10004 000000b8   87		sw	$17, 4($sp)
                            88	 #	    .bf
        34110000 000000bc   89		ori	$17, $0, 0
        afb00000 000000c0   90		sw	$16, 0($sp)
        00048400 000000c4   91		sll	$16, $4, 16
        00108403 000000c8   92		sra	$16, $16, 16
        1200000b 000000cc   93		beq	$16, $0, .L77
        afbf000c 000000d0   94		sw	$ra, 12($sp)
        0c000000 000000d4   95		jal	GUI_Lock
        00000000 000000d8   96		nop
        0c000000 000000dc   97		jal	GUI_ALLOC_h2p
        02002025 000000e0   98		move	$4, $16
        944f001c 000000e4   99		lhu	$15, 28($2)
        31f80008 000000e8  100		andi	$24, $15, 8
        57000001 000000ec  101		bnel	$24, $0, .L79
        34110001 000000f0  102		ori	$17, $0, 1
                           103	.L79:
        0c000000 000000f4  104		jal	GUI_Unlock
        00000000 000000f8  105		nop
                           106	.L77:
        02201025 000000fc  107		move	$2, $17
                           108	 #	    .ef
        8fb10004 00000100  109		lw	$17, 4($sp)
        8fb00000 00000104  110		lw	$16, 0($sp)
        8fbf000c 00000108  111		lw	$ra, 12($sp)
        03e00008 0000010c  112		jr	$ra
        27bd0010 00000110  113		addiu	$sp, $sp, 16

                                   Tue Apr 07 08:52:08 2015           Page 4
                                   Tue Apr 07 08:52:07 2015       gh_2i02t.s
                           114		.type	WM_GetStayOnTop,@function
                           115		.size	WM_GetStayOnTop,.-WM_GetStayOnTop
                           116		.align	4
                           117	 #Result	$17	local
                           118	
                           119	 #hWin	$16	param
                           120	
                           121		.data
                           122	.L104:
                           123		.text
                           124		.align	4
                           125	
                           126		.data
                           127		.text
